ARM GAS  C:\Users\SONG_J~1\AppData\Local\Temp\cciYniAD.s 			page 1


   1              		.cpu cortex-m0
   2              		.eabi_attribute 20, 1
   3              		.eabi_attribute 21, 1
   4              		.eabi_attribute 23, 3
   5              		.eabi_attribute 24, 1
   6              		.eabi_attribute 25, 1
   7              		.eabi_attribute 26, 1
   8              		.eabi_attribute 30, 6
   9              		.eabi_attribute 34, 0
  10              		.eabi_attribute 18, 4
  11              		.file	"agent_tiny_demo.c"
  12              		.global	g_endpoint_name
  13              		.section	.rodata
  14              		.align	2
  15              	.LC1:
  16 0000 34343434 		.ascii	"44440003\000"
  16      30303033 
  16      00
  17              		.section	.data.g_endpoint_name,"aw",%progbits
  18              		.align	2
  21              	g_endpoint_name:
  22 0000 00000000 		.word	.LC1
  23              		.section	.bss.g_phandle,"aw",%nobits
  24              		.align	2
  27              	g_phandle:
  28 0000 00000000 		.space	4
  29              		.section	.bss.g_device_info,"aw",%nobits
  30              		.align	2
  33              	g_device_info:
  34 0000 00000000 		.space	12
  34      00000000 
  34      00000000 
  35              		.section	.bss.g_atiny_params,"aw",%nobits
  36              		.align	2
  39              	g_atiny_params:
  40 0000 00000000 		.space	32
  40      00000000 
  40      00000000 
  40      00000000 
  40      00000000 
  41              		.section	.rodata
  42 0009 000000   		.align	2
  43              	.LC2:
  44 000c 74797065 		.ascii	"type:%d cookie:%d status:%d\012\000"
  44      3A256420 
  44      636F6F6B 
  44      69653A25 
  44      64207374 
  45              		.section	.text.ack_callback,"ax",%progbits
  46              		.align	1
  47              		.global	ack_callback
  48              		.syntax unified
  49              		.code	16
  50              		.thumb_func
  51              		.fpu softvfp
  53              	ack_callback:
  54              		@ args = 0, pretend = 0, frame = 8
ARM GAS  C:\Users\SONG_J~1\AppData\Local\Temp\cciYniAD.s 			page 2


  55              		@ frame_needed = 1, uses_anonymous_args = 0
  56 0000 80B5     		push	{r7, lr}
  57 0002 82B0     		sub	sp, sp, #8
  58 0004 00AF     		add	r7, sp, #0
  59 0006 3960     		str	r1, [r7]
  60 0008 1100     		movs	r1, r2
  61 000a FB1D     		adds	r3, r7, #7
  62 000c 021C     		adds	r2, r0, #0
  63 000e 1A70     		strb	r2, [r3]
  64 0010 BB1D     		adds	r3, r7, #6
  65 0012 0A1C     		adds	r2, r1, #0
  66 0014 1A70     		strb	r2, [r3]
  67 0016 FB1D     		adds	r3, r7, #7
  68 0018 1978     		ldrb	r1, [r3]
  69 001a BB1D     		adds	r3, r7, #6
  70 001c 1B78     		ldrb	r3, [r3]
  71 001e 3A68     		ldr	r2, [r7]
  72 0020 0348     		ldr	r0, .L2
  73 0022 FFF7FEFF 		bl	printf
  74 0026 C046     		nop
  75 0028 BD46     		mov	sp, r7
  76 002a 02B0     		add	sp, sp, #8
  77              		@ sp needed
  78 002c 80BD     		pop	{r7, pc}
  79              	.L3:
  80 002e C046     		.align	2
  81              	.L2:
  82 0030 0C000000 		.word	.LC2
  84              		.section	.rodata
  85 0029 000000   		.align	2
  86              	.LC7:
  87 002c 2F332F30 		.ascii	"/3/0/10\000"
  87      2F313000 
  88              		.align	2
  89              	.LC0:
  90 0034 00       		.byte	0
  91 0035 01       		.byte	1
  92 0036 06       		.byte	6
  93 0037 05       		.byte	5
  94 0038 09       		.byte	9
  95              		.section	.text.app_data_report,"ax",%progbits
  96              		.align	1
  97              		.global	app_data_report
  98              		.syntax unified
  99              		.code	16
 100              		.thumb_func
 101              		.fpu softvfp
 103              	app_data_report:
 104              		@ args = 0, pretend = 0, frame = 32
 105              		@ frame_needed = 1, uses_anonymous_args = 0
 106 0000 80B5     		push	{r7, lr}
 107 0002 88B0     		sub	sp, sp, #32
 108 0004 00AF     		add	r7, sp, #0
 109 0006 1420     		movs	r0, #20
 110 0008 3B18     		adds	r3, r7, r0
 111 000a 174A     		ldr	r2, .L5
 112 000c 1168     		ldr	r1, [r2]
ARM GAS  C:\Users\SONG_J~1\AppData\Local\Temp\cciYniAD.s 			page 3


 113 000e 1960     		str	r1, [r3]
 114 0010 1279     		ldrb	r2, [r2, #4]
 115 0012 1A71     		strb	r2, [r3, #4]
 116 0014 0023     		movs	r3, #0
 117 0016 FB61     		str	r3, [r7, #28]
 118 0018 3B00     		movs	r3, r7
 119 001a 3A18     		adds	r2, r7, r0
 120 001c DA60     		str	r2, [r3, #12]
 121 001e 3B00     		movs	r3, r7
 122 0020 124A     		ldr	r2, .L5+4
 123 0022 1A61     		str	r2, [r3, #16]
 124 0024 3B00     		movs	r3, r7
 125 0026 0022     		movs	r2, #0
 126 0028 5A60     		str	r2, [r3, #4]
 127 002a 3B00     		movs	r3, r7
 128 002c 0522     		movs	r2, #5
 129 002e 9A60     		str	r2, [r3, #8]
 130 0030 3B00     		movs	r3, r7
 131 0032 0122     		movs	r2, #1
 132 0034 1A70     		strb	r2, [r3]
 133 0036 3B00     		movs	r3, r7
 134 0038 FA69     		ldr	r2, [r7, #28]
 135 003a 5A60     		str	r2, [r3, #4]
 136 003c FB69     		ldr	r3, [r7, #28]
 137 003e 0133     		adds	r3, r3, #1
 138 0040 FB61     		str	r3, [r7, #28]
 139 0042 0B4B     		ldr	r3, .L5+8
 140 0044 1B68     		ldr	r3, [r3]
 141 0046 3A00     		movs	r2, r7
 142 0048 1100     		movs	r1, r2
 143 004a 1800     		movs	r0, r3
 144 004c FFF7FEFF 		bl	atiny_data_report
 145 0050 074B     		ldr	r3, .L5+8
 146 0052 1B68     		ldr	r3, [r3]
 147 0054 074A     		ldr	r2, .L5+12
 148 0056 1100     		movs	r1, r2
 149 0058 1800     		movs	r0, r3
 150 005a FFF7FEFF 		bl	atiny_data_change
 151 005e C046     		nop
 152 0060 BD46     		mov	sp, r7
 153 0062 08B0     		add	sp, sp, #32
 154              		@ sp needed
 155 0064 80BD     		pop	{r7, pc}
 156              	.L6:
 157 0066 C046     		.align	2
 158              	.L5:
 159 0068 34000000 		.word	.LC0
 160 006c 00000000 		.word	ack_callback
 161 0070 00000000 		.word	g_phandle
 162 0074 2C000000 		.word	.LC7
 164              		.section	.rodata
 165 0039 000000   		.align	2
 166              	.LC11:
 167 003c 4167656E 		.ascii	"Agent_Tiny\000"
 167      745F5469 
 167      6E7900
 168 0047 00       		.align	2
ARM GAS  C:\Users\SONG_J~1\AppData\Local\Temp\cciYniAD.s 			page 4


 169              	.LC14:
 170 0048 555100   		.ascii	"UQ\000"
 171 004b 00       		.align	2
 172              	.LC16:
 173 004c 3139322E 		.ascii	"192.168.1.111\000"
 173      3136382E 
 173      312E3131 
 173      3100
 174 005a 0000     		.align	2
 175              	.LC18:
 176 005c 35363833 		.ascii	"5683\000"
 176      00
 177              		.section	.text.agent_tiny_entry,"ax",%progbits
 178              		.align	1
 179              		.global	agent_tiny_entry
 180              		.syntax unified
 181              		.code	16
 182              		.thumb_func
 183              		.fpu softvfp
 185              	agent_tiny_entry:
 186              		@ args = 0, pretend = 0, frame = 16
 187              		@ frame_needed = 1, uses_anonymous_args = 0
 188 0000 80B5     		push	{r7, lr}
 189 0002 84B0     		sub	sp, sp, #16
 190 0004 00AF     		add	r7, sp, #0
 191 0006 0023     		movs	r3, #0
 192 0008 FB60     		str	r3, [r7, #12]
 193 000a 0023     		movs	r3, #0
 194 000c BB60     		str	r3, [r7, #8]
 195 000e 1E4B     		ldr	r3, .L11
 196 0010 7B60     		str	r3, [r7, #4]
 197 0012 1E4B     		ldr	r3, .L11+4
 198 0014 1A68     		ldr	r2, [r3]
 199 0016 7B68     		ldr	r3, [r7, #4]
 200 0018 1A60     		str	r2, [r3]
 201 001a 7B68     		ldr	r3, [r7, #4]
 202 001c 1C4A     		ldr	r2, .L11+8
 203 001e 5A60     		str	r2, [r3, #4]
 204 0020 1C4B     		ldr	r3, .L11+12
 205 0022 3B60     		str	r3, [r7]
 206 0024 3B68     		ldr	r3, [r7]
 207 0026 1C4A     		ldr	r2, .L11+16
 208 0028 1A60     		str	r2, [r3]
 209 002a 3B68     		ldr	r3, [r7]
 210 002c 1422     		movs	r2, #20
 211 002e 5A60     		str	r2, [r3, #4]
 212 0030 3B68     		ldr	r3, [r7]
 213 0032 0022     		movs	r2, #0
 214 0034 9A60     		str	r2, [r3, #8]
 215 0036 3B68     		ldr	r3, [r7]
 216 0038 0022     		movs	r2, #0
 217 003a 1A73     		strb	r2, [r3, #12]
 218 003c 3B68     		ldr	r3, [r7]
 219 003e 1033     		adds	r3, r3, #16
 220 0040 FB60     		str	r3, [r7, #12]
 221 0042 3B68     		ldr	r3, [r7]
 222 0044 1833     		adds	r3, r3, #24
ARM GAS  C:\Users\SONG_J~1\AppData\Local\Temp\cciYniAD.s 			page 5


 223 0046 BB60     		str	r3, [r7, #8]
 224 0048 FB68     		ldr	r3, [r7, #12]
 225 004a 144A     		ldr	r2, .L11+20
 226 004c 1A60     		str	r2, [r3]
 227 004e BB68     		ldr	r3, [r7, #8]
 228 0050 124A     		ldr	r2, .L11+20
 229 0052 1A60     		str	r2, [r3]
 230 0054 FB68     		ldr	r3, [r7, #12]
 231 0056 124A     		ldr	r2, .L11+24
 232 0058 5A60     		str	r2, [r3, #4]
 233 005a BB68     		ldr	r3, [r7, #8]
 234 005c 104A     		ldr	r2, .L11+24
 235 005e 5A60     		str	r2, [r3, #4]
 236 0060 104A     		ldr	r2, .L11+28
 237 0062 3B68     		ldr	r3, [r7]
 238 0064 1100     		movs	r1, r2
 239 0066 1800     		movs	r0, r3
 240 0068 FFF7FEFF 		bl	atiny_init
 241 006c 031E     		subs	r3, r0, #0
 242 006e 07D1     		bne	.L10
 243 0070 0C4B     		ldr	r3, .L11+28
 244 0072 1A68     		ldr	r2, [r3]
 245 0074 7B68     		ldr	r3, [r7, #4]
 246 0076 1100     		movs	r1, r2
 247 0078 1800     		movs	r0, r3
 248 007a FFF7FEFF 		bl	atiny_bind
 249 007e 00E0     		b	.L7
 250              	.L10:
 251 0080 C046     		nop
 252              	.L7:
 253 0082 BD46     		mov	sp, r7
 254 0084 04B0     		add	sp, sp, #16
 255              		@ sp needed
 256 0086 80BD     		pop	{r7, pc}
 257              	.L12:
 258              		.align	2
 259              	.L11:
 260 0088 00000000 		.word	g_device_info
 261 008c 00000000 		.word	g_endpoint_name
 262 0090 3C000000 		.word	.LC11
 263 0094 00000000 		.word	g_atiny_params
 264 0098 48000000 		.word	.LC14
 265 009c 4C000000 		.word	.LC16
 266 00a0 5C000000 		.word	.LC18
 267 00a4 00000000 		.word	g_phandle
 269              		.ident	"GCC: (GNU Tools for Arm Embedded Processors 7-2017-q4-major) 7.2.1 20170904 (release) [ARM
ARM GAS  C:\Users\SONG_J~1\AppData\Local\Temp\cciYniAD.s 			page 6

