ARM GAS  C:\Users\SONG_J~1\AppData\Local\Temp\cc5mGnuk.s 			page 1


   1              		.cpu cortex-m0
   2              		.eabi_attribute 20, 1
   3              		.eabi_attribute 21, 1
   4              		.eabi_attribute 23, 3
   5              		.eabi_attribute 24, 1
   6              		.eabi_attribute 25, 1
   7              		.eabi_attribute 26, 1
   8              		.eabi_attribute 30, 6
   9              		.eabi_attribute 34, 0
  10              		.eabi_attribute 18, 4
  11              		.file	"agenttiny.c"
  12              		.section	.text.dm_isUriOpaqueHandle,"ax",%progbits
  13              		.align	1
  14              		.syntax unified
  15              		.code	16
  16              		.thumb_func
  17              		.fpu softvfp
  19              	dm_isUriOpaqueHandle:
  20              		@ args = 0, pretend = 0, frame = 8
  21              		@ frame_needed = 1, uses_anonymous_args = 0
  22 0000 80B5     		push	{r7, lr}
  23 0002 82B0     		sub	sp, sp, #8
  24 0004 00AF     		add	r7, sp, #0
  25 0006 7860     		str	r0, [r7, #4]
  26 0008 7B68     		ldr	r3, [r7, #4]
  27 000a 5B88     		ldrh	r3, [r3, #2]
  28 000c 133B     		subs	r3, r3, #19
  29 000e 5A42     		rsbs	r2, r3, #0
  30 0010 5341     		adcs	r3, r3, r2
  31 0012 DBB2     		uxtb	r3, r3
  32 0014 1800     		movs	r0, r3
  33 0016 BD46     		mov	sp, r7
  34 0018 02B0     		add	sp, sp, #8
  35              		@ sp needed
  36 001a 80BD     		pop	{r7, pc}
  38              		.section	.text.get_resource_uri,"ax",%progbits
  39              		.align	1
  40              		.syntax unified
  41              		.code	16
  42              		.thumb_func
  43              		.fpu softvfp
  45              	get_resource_uri:
  46              		@ args = 0, pretend = 0, frame = 16
  47              		@ frame_needed = 1, uses_anonymous_args = 0
  48 0000 90B5     		push	{r4, r7, lr}
  49 0002 85B0     		sub	sp, sp, #20
  50 0004 00AF     		add	r7, sp, #0
  51 0006 0400     		movs	r4, r0
  52 0008 0800     		movs	r0, r1
  53 000a 1100     		movs	r1, r2
  54 000c 7B60     		str	r3, [r7, #4]
  55 000e 0E23     		movs	r3, #14
  56 0010 FB18     		adds	r3, r7, r3
  57 0012 221C     		adds	r2, r4, #0
  58 0014 1A80     		strh	r2, [r3]
  59 0016 0C23     		movs	r3, #12
  60 0018 FB18     		adds	r3, r7, r3
ARM GAS  C:\Users\SONG_J~1\AppData\Local\Temp\cc5mGnuk.s 			page 2


  61 001a 021C     		adds	r2, r0, #0
  62 001c 1A80     		strh	r2, [r3]
  63 001e 0A23     		movs	r3, #10
  64 0020 FB18     		adds	r3, r7, r3
  65 0022 0A1C     		adds	r2, r1, #0
  66 0024 1A80     		strh	r2, [r3]
  67 0026 7B68     		ldr	r3, [r7, #4]
  68 0028 002B     		cmp	r3, #0
  69 002a 12D0     		beq	.L6
  70 002c 7B68     		ldr	r3, [r7, #4]
  71 002e 0722     		movs	r2, #7
  72 0030 1A70     		strb	r2, [r3]
  73 0032 7B68     		ldr	r3, [r7, #4]
  74 0034 0E22     		movs	r2, #14
  75 0036 BA18     		adds	r2, r7, r2
  76 0038 1288     		ldrh	r2, [r2]
  77 003a 5A80     		strh	r2, [r3, #2]
  78 003c 7B68     		ldr	r3, [r7, #4]
  79 003e 0C22     		movs	r2, #12
  80 0040 BA18     		adds	r2, r7, r2
  81 0042 1288     		ldrh	r2, [r2]
  82 0044 9A80     		strh	r2, [r3, #4]
  83 0046 7B68     		ldr	r3, [r7, #4]
  84 0048 0A22     		movs	r2, #10
  85 004a BA18     		adds	r2, r7, r2
  86 004c 1288     		ldrh	r2, [r2]
  87 004e DA80     		strh	r2, [r3, #6]
  88 0050 00E0     		b	.L3
  89              	.L6:
  90 0052 C046     		nop
  91              	.L3:
  92 0054 BD46     		mov	sp, r7
  93 0056 05B0     		add	sp, sp, #20
  94              		@ sp needed
  95 0058 90BD     		pop	{r4, r7, pc}
  97              		.global	g_reboot
  98              		.section	.bss.g_reboot,"aw",%nobits
  99              		.align	2
 102              	g_reboot:
 103 0000 00000000 		.space	4
 104              		.section	.bss.g_atiny_handle,"aw",%nobits
 105              		.align	2
 108              	g_atiny_handle:
 109 0000 00000000 		.space	84
 109      00000000 
 109      00000000 
 109      00000000 
 109      00000000 
 110              		.section	.rodata
 111              		.align	2
 112              	.LC1:
 113 0000 5B25733A 		.ascii	"[%s:%d] [bootstrap_tag]: BOOTSTRAP_FACTORY mode's p"
 113      25645D20 
 113      5B626F6F 
 113      74737472 
 113      61705F74 
 114 0033 6172616D 		.ascii	"arams is wrong, should have iot server ip/port\015\012"
ARM GAS  C:\Users\SONG_J~1\AppData\Local\Temp\cc5mGnuk.s 			page 3


 114      73206973 
 114      2077726F 
 114      6E672C20 
 114      73686F75 
 115 0063 00       		.ascii	"\000"
 116              		.align	2
 117              	.LC3:
 118 0064 5B25733A 		.ascii	"[%s:%d] [bootstrap_tag]: BOOTSTRAP_CLIENT_INITIATED"
 118      25645D20 
 118      5B626F6F 
 118      74737472 
 118      61705F74 
 119 0097 206D6F64 		.ascii	" mode's params is wrong, should have bootstrap serv"
 119      65277320 
 119      70617261 
 119      6D732069 
 119      73207772 
 120 00ca 65722069 		.ascii	"er ip/port\015\012\000"
 120      702F706F 
 120      72740D0A 
 120      00
 121 00d7 00       		.align	2
 122              	.LC5:
 123 00d8 5B25733A 		.ascii	"[%s:%d] [bootstrap_tag]: BOOTSTRAP only have three "
 123      25645D20 
 123      5B626F6F 
 123      74737472 
 123      61705F74 
 124 010b 6D6F6465 		.ascii	"mode, should been :0,1,2\015\012\000"
 124      2C207368 
 124      6F756C64 
 124      20626565 
 124      6E203A30 
 125              		.section	.text.atiny_check_bootstrap_init_param,"ax",%progbits
 126              		.align	1
 127              		.syntax unified
 128              		.code	16
 129              		.thumb_func
 130              		.fpu softvfp
 132              	atiny_check_bootstrap_init_param:
 133              		@ args = 0, pretend = 0, frame = 8
 134              		@ frame_needed = 1, uses_anonymous_args = 0
 135 0000 80B5     		push	{r7, lr}
 136 0002 82B0     		sub	sp, sp, #8
 137 0004 00AF     		add	r7, sp, #0
 138 0006 7860     		str	r0, [r7, #4]
 139 0008 7B68     		ldr	r3, [r7, #4]
 140 000a 002B     		cmp	r3, #0
 141 000c 02D1     		bne	.L8
 142 000e 0123     		movs	r3, #1
 143 0010 5B42     		rsbs	r3, r3, #0
 144 0012 39E0     		b	.L9
 145              	.L8:
 146 0014 7B68     		ldr	r3, [r7, #4]
 147 0016 1B7B     		ldrb	r3, [r3, #12]
 148 0018 002B     		cmp	r3, #0
 149 001a 10D1     		bne	.L10
ARM GAS  C:\Users\SONG_J~1\AppData\Local\Temp\cc5mGnuk.s 			page 4


 150 001c 7B68     		ldr	r3, [r7, #4]
 151 001e 1B69     		ldr	r3, [r3, #16]
 152 0020 002B     		cmp	r3, #0
 153 0022 03D0     		beq	.L11
 154 0024 7B68     		ldr	r3, [r7, #4]
 155 0026 5B69     		ldr	r3, [r3, #20]
 156 0028 002B     		cmp	r3, #0
 157 002a 2CD1     		bne	.L12
 158              	.L11:
 159 002c 1849     		ldr	r1, .L16
 160 002e 194B     		ldr	r3, .L16+4
 161 0030 6822     		movs	r2, #104
 162 0032 1800     		movs	r0, r3
 163 0034 FFF7FEFF 		bl	atiny_printf
 164 0038 0123     		movs	r3, #1
 165 003a 5B42     		rsbs	r3, r3, #0
 166 003c 24E0     		b	.L9
 167              	.L10:
 168 003e 7B68     		ldr	r3, [r7, #4]
 169 0040 1B7B     		ldrb	r3, [r3, #12]
 170 0042 012B     		cmp	r3, #1
 171 0044 10D1     		bne	.L13
 172 0046 7B68     		ldr	r3, [r7, #4]
 173 0048 9B69     		ldr	r3, [r3, #24]
 174 004a 002B     		cmp	r3, #0
 175 004c 03D0     		beq	.L14
 176 004e 7B68     		ldr	r3, [r7, #4]
 177 0050 DB69     		ldr	r3, [r3, #28]
 178 0052 002B     		cmp	r3, #0
 179 0054 17D1     		bne	.L12
 180              	.L14:
 181 0056 0E49     		ldr	r1, .L16
 182 0058 0F4B     		ldr	r3, .L16+8
 183 005a 7022     		movs	r2, #112
 184 005c 1800     		movs	r0, r3
 185 005e FFF7FEFF 		bl	atiny_printf
 186 0062 0123     		movs	r3, #1
 187 0064 5B42     		rsbs	r3, r3, #0
 188 0066 0FE0     		b	.L9
 189              	.L13:
 190 0068 7B68     		ldr	r3, [r7, #4]
 191 006a 1B7B     		ldrb	r3, [r3, #12]
 192 006c 022B     		cmp	r3, #2
 193 006e 01D1     		bne	.L15
 194 0070 0023     		movs	r3, #0
 195 0072 09E0     		b	.L9
 196              	.L15:
 197 0074 0649     		ldr	r1, .L16
 198 0076 094B     		ldr	r3, .L16+12
 199 0078 7B22     		movs	r2, #123
 200 007a 1800     		movs	r0, r3
 201 007c FFF7FEFF 		bl	atiny_printf
 202 0080 0123     		movs	r3, #1
 203 0082 5B42     		rsbs	r3, r3, #0
 204 0084 00E0     		b	.L9
 205              	.L12:
 206 0086 0023     		movs	r3, #0
ARM GAS  C:\Users\SONG_J~1\AppData\Local\Temp\cc5mGnuk.s 			page 5


 207              	.L9:
 208 0088 1800     		movs	r0, r3
 209 008a BD46     		mov	sp, r7
 210 008c 02B0     		add	sp, sp, #8
 211              		@ sp needed
 212 008e 80BD     		pop	{r7, pc}
 213              	.L17:
 214              		.align	2
 215              	.L16:
 216 0090 00000000 		.word	__func__.7501
 217 0094 00000000 		.word	.LC1
 218 0098 64000000 		.word	.LC3
 219 009c D8000000 		.word	.LC5
 221              		.section	.rodata
 222 0126 0000     		.align	2
 223              	.LC8:
 224 0128 5B25733A 		.ascii	"[%s:%d] [bootstrap_tag]: BOOTSTRAP's params are wro"
 224      25645D20 
 224      5B626F6F 
 224      74737472 
 224      61705F74 
 225 015b 6E670D0A 		.ascii	"ng\015\012\000"
 225      00
 226              		.section	.text.atiny_init,"ax",%progbits
 227              		.align	1
 228              		.global	atiny_init
 229              		.syntax unified
 230              		.code	16
 231              		.thumb_func
 232              		.fpu softvfp
 234              	atiny_init:
 235              		@ args = 0, pretend = 0, frame = 8
 236              		@ frame_needed = 1, uses_anonymous_args = 0
 237 0000 90B5     		push	{r4, r7, lr}
 238 0002 83B0     		sub	sp, sp, #12
 239 0004 00AF     		add	r7, sp, #0
 240 0006 7860     		str	r0, [r7, #4]
 241 0008 3960     		str	r1, [r7]
 242 000a 7B68     		ldr	r3, [r7, #4]
 243 000c 002B     		cmp	r3, #0
 244 000e 02D0     		beq	.L19
 245 0010 3B68     		ldr	r3, [r7]
 246 0012 002B     		cmp	r3, #0
 247 0014 02D1     		bne	.L20
 248              	.L19:
 249 0016 0123     		movs	r3, #1
 250 0018 5B42     		rsbs	r3, r3, #0
 251 001a 21E0     		b	.L21
 252              	.L20:
 253 001c 7B68     		ldr	r3, [r7, #4]
 254 001e 1800     		movs	r0, r3
 255 0020 FFF7FEFF 		bl	atiny_check_bootstrap_init_param
 256 0024 031E     		subs	r3, r0, #0
 257 0026 08D0     		beq	.L22
 258 0028 0F49     		ldr	r1, .L23
 259 002a 104B     		ldr	r3, .L23+4
 260 002c B922     		movs	r2, #185
ARM GAS  C:\Users\SONG_J~1\AppData\Local\Temp\cc5mGnuk.s 			page 6


 261 002e 1800     		movs	r0, r3
 262 0030 FFF7FEFF 		bl	atiny_printf
 263 0034 0123     		movs	r3, #1
 264 0036 5B42     		rsbs	r3, r3, #0
 265 0038 12E0     		b	.L21
 266              	.L22:
 267 003a 0D4B     		ldr	r3, .L23+8
 268 003c 5422     		movs	r2, #84
 269 003e 0021     		movs	r1, #0
 270 0040 1800     		movs	r0, r3
 271 0042 FFF7FEFF 		bl	memset
 272 0046 0A4B     		ldr	r3, .L23+8
 273 0048 7A68     		ldr	r2, [r7, #4]
 274 004a 0433     		adds	r3, r3, #4
 275 004c 13CA     		ldmia	r2!, {r0, r1, r4}
 276 004e 13C3     		stmia	r3!, {r0, r1, r4}
 277 0050 13CA     		ldmia	r2!, {r0, r1, r4}
 278 0052 13C3     		stmia	r3!, {r0, r1, r4}
 279 0054 03CA     		ldmia	r2!, {r0, r1}
 280 0056 03C3     		stmia	r3!, {r0, r1}
 281 0058 3B68     		ldr	r3, [r7]
 282 005a 054A     		ldr	r2, .L23+8
 283 005c 1A60     		str	r2, [r3]
 284 005e 0023     		movs	r3, #0
 285              	.L21:
 286 0060 1800     		movs	r0, r3
 287 0062 BD46     		mov	sp, r7
 288 0064 03B0     		add	sp, sp, #12
 289              		@ sp needed
 290 0066 90BD     		pop	{r4, r7, pc}
 291              	.L24:
 292              		.align	2
 293              	.L23:
 294 0068 00000000 		.word	__func__.7506
 295 006c 28010000 		.word	.LC8
 296 0070 00000000 		.word	g_atiny_handle
 298              		.section	.rodata
 299              		.align	2
 300              	.LC12:
 301 0160 5B25733A 		.ascii	"[%s:%d] [bootstrap_tag]: the atiny_params or lwm2m_"
 301      25645D20 
 301      5B626F6F 
 301      74737472 
 301      61705F74 
 302 0193 636F6E74 		.ascii	"context params are NULL for get_set_bootstrap_info "
 302      65787420 
 302      70617261 
 302      6D732061 
 302      7265204E 
 303 01c6 0D0A00   		.ascii	"\015\012\000"
 304              		.section	.text.atiny_set_bootstrap_sequence_state,"ax",%progbits
 305              		.align	1
 306              		.global	atiny_set_bootstrap_sequence_state
 307              		.syntax unified
 308              		.code	16
 309              		.thumb_func
 310              		.fpu softvfp
ARM GAS  C:\Users\SONG_J~1\AppData\Local\Temp\cc5mGnuk.s 			page 7


 312              	atiny_set_bootstrap_sequence_state:
 313              		@ args = 0, pretend = 0, frame = 8
 314              		@ frame_needed = 1, uses_anonymous_args = 0
 315 0000 80B5     		push	{r7, lr}
 316 0002 82B0     		sub	sp, sp, #8
 317 0004 00AF     		add	r7, sp, #0
 318 0006 7860     		str	r0, [r7, #4]
 319 0008 3960     		str	r1, [r7]
 320 000a 7B68     		ldr	r3, [r7, #4]
 321 000c 002B     		cmp	r3, #0
 322 000e 02D0     		beq	.L26
 323 0010 3B68     		ldr	r3, [r7]
 324 0012 002B     		cmp	r3, #0
 325 0014 06D1     		bne	.L27
 326              	.L26:
 327 0016 1A49     		ldr	r1, .L35
 328 0018 1A4B     		ldr	r3, .L35+4
 329 001a EE22     		movs	r2, #238
 330 001c 1800     		movs	r0, r3
 331 001e FFF7FEFF 		bl	atiny_printf
 332 0022 29E0     		b	.L25
 333              	.L27:
 334 0024 3B68     		ldr	r3, [r7]
 335 0026 0422     		movs	r2, #4
 336 0028 5A70     		strb	r2, [r3, #1]
 337 002a 7B68     		ldr	r3, [r7, #4]
 338 002c 1B7B     		ldrb	r3, [r3, #12]
 339 002e 012B     		cmp	r3, #1
 340 0030 1DD0     		beq	.L30
 341 0032 022B     		cmp	r3, #2
 342 0034 06D0     		beq	.L31
 343 0036 002B     		cmp	r3, #0
 344 0038 00D0     		beq	.L32
 345 003a 1DE0     		b	.L25
 346              	.L32:
 347 003c 3B68     		ldr	r3, [r7]
 348 003e 0122     		movs	r2, #1
 349 0040 9A70     		strb	r2, [r3, #2]
 350 0042 19E0     		b	.L25
 351              	.L31:
 352 0044 3B68     		ldr	r3, [r7]
 353 0046 0222     		movs	r2, #2
 354 0048 5A70     		strb	r2, [r3, #1]
 355 004a 3B68     		ldr	r3, [r7]
 356 004c 0022     		movs	r2, #0
 357 004e 9A70     		strb	r2, [r3, #2]
 358 0050 7B68     		ldr	r3, [r7, #4]
 359 0052 1B69     		ldr	r3, [r3, #16]
 360 0054 002B     		cmp	r3, #0
 361 0056 0ED0     		beq	.L34
 362 0058 7B68     		ldr	r3, [r7, #4]
 363 005a 5B69     		ldr	r3, [r3, #20]
 364 005c 002B     		cmp	r3, #0
 365 005e 0AD0     		beq	.L34
 366 0060 3B68     		ldr	r3, [r7]
 367 0062 0122     		movs	r2, #1
 368 0064 5A70     		strb	r2, [r3, #1]
ARM GAS  C:\Users\SONG_J~1\AppData\Local\Temp\cc5mGnuk.s 			page 8


 369 0066 3B68     		ldr	r3, [r7]
 370 0068 0122     		movs	r2, #1
 371 006a 9A70     		strb	r2, [r3, #2]
 372 006c 03E0     		b	.L34
 373              	.L30:
 374 006e 3B68     		ldr	r3, [r7]
 375 0070 0022     		movs	r2, #0
 376 0072 9A70     		strb	r2, [r3, #2]
 377 0074 00E0     		b	.L25
 378              	.L34:
 379 0076 C046     		nop
 380              	.L25:
 381 0078 BD46     		mov	sp, r7
 382 007a 02B0     		add	sp, sp, #8
 383              		@ sp needed
 384 007c 80BD     		pop	{r7, pc}
 385              	.L36:
 386 007e C046     		.align	2
 387              	.L35:
 388 0080 00000000 		.word	__func__.7511
 389 0084 60010000 		.word	.LC12
 391              		.section	.text.atiny_init_objects,"ax",%progbits
 392              		.align	1
 393              		.global	atiny_init_objects
 394              		.syntax unified
 395              		.code	16
 396              		.thumb_func
 397              		.fpu softvfp
 399              	atiny_init_objects:
 400              		@ args = 0, pretend = 0, frame = 40
 401              		@ frame_needed = 1, uses_anonymous_args = 0
 402 0000 90B5     		push	{r4, r7, lr}
 403 0002 8DB0     		sub	sp, sp, #52
 404 0004 02AF     		add	r7, sp, #8
 405 0006 F860     		str	r0, [r7, #12]
 406 0008 B960     		str	r1, [r7, #8]
 407 000a 7A60     		str	r2, [r7, #4]
 408 000c 0023     		movs	r3, #0
 409 000e 7B62     		str	r3, [r7, #36]
 410 0010 2223     		movs	r3, #34
 411 0012 FB18     		adds	r3, r7, r3
 412 0014 7B22     		movs	r2, #123
 413 0016 1A80     		strh	r2, [r3]
 414 0018 BB68     		ldr	r3, [r7, #8]
 415 001a 1B68     		ldr	r3, [r3]
 416 001c FB61     		str	r3, [r7, #28]
 417 001e FFF7FEFF 		bl	atiny_init_rpt
 418 0022 0300     		movs	r3, r0
 419 0024 BB61     		str	r3, [r7, #24]
 420 0026 BB69     		ldr	r3, [r7, #24]
 421 0028 002B     		cmp	r3, #0
 422 002a 01D0     		beq	.L38
 423 002c BB69     		ldr	r3, [r7, #24]
 424 002e 81E0     		b	.L39
 425              	.L38:
 426 0030 7B68     		ldr	r3, [r7, #4]
 427 0032 2433     		adds	r3, r3, #36
ARM GAS  C:\Users\SONG_J~1\AppData\Local\Temp\cc5mGnuk.s 			page 9


 428 0034 7B61     		str	r3, [r7, #20]
 429 0036 7B69     		ldr	r3, [r7, #20]
 430 0038 1022     		movs	r2, #16
 431 003a 0021     		movs	r1, #0
 432 003c 1800     		movs	r0, r3
 433 003e FFF7FEFF 		bl	memset
 434 0042 7B69     		ldr	r3, [r7, #20]
 435 0044 1800     		movs	r0, r3
 436 0046 FFF7FEFF 		bl	lwm2m_init
 437 004a 0300     		movs	r3, r0
 438 004c 7B62     		str	r3, [r7, #36]
 439 004e 7B6A     		ldr	r3, [r7, #36]
 440 0050 002B     		cmp	r3, #0
 441 0052 02D1     		bne	.L40
 442 0054 0423     		movs	r3, #4
 443 0056 5B42     		rsbs	r3, r3, #0
 444 0058 6CE0     		b	.L39
 445              	.L40:
 446 005a 7B69     		ldr	r3, [r7, #20]
 447 005c 7A6A     		ldr	r2, [r7, #36]
 448 005e DA60     		str	r2, [r3, #12]
 449 0060 7B68     		ldr	r3, [r7, #4]
 450 0062 7A6A     		ldr	r2, [r7, #36]
 451 0064 1A60     		str	r2, [r3]
 452 0066 7A6A     		ldr	r2, [r7, #36]
 453 0068 FB68     		ldr	r3, [r7, #12]
 454 006a 1100     		movs	r1, r2
 455 006c 1800     		movs	r0, r3
 456 006e FFF7FEFF 		bl	atiny_set_bootstrap_sequence_state
 457 0072 7A6A     		ldr	r2, [r7, #36]
 458 0074 F968     		ldr	r1, [r7, #12]
 459 0076 2223     		movs	r3, #34
 460 0078 FB18     		adds	r3, r7, r3
 461 007a 1B88     		ldrh	r3, [r3]
 462 007c 1800     		movs	r0, r3
 463 007e FFF7FEFF 		bl	get_security_object
 464 0082 0200     		movs	r2, r0
 465 0084 7B68     		ldr	r3, [r7, #4]
 466 0086 5A63     		str	r2, [r3, #52]
 467 0088 7B68     		ldr	r3, [r7, #4]
 468 008a 5B6B     		ldr	r3, [r3, #52]
 469 008c 002B     		cmp	r3, #0
 470 008e 02D1     		bne	.L41
 471 0090 0423     		movs	r3, #4
 472 0092 5B42     		rsbs	r3, r3, #0
 473 0094 4EE0     		b	.L39
 474              	.L41:
 475 0096 7B68     		ldr	r3, [r7, #4]
 476 0098 5A6B     		ldr	r2, [r3, #52]
 477 009a 7B69     		ldr	r3, [r7, #20]
 478 009c 1A60     		str	r2, [r3]
 479 009e 2223     		movs	r3, #34
 480 00a0 FB18     		adds	r3, r7, r3
 481 00a2 1888     		ldrh	r0, [r3]
 482 00a4 FB68     		ldr	r3, [r7, #12]
 483 00a6 1968     		ldr	r1, [r3]
 484 00a8 FB68     		ldr	r3, [r7, #12]
ARM GAS  C:\Users\SONG_J~1\AppData\Local\Temp\cc5mGnuk.s 			page 10


 485 00aa 5A68     		ldr	r2, [r3, #4]
 486 00ac FB68     		ldr	r3, [r7, #12]
 487 00ae 9B68     		ldr	r3, [r3, #8]
 488 00b0 5C1E     		subs	r4, r3, #1
 489 00b2 A341     		sbcs	r3, r3, r4
 490 00b4 DBB2     		uxtb	r3, r3
 491 00b6 FFF7FEFF 		bl	get_server_object
 492 00ba 0200     		movs	r2, r0
 493 00bc 7B68     		ldr	r3, [r7, #4]
 494 00be 9A63     		str	r2, [r3, #56]
 495 00c0 7B68     		ldr	r3, [r7, #4]
 496 00c2 9B6B     		ldr	r3, [r3, #56]
 497 00c4 002B     		cmp	r3, #0
 498 00c6 02D1     		bne	.L42
 499 00c8 0423     		movs	r3, #4
 500 00ca 5B42     		rsbs	r3, r3, #0
 501 00cc 32E0     		b	.L39
 502              	.L42:
 503 00ce BB68     		ldr	r3, [r7, #8]
 504 00d0 5A68     		ldr	r2, [r3, #4]
 505 00d2 FB68     		ldr	r3, [r7, #12]
 506 00d4 1100     		movs	r1, r2
 507 00d6 1800     		movs	r0, r3
 508 00d8 FFF7FEFF 		bl	get_object_device
 509 00dc 0200     		movs	r2, r0
 510 00de 7B68     		ldr	r3, [r7, #4]
 511 00e0 DA63     		str	r2, [r3, #60]
 512 00e2 7B68     		ldr	r3, [r7, #4]
 513 00e4 DB6B     		ldr	r3, [r3, #60]
 514 00e6 002B     		cmp	r3, #0
 515 00e8 02D1     		bne	.L43
 516 00ea 0423     		movs	r3, #4
 517 00ec 5B42     		rsbs	r3, r3, #0
 518 00ee 21E0     		b	.L39
 519              	.L43:
 520 00f0 FB68     		ldr	r3, [r7, #12]
 521 00f2 1800     		movs	r0, r3
 522 00f4 FFF7FEFF 		bl	get_binary_app_data_object
 523 00f8 0200     		movs	r2, r0
 524 00fa 7B68     		ldr	r3, [r7, #4]
 525 00fc 1A64     		str	r2, [r3, #64]
 526 00fe 7B68     		ldr	r3, [r7, #4]
 527 0100 1B6C     		ldr	r3, [r3, #64]
 528 0102 002B     		cmp	r3, #0
 529 0104 02D1     		bne	.L44
 530 0106 0423     		movs	r3, #4
 531 0108 5B42     		rsbs	r3, r3, #0
 532 010a 13E0     		b	.L39
 533              	.L44:
 534 010c 7B68     		ldr	r3, [r7, #4]
 535 010e 3433     		adds	r3, r3, #52
 536 0110 F969     		ldr	r1, [r7, #28]
 537 0112 786A     		ldr	r0, [r7, #36]
 538 0114 0193     		str	r3, [sp, #4]
 539 0116 0423     		movs	r3, #4
 540 0118 0093     		str	r3, [sp]
 541 011a 0023     		movs	r3, #0
ARM GAS  C:\Users\SONG_J~1\AppData\Local\Temp\cc5mGnuk.s 			page 11


 542 011c 0022     		movs	r2, #0
 543 011e FFF7FEFF 		bl	lwm2m_configure
 544 0122 0300     		movs	r3, r0
 545 0124 BB61     		str	r3, [r7, #24]
 546 0126 BB69     		ldr	r3, [r7, #24]
 547 0128 002B     		cmp	r3, #0
 548 012a 02D0     		beq	.L45
 549 012c 0523     		movs	r3, #5
 550 012e 5B42     		rsbs	r3, r3, #0
 551 0130 00E0     		b	.L39
 552              	.L45:
 553 0132 0023     		movs	r3, #0
 554              	.L39:
 555 0134 1800     		movs	r0, r3
 556 0136 BD46     		mov	sp, r7
 557 0138 0BB0     		add	sp, sp, #44
 558              		@ sp needed
 559 013a 90BD     		pop	{r4, r7, pc}
 561              		.section	.text.lwm2m_poll,"ax",%progbits
 562              		.align	1
 563              		.syntax unified
 564              		.code	16
 565              		.thumb_func
 566              		.fpu softvfp
 568              	lwm2m_poll:
 569              		@ args = 0, pretend = 0, frame = 32
 570              		@ frame_needed = 1, uses_anonymous_args = 0
 571 0000 90B5     		push	{r4, r7, lr}
 572 0002 89B0     		sub	sp, sp, #36
 573 0004 00AF     		add	r7, sp, #0
 574 0006 7860     		str	r0, [r7, #4]
 575 0008 3960     		str	r1, [r7]
 576 000a 7B68     		ldr	r3, [r7, #4]
 577 000c 1B68     		ldr	r3, [r3]
 578 000e BB61     		str	r3, [r7, #24]
 579 0010 7B68     		ldr	r3, [r7, #4]
 580 0012 1B6D     		ldr	r3, [r3, #80]
 581 0014 7B61     		str	r3, [r7, #20]
 582 0016 BB69     		ldr	r3, [r7, #24]
 583 0018 DB6A     		ldr	r3, [r3, #44]
 584 001a 3B61     		str	r3, [r7, #16]
 585 001c 3B69     		ldr	r3, [r7, #16]
 586 001e 9B68     		ldr	r3, [r3, #8]
 587 0020 FB61     		str	r3, [r7, #28]
 588 0022 1EE0     		b	.L47
 589              	.L49:
 590 0024 3B68     		ldr	r3, [r7]
 591 0026 1C68     		ldr	r4, [r3]
 592 0028 8023     		movs	r3, #128
 593 002a DA00     		lsls	r2, r3, #3
 594 002c 7969     		ldr	r1, [r7, #20]
 595 002e F869     		ldr	r0, [r7, #28]
 596 0030 2300     		movs	r3, r4
 597 0032 FFF7FEFF 		bl	lwm2m_buffer_recv
 598 0036 0300     		movs	r3, r0
 599 0038 FB60     		str	r3, [r7, #12]
 600 003a FB68     		ldr	r3, [r7, #12]
ARM GAS  C:\Users\SONG_J~1\AppData\Local\Temp\cc5mGnuk.s 			page 12


 601 003c 002B     		cmp	r3, #0
 602 003e 0DDD     		ble	.L48
 603 0040 0C4B     		ldr	r3, .L51
 604 0042 1B68     		ldr	r3, [r3]
 605 0044 D868     		ldr	r0, [r3, #12]
 606 0046 FA68     		ldr	r2, [r7, #12]
 607 0048 7969     		ldr	r1, [r7, #20]
 608 004a 0023     		movs	r3, #0
 609 004c FFF7FEFF 		bl	output_buffer
 610 0050 FB69     		ldr	r3, [r7, #28]
 611 0052 FA68     		ldr	r2, [r7, #12]
 612 0054 7969     		ldr	r1, [r7, #20]
 613 0056 B869     		ldr	r0, [r7, #24]
 614 0058 FFF7FEFF 		bl	lwm2m_handle_packet
 615              	.L48:
 616 005c FB69     		ldr	r3, [r7, #28]
 617 005e 1B68     		ldr	r3, [r3]
 618 0060 FB61     		str	r3, [r7, #28]
 619              	.L47:
 620 0062 FB69     		ldr	r3, [r7, #28]
 621 0064 002B     		cmp	r3, #0
 622 0066 DDD1     		bne	.L49
 623 0068 0023     		movs	r3, #0
 624 006a 1800     		movs	r0, r3
 625 006c BD46     		mov	sp, r7
 626 006e 09B0     		add	sp, sp, #36
 627              		@ sp needed
 628 0070 90BD     		pop	{r4, r7, pc}
 629              	.L52:
 630 0072 C046     		.align	2
 631              	.L51:
 632 0074 00000000 		.word	_impure_ptr
 634              		.section	.text.atiny_destroy,"ax",%progbits
 635              		.align	1
 636              		.global	atiny_destroy
 637              		.syntax unified
 638              		.code	16
 639              		.thumb_func
 640              		.fpu softvfp
 642              	atiny_destroy:
 643              		@ args = 0, pretend = 0, frame = 16
 644              		@ frame_needed = 1, uses_anonymous_args = 0
 645 0000 80B5     		push	{r7, lr}
 646 0002 84B0     		sub	sp, sp, #16
 647 0004 00AF     		add	r7, sp, #0
 648 0006 7860     		str	r0, [r7, #4]
 649 0008 7B68     		ldr	r3, [r7, #4]
 650 000a FB60     		str	r3, [r7, #12]
 651 000c FB68     		ldr	r3, [r7, #12]
 652 000e 002B     		cmp	r3, #0
 653 0010 43D0     		beq	.L62
 654 0012 FB68     		ldr	r3, [r7, #12]
 655 0014 1B6D     		ldr	r3, [r3, #80]
 656 0016 002B     		cmp	r3, #0
 657 0018 04D0     		beq	.L56
 658 001a FB68     		ldr	r3, [r7, #12]
 659 001c 1B6D     		ldr	r3, [r3, #80]
ARM GAS  C:\Users\SONG_J~1\AppData\Local\Temp\cc5mGnuk.s 			page 13


 660 001e 1800     		movs	r0, r3
 661 0020 FFF7FEFF 		bl	lwm2m_free
 662              	.L56:
 663 0024 FB68     		ldr	r3, [r7, #12]
 664 0026 5B6B     		ldr	r3, [r3, #52]
 665 0028 002B     		cmp	r3, #0
 666 002a 04D0     		beq	.L57
 667 002c FB68     		ldr	r3, [r7, #12]
 668 002e 5B6B     		ldr	r3, [r3, #52]
 669 0030 1800     		movs	r0, r3
 670 0032 FFF7FEFF 		bl	clean_security_object
 671              	.L57:
 672 0036 FB68     		ldr	r3, [r7, #12]
 673 0038 9B6B     		ldr	r3, [r3, #56]
 674 003a 002B     		cmp	r3, #0
 675 003c 04D0     		beq	.L58
 676 003e FB68     		ldr	r3, [r7, #12]
 677 0040 9B6B     		ldr	r3, [r3, #56]
 678 0042 1800     		movs	r0, r3
 679 0044 FFF7FEFF 		bl	clean_server_object
 680              	.L58:
 681 0048 FB68     		ldr	r3, [r7, #12]
 682 004a DB6B     		ldr	r3, [r3, #60]
 683 004c 002B     		cmp	r3, #0
 684 004e 04D0     		beq	.L59
 685 0050 FB68     		ldr	r3, [r7, #12]
 686 0052 DB6B     		ldr	r3, [r3, #60]
 687 0054 1800     		movs	r0, r3
 688 0056 FFF7FEFF 		bl	free_object_device
 689              	.L59:
 690 005a FB68     		ldr	r3, [r7, #12]
 691 005c 1B6C     		ldr	r3, [r3, #64]
 692 005e 002B     		cmp	r3, #0
 693 0060 04D0     		beq	.L60
 694 0062 FB68     		ldr	r3, [r7, #12]
 695 0064 1B6C     		ldr	r3, [r3, #64]
 696 0066 1800     		movs	r0, r3
 697 0068 FFF7FEFF 		bl	free_binary_app_data_object
 698              	.L60:
 699 006c FFF7FEFF 		bl	atiny_destroy_rpt
 700 0070 FB68     		ldr	r3, [r7, #12]
 701 0072 1B68     		ldr	r3, [r3]
 702 0074 002B     		cmp	r3, #0
 703 0076 11D0     		beq	.L53
 704 0078 FB68     		ldr	r3, [r7, #12]
 705 007a 1B68     		ldr	r3, [r3]
 706 007c 1B6A     		ldr	r3, [r3, #32]
 707 007e 002B     		cmp	r3, #0
 708 0080 05D0     		beq	.L61
 709 0082 FB68     		ldr	r3, [r7, #12]
 710 0084 1B68     		ldr	r3, [r3]
 711 0086 1B6A     		ldr	r3, [r3, #32]
 712 0088 1800     		movs	r0, r3
 713 008a FFF7FEFF 		bl	atiny_mutex_destroy
 714              	.L61:
 715 008e FB68     		ldr	r3, [r7, #12]
 716 0090 1B68     		ldr	r3, [r3]
ARM GAS  C:\Users\SONG_J~1\AppData\Local\Temp\cc5mGnuk.s 			page 14


 717 0092 1800     		movs	r0, r3
 718 0094 FFF7FEFF 		bl	lwm2m_close
 719 0098 00E0     		b	.L53
 720              	.L62:
 721 009a C046     		nop
 722              	.L53:
 723 009c BD46     		mov	sp, r7
 724 009e 04B0     		add	sp, sp, #16
 725              		@ sp needed
 726 00a0 80BD     		pop	{r7, pc}
 728              		.section	.text.atiny_event_handle,"ax",%progbits
 729              		.align	1
 730              		.global	atiny_event_handle
 731              		.syntax unified
 732              		.code	16
 733              		.thumb_func
 734              		.fpu softvfp
 736              	atiny_event_handle:
 737              		@ args = 0, pretend = 0, frame = 24
 738              		@ frame_needed = 1, uses_anonymous_args = 0
 739 0000 80B5     		push	{r7, lr}
 740 0002 86B0     		sub	sp, sp, #24
 741 0004 00AF     		add	r7, sp, #0
 742 0006 B960     		str	r1, [r7, #8]
 743 0008 7A60     		str	r2, [r7, #4]
 744 000a 3B60     		str	r3, [r7]
 745 000c 0F21     		movs	r1, #15
 746 000e 7B18     		adds	r3, r7, r1
 747 0010 021C     		adds	r2, r0, #0
 748 0012 1A70     		strb	r2, [r3]
 749 0014 7B18     		adds	r3, r7, r1
 750 0016 1B78     		ldrb	r3, [r3]
 751 0018 012B     		cmp	r3, #1
 752 001a 49D0     		beq	.L74
 753 001c 022B     		cmp	r3, #2
 754 001e 14D0     		beq	.L66
 755 0020 002B     		cmp	r3, #0
 756 0022 00D0     		beq	.L67
 757 0024 49E0     		b	.L70
 758              	.L67:
 759 0026 BB68     		ldr	r3, [r7, #8]
 760 0028 022B     		cmp	r3, #2
 761 002a 05D1     		bne	.L68
 762 002c 0022     		movs	r2, #0
 763 002e 0021     		movs	r1, #0
 764 0030 0020     		movs	r0, #0
 765 0032 FFF7FEFF 		bl	atiny_event_notify
 766 0036 3DE0     		b	.L75
 767              	.L68:
 768 0038 BB68     		ldr	r3, [r7, #8]
 769 003a 032B     		cmp	r3, #3
 770 003c 3AD1     		bne	.L75
 771 003e 0022     		movs	r2, #0
 772 0040 0021     		movs	r1, #0
 773 0042 0120     		movs	r0, #1
 774 0044 FFF7FEFF 		bl	atiny_event_notify
 775 0048 34E0     		b	.L75
ARM GAS  C:\Users\SONG_J~1\AppData\Local\Temp\cc5mGnuk.s 			page 15


 776              	.L66:
 777 004a 7B68     		ldr	r3, [r7, #4]
 778 004c 002B     		cmp	r3, #0
 779 004e 34D0     		beq	.L76
 780 0050 3B68     		ldr	r3, [r7]
 781 0052 072B     		cmp	r3, #7
 782 0054 31D9     		bls	.L76
 783 0056 BB68     		ldr	r3, [r7, #8]
 784 0058 002B     		cmp	r3, #0
 785 005a 15D1     		bne	.L71
 786 005c 7B68     		ldr	r3, [r7, #4]
 787 005e 1800     		movs	r0, r3
 788 0060 FFF7FEFF 		bl	dm_isUriOpaqueHandle
 789 0064 031E     		subs	r3, r0, #0
 790 0066 09D0     		beq	.L72
 791 0068 1721     		movs	r1, #23
 792 006a 7B18     		adds	r3, r7, r1
 793 006c 0122     		movs	r2, #1
 794 006e 1A70     		strb	r2, [r3]
 795 0070 7B18     		adds	r3, r7, r1
 796 0072 0122     		movs	r2, #1
 797 0074 1900     		movs	r1, r3
 798 0076 0320     		movs	r0, #3
 799 0078 FFF7FEFF 		bl	atiny_event_notify
 800              	.L72:
 801 007c 7B68     		ldr	r3, [r7, #4]
 802 007e 0221     		movs	r1, #2
 803 0080 1800     		movs	r0, r3
 804 0082 FFF7FEFF 		bl	atiny_clear_rpt_data
 805 0086 17E0     		b	.L77
 806              	.L71:
 807 0088 BB68     		ldr	r3, [r7, #8]
 808 008a 012B     		cmp	r3, #1
 809 008c 14D1     		bne	.L77
 810 008e 7B68     		ldr	r3, [r7, #4]
 811 0090 1800     		movs	r0, r3
 812 0092 FFF7FEFF 		bl	dm_isUriOpaqueHandle
 813 0096 031E     		subs	r3, r0, #0
 814 0098 0ED0     		beq	.L77
 815 009a 1621     		movs	r1, #22
 816 009c 7B18     		adds	r3, r7, r1
 817 009e 0122     		movs	r2, #1
 818 00a0 1A70     		strb	r2, [r3]
 819 00a2 7B18     		adds	r3, r7, r1
 820 00a4 0122     		movs	r2, #1
 821 00a6 1900     		movs	r1, r3
 822 00a8 0220     		movs	r0, #2
 823 00aa FFF7FEFF 		bl	atiny_event_notify
 824 00ae 03E0     		b	.L77
 825              	.L74:
 826 00b0 C046     		nop
 827 00b2 02E0     		b	.L76
 828              	.L75:
 829 00b4 C046     		nop
 830 00b6 00E0     		b	.L76
 831              	.L77:
 832 00b8 C046     		nop
ARM GAS  C:\Users\SONG_J~1\AppData\Local\Temp\cc5mGnuk.s 			page 16


 833              	.L70:
 834              	.L76:
 835 00ba C046     		nop
 836 00bc BD46     		mov	sp, r7
 837 00be 06B0     		add	sp, sp, #24
 838              		@ sp needed
 839 00c0 80BD     		pop	{r7, pc}
 841              		.section	.text.reboot_check,"ax",%progbits
 842              		.align	1
 843              		.global	reboot_check
 844              		.syntax unified
 845              		.code	16
 846              		.thumb_func
 847              		.fpu softvfp
 849              	reboot_check:
 850              		@ args = 0, pretend = 0, frame = 0
 851              		@ frame_needed = 1, uses_anonymous_args = 0
 852 0000 80B5     		push	{r7, lr}
 853 0002 00AF     		add	r7, sp, #0
 854 0004 054B     		ldr	r3, .L81
 855 0006 1B68     		ldr	r3, [r3]
 856 0008 012B     		cmp	r3, #1
 857 000a 04D1     		bne	.L80
 858 000c 0022     		movs	r2, #0
 859 000e 0021     		movs	r1, #0
 860 0010 0420     		movs	r0, #4
 861 0012 FFF7FEFF 		bl	atiny_cmd_ioctl
 862              	.L80:
 863 0016 C046     		nop
 864 0018 BD46     		mov	sp, r7
 865              		@ sp needed
 866 001a 80BD     		pop	{r7, pc}
 867              	.L82:
 868              		.align	2
 869              	.L81:
 870 001c 00000000 		.word	g_reboot
 872              		.section	.text.atiny_connection_err_notify,"ax",%progbits
 873              		.align	1
 874              		.syntax unified
 875              		.code	16
 876              		.thumb_func
 877              		.fpu softvfp
 879              	atiny_connection_err_notify:
 880              		@ args = 0, pretend = 0, frame = 16
 881              		@ frame_needed = 1, uses_anonymous_args = 0
 882 0000 80B5     		push	{r7, lr}
 883 0002 84B0     		sub	sp, sp, #16
 884 0004 00AF     		add	r7, sp, #0
 885 0006 7860     		str	r0, [r7, #4]
 886 0008 0800     		movs	r0, r1
 887 000a 1100     		movs	r1, r2
 888 000c FB1C     		adds	r3, r7, #3
 889 000e 021C     		adds	r2, r0, #0
 890 0010 1A70     		strb	r2, [r3]
 891 0012 BB1C     		adds	r3, r7, #2
 892 0014 0A1C     		adds	r2, r1, #0
 893 0016 1A70     		strb	r2, [r3]
ARM GAS  C:\Users\SONG_J~1\AppData\Local\Temp\cc5mGnuk.s 			page 17


 894 0018 0023     		movs	r3, #0
 895 001a FB60     		str	r3, [r7, #12]
 896 001c 7B68     		ldr	r3, [r7, #4]
 897 001e 002B     		cmp	r3, #0
 898 0020 13D0     		beq	.L87
 899 0022 7B68     		ldr	r3, [r7, #4]
 900 0024 DB6A     		ldr	r3, [r3, #44]
 901 0026 002B     		cmp	r3, #0
 902 0028 0FD0     		beq	.L87
 903 002a BB1C     		adds	r3, r7, #2
 904 002c 1B78     		ldrb	r3, [r3]
 905 002e 0122     		movs	r2, #1
 906 0030 5340     		eors	r3, r2
 907 0032 DBB2     		uxtb	r3, r3
 908 0034 002B     		cmp	r3, #0
 909 0036 09D0     		beq	.L83
 910 0038 7B68     		ldr	r3, [r7, #4]
 911 003a DB6A     		ldr	r3, [r3, #44]
 912 003c 243B     		subs	r3, r3, #36
 913 003e FB60     		str	r3, [r7, #12]
 914 0040 FB68     		ldr	r3, [r7, #12]
 915 0042 1800     		movs	r0, r3
 916 0044 FFF7FEFF 		bl	atiny_reconnect
 917 0048 00E0     		b	.L83
 918              	.L87:
 919 004a C046     		nop
 920              	.L83:
 921 004c BD46     		mov	sp, r7
 922 004e 04B0     		add	sp, sp, #16
 923              		@ sp needed
 924 0050 80BD     		pop	{r7, pc}
 926              		.section	.text.atiny_handle_reconnect,"ax",%progbits
 927              		.align	1
 928              		.syntax unified
 929              		.code	16
 930              		.thumb_func
 931              		.fpu softvfp
 933              	atiny_handle_reconnect:
 934              		@ args = 0, pretend = 0, frame = 8
 935              		@ frame_needed = 1, uses_anonymous_args = 0
 936 0000 80B5     		push	{r7, lr}
 937 0002 82B0     		sub	sp, sp, #8
 938 0004 00AF     		add	r7, sp, #0
 939 0006 7860     		str	r0, [r7, #4]
 940 0008 7B68     		ldr	r3, [r7, #4]
 941 000a 9B6C     		ldr	r3, [r3, #72]
 942 000c 002B     		cmp	r3, #0
 943 000e 07D0     		beq	.L90
 944 0010 7B68     		ldr	r3, [r7, #4]
 945 0012 1B68     		ldr	r3, [r3]
 946 0014 1800     		movs	r0, r3
 947 0016 FFF7FEFF 		bl	lwm2m_reconnect
 948 001a 7B68     		ldr	r3, [r7, #4]
 949 001c 0022     		movs	r2, #0
 950 001e 9A64     		str	r2, [r3, #72]
 951              	.L90:
 952 0020 C046     		nop
ARM GAS  C:\Users\SONG_J~1\AppData\Local\Temp\cc5mGnuk.s 			page 18


 953 0022 BD46     		mov	sp, r7
 954 0024 02B0     		add	sp, sp, #8
 955              		@ sp needed
 956 0026 80BD     		pop	{r7, pc}
 958              		.section	.text.atiny_bind,"ax",%progbits
 959              		.align	1
 960              		.global	atiny_bind
 961              		.syntax unified
 962              		.code	16
 963              		.thumb_func
 964              		.fpu softvfp
 966              	atiny_bind:
 967              		@ args = 0, pretend = 0, frame = 24
 968              		@ frame_needed = 1, uses_anonymous_args = 0
 969 0000 90B5     		push	{r4, r7, lr}
 970 0002 87B0     		sub	sp, sp, #28
 971 0004 00AF     		add	r7, sp, #0
 972 0006 7860     		str	r0, [r7, #4]
 973 0008 3960     		str	r1, [r7]
 974 000a 3B68     		ldr	r3, [r7]
 975 000c 7B61     		str	r3, [r7, #20]
 976 000e 7B68     		ldr	r3, [r7, #4]
 977 0010 002B     		cmp	r3, #0
 978 0012 02D0     		beq	.L92
 979 0014 3B68     		ldr	r3, [r7]
 980 0016 002B     		cmp	r3, #0
 981 0018 02D1     		bne	.L93
 982              	.L92:
 983 001a 0123     		movs	r3, #1
 984 001c 5B42     		rsbs	r3, r3, #0
 985 001e 5EE0     		b	.L101
 986              	.L93:
 987 0020 7B68     		ldr	r3, [r7, #4]
 988 0022 1B68     		ldr	r3, [r3]
 989 0024 002B     		cmp	r3, #0
 990 0026 02D1     		bne	.L95
 991 0028 0123     		movs	r3, #1
 992 002a 5B42     		rsbs	r3, r3, #0
 993 002c 57E0     		b	.L101
 994              	.L95:
 995 002e 7B68     		ldr	r3, [r7, #4]
 996 0030 5B68     		ldr	r3, [r3, #4]
 997 0032 002B     		cmp	r3, #0
 998 0034 02D1     		bne	.L96
 999 0036 0123     		movs	r3, #1
 1000 0038 5B42     		rsbs	r3, r3, #0
 1001 003a 50E0     		b	.L101
 1002              	.L96:
 1003 003c 7B69     		ldr	r3, [r7, #20]
 1004 003e 0433     		adds	r3, r3, #4
 1005 0040 7A69     		ldr	r2, [r7, #20]
 1006 0042 7968     		ldr	r1, [r7, #4]
 1007 0044 1800     		movs	r0, r3
 1008 0046 FFF7FEFF 		bl	atiny_init_objects
 1009 004a 0300     		movs	r3, r0
 1010 004c 3B61     		str	r3, [r7, #16]
 1011 004e 3B69     		ldr	r3, [r7, #16]
ARM GAS  C:\Users\SONG_J~1\AppData\Local\Temp\cc5mGnuk.s 			page 19


 1012 0050 002B     		cmp	r3, #0
 1013 0052 05D0     		beq	.L97
 1014 0054 7B69     		ldr	r3, [r7, #20]
 1015 0056 1800     		movs	r0, r3
 1016 0058 FFF7FEFF 		bl	atiny_destroy
 1017 005c 3B69     		ldr	r3, [r7, #16]
 1018 005e 3EE0     		b	.L101
 1019              	.L97:
 1020 0060 214B     		ldr	r3, .L102
 1021 0062 1800     		movs	r0, r3
 1022 0064 FFF7FEFF 		bl	lwm2m_register_observe_ack_call_back
 1023 0068 204B     		ldr	r3, .L102+4
 1024 006a 1800     		movs	r0, r3
 1025 006c FFF7FEFF 		bl	lwm2m_register_event_handler
 1026 0070 1F4B     		ldr	r3, .L102+8
 1027 0072 1800     		movs	r0, r3
 1028 0074 FFF7FEFF 		bl	lwm2m_register_connection_err_notify
 1029 0078 8023     		movs	r3, #128
 1030 007a DB00     		lsls	r3, r3, #3
 1031 007c 1800     		movs	r0, r3
 1032 007e FFF7FEFF 		bl	lwm2m_malloc
 1033 0082 0200     		movs	r2, r0
 1034 0084 7B69     		ldr	r3, [r7, #20]
 1035 0086 1A65     		str	r2, [r3, #80]
 1036 0088 7B69     		ldr	r3, [r7, #20]
 1037 008a 1B6D     		ldr	r3, [r3, #80]
 1038 008c 002B     		cmp	r3, #0
 1039 008e 1DD1     		bne	.L99
 1040 0090 0423     		movs	r3, #4
 1041 0092 5B42     		rsbs	r3, r3, #0
 1042 0094 23E0     		b	.L101
 1043              	.L100:
 1044 0096 0A23     		movs	r3, #10
 1045 0098 FB60     		str	r3, [r7, #12]
 1046 009a 7B69     		ldr	r3, [r7, #20]
 1047 009c 1B68     		ldr	r3, [r3]
 1048 009e 1800     		movs	r0, r3
 1049 00a0 FFF7FEFF 		bl	atiny_step_rpt
 1050 00a4 7B69     		ldr	r3, [r7, #20]
 1051 00a6 1800     		movs	r0, r3
 1052 00a8 FFF7FEFF 		bl	atiny_handle_reconnect
 1053 00ac 7B69     		ldr	r3, [r7, #20]
 1054 00ae 1B68     		ldr	r3, [r3]
 1055 00b0 0C24     		movs	r4, #12
 1056 00b2 3A19     		adds	r2, r7, r4
 1057 00b4 1100     		movs	r1, r2
 1058 00b6 1800     		movs	r0, r3
 1059 00b8 FFF7FEFF 		bl	lwm2m_step
 1060 00bc FFF7FEFF 		bl	reboot_check
 1061 00c0 3A19     		adds	r2, r7, r4
 1062 00c2 7B69     		ldr	r3, [r7, #20]
 1063 00c4 1100     		movs	r1, r2
 1064 00c6 1800     		movs	r0, r3
 1065 00c8 FFF7FEFF 		bl	lwm2m_poll
 1066              	.L99:
 1067 00cc 7B69     		ldr	r3, [r7, #20]
 1068 00ce 5B6C     		ldr	r3, [r3, #68]
ARM GAS  C:\Users\SONG_J~1\AppData\Local\Temp\cc5mGnuk.s 			page 20


 1069 00d0 002B     		cmp	r3, #0
 1070 00d2 E0D0     		beq	.L100
 1071 00d4 3B68     		ldr	r3, [r7]
 1072 00d6 1800     		movs	r0, r3
 1073 00d8 FFF7FEFF 		bl	atiny_destroy
 1074 00dc 0023     		movs	r3, #0
 1075              	.L101:
 1076 00de 1800     		movs	r0, r3
 1077 00e0 BD46     		mov	sp, r7
 1078 00e2 07B0     		add	sp, sp, #28
 1079              		@ sp needed
 1080 00e4 90BD     		pop	{r4, r7, pc}
 1081              	.L103:
 1082 00e6 C046     		.align	2
 1083              	.L102:
 1084 00e8 00000000 		.word	observe_handle_ack
 1085 00ec 00000000 		.word	atiny_event_handle
 1086 00f0 00000000 		.word	atiny_connection_err_notify
 1088              		.section	.text.atiny_deinit,"ax",%progbits
 1089              		.align	1
 1090              		.global	atiny_deinit
 1091              		.syntax unified
 1092              		.code	16
 1093              		.thumb_func
 1094              		.fpu softvfp
 1096              	atiny_deinit:
 1097              		@ args = 0, pretend = 0, frame = 16
 1098              		@ frame_needed = 1, uses_anonymous_args = 0
 1099 0000 80B5     		push	{r7, lr}
 1100 0002 84B0     		sub	sp, sp, #16
 1101 0004 00AF     		add	r7, sp, #0
 1102 0006 7860     		str	r0, [r7, #4]
 1103 0008 7B68     		ldr	r3, [r7, #4]
 1104 000a 002B     		cmp	r3, #0
 1105 000c 05D0     		beq	.L107
 1106 000e 7B68     		ldr	r3, [r7, #4]
 1107 0010 FB60     		str	r3, [r7, #12]
 1108 0012 FB68     		ldr	r3, [r7, #12]
 1109 0014 0122     		movs	r2, #1
 1110 0016 5A64     		str	r2, [r3, #68]
 1111 0018 00E0     		b	.L104
 1112              	.L107:
 1113 001a C046     		nop
 1114              	.L104:
 1115 001c BD46     		mov	sp, r7
 1116 001e 04B0     		add	sp, sp, #16
 1117              		@ sp needed
 1118 0020 80BD     		pop	{r7, pc}
 1120              		.section	.rodata
 1121 01c9 000000   		.align	2
 1122              	.LC19:
 1123 01cc 2F352F30 		.ascii	"/5/0/3\000"
 1123      2F3300
 1124              		.section	.text.atiny_data_report,"ax",%progbits
 1125              		.align	1
 1126              		.global	atiny_data_report
 1127              		.syntax unified
ARM GAS  C:\Users\SONG_J~1\AppData\Local\Temp\cc5mGnuk.s 			page 21


 1128              		.code	16
 1129              		.thumb_func
 1130              		.fpu softvfp
 1132              	atiny_data_report:
 1133              		@ args = 0, pretend = 0, frame = 40
 1134              		@ frame_needed = 1, uses_anonymous_args = 0
 1135 0000 90B5     		push	{r4, r7, lr}
 1136 0002 8BB0     		sub	sp, sp, #44
 1137 0004 00AF     		add	r7, sp, #0
 1138 0006 7860     		str	r0, [r7, #4]
 1139 0008 3960     		str	r1, [r7]
 1140 000a 7B68     		ldr	r3, [r7, #4]
 1141 000c 002B     		cmp	r3, #0
 1142 000e 10D0     		beq	.L109
 1143 0010 3B68     		ldr	r3, [r7]
 1144 0012 002B     		cmp	r3, #0
 1145 0014 0DD0     		beq	.L109
 1146 0016 3B68     		ldr	r3, [r7]
 1147 0018 9B68     		ldr	r3, [r3, #8]
 1148 001a 002B     		cmp	r3, #0
 1149 001c 09DD     		ble	.L109
 1150 001e 3B68     		ldr	r3, [r7]
 1151 0020 9A68     		ldr	r2, [r3, #8]
 1152 0022 8023     		movs	r3, #128
 1153 0024 DB00     		lsls	r3, r3, #3
 1154 0026 9A42     		cmp	r2, r3
 1155 0028 03DC     		bgt	.L109
 1156 002a 3B68     		ldr	r3, [r7]
 1157 002c DB68     		ldr	r3, [r3, #12]
 1158 002e 002B     		cmp	r3, #0
 1159 0030 02D1     		bne	.L110
 1160              	.L109:
 1161 0032 0123     		movs	r3, #1
 1162 0034 5B42     		rsbs	r3, r3, #0
 1163 0036 58E0     		b	.L118
 1164              	.L110:
 1165 0038 1C23     		movs	r3, #28
 1166 003a FB18     		adds	r3, r7, r3
 1167 003c 0822     		movs	r2, #8
 1168 003e 0021     		movs	r1, #0
 1169 0040 1800     		movs	r0, r3
 1170 0042 FFF7FEFF 		bl	memset
 1171 0046 3B68     		ldr	r3, [r7]
 1172 0048 1B78     		ldrb	r3, [r3]
 1173 004a 002B     		cmp	r3, #0
 1174 004c 02D0     		beq	.L113
 1175 004e 012B     		cmp	r3, #1
 1176 0050 08D0     		beq	.L114
 1177 0052 0FE0     		b	.L119
 1178              	.L113:
 1179 0054 1C23     		movs	r3, #28
 1180 0056 FA18     		adds	r2, r7, r3
 1181 0058 264B     		ldr	r3, .L120
 1182 005a 0621     		movs	r1, #6
 1183 005c 1800     		movs	r0, r3
 1184 005e FFF7FEFF 		bl	lwm2m_stringToUri
 1185 0062 0AE0     		b	.L115
ARM GAS  C:\Users\SONG_J~1\AppData\Local\Temp\cc5mGnuk.s 			page 22


 1186              	.L114:
 1187 0064 1C23     		movs	r3, #28
 1188 0066 FB18     		adds	r3, r7, r3
 1189 0068 0022     		movs	r2, #0
 1190 006a 0021     		movs	r1, #0
 1191 006c 1320     		movs	r0, #19
 1192 006e FFF7FEFF 		bl	get_resource_uri
 1193 0072 02E0     		b	.L115
 1194              	.L119:
 1195 0074 0523     		movs	r3, #5
 1196 0076 5B42     		rsbs	r3, r3, #0
 1197 0078 37E0     		b	.L118
 1198              	.L115:
 1199 007a 3968     		ldr	r1, [r7]
 1200 007c 0824     		movs	r4, #8
 1201 007e 3B19     		adds	r3, r7, r4
 1202 0080 1422     		movs	r2, #20
 1203 0082 1800     		movs	r0, r3
 1204 0084 FFF7FEFF 		bl	memcpy
 1205 0088 3B68     		ldr	r3, [r7]
 1206 008a 9B68     		ldr	r3, [r3, #8]
 1207 008c 1800     		movs	r0, r3
 1208 008e FFF7FEFF 		bl	lwm2m_malloc
 1209 0092 0200     		movs	r2, r0
 1210 0094 3B19     		adds	r3, r7, r4
 1211 0096 DA60     		str	r2, [r3, #12]
 1212 0098 3B19     		adds	r3, r7, r4
 1213 009a DB68     		ldr	r3, [r3, #12]
 1214 009c 002B     		cmp	r3, #0
 1215 009e 02D1     		bne	.L116
 1216 00a0 0423     		movs	r3, #4
 1217 00a2 5B42     		rsbs	r3, r3, #0
 1218 00a4 21E0     		b	.L118
 1219              	.L116:
 1220 00a6 0824     		movs	r4, #8
 1221 00a8 3B19     		adds	r3, r7, r4
 1222 00aa D868     		ldr	r0, [r3, #12]
 1223 00ac 3B68     		ldr	r3, [r7]
 1224 00ae D968     		ldr	r1, [r3, #12]
 1225 00b0 3B68     		ldr	r3, [r7]
 1226 00b2 9B68     		ldr	r3, [r3, #8]
 1227 00b4 1A00     		movs	r2, r3
 1228 00b6 FFF7FEFF 		bl	memcpy
 1229 00ba 3A19     		adds	r2, r7, r4
 1230 00bc 1C23     		movs	r3, #28
 1231 00be FB18     		adds	r3, r7, r3
 1232 00c0 1100     		movs	r1, r2
 1233 00c2 1800     		movs	r0, r3
 1234 00c4 FFF7FEFF 		bl	atiny_queue_rpt_data
 1235 00c8 0300     		movs	r3, r0
 1236 00ca 7B62     		str	r3, [r7, #36]
 1237 00cc 7B6A     		ldr	r3, [r7, #36]
 1238 00ce 002B     		cmp	r3, #0
 1239 00d0 0AD0     		beq	.L117
 1240 00d2 0823     		movs	r3, #8
 1241 00d4 FB18     		adds	r3, r7, r3
 1242 00d6 DB68     		ldr	r3, [r3, #12]
ARM GAS  C:\Users\SONG_J~1\AppData\Local\Temp\cc5mGnuk.s 			page 23


 1243 00d8 002B     		cmp	r3, #0
 1244 00da 05D0     		beq	.L117
 1245 00dc 0823     		movs	r3, #8
 1246 00de FB18     		adds	r3, r7, r3
 1247 00e0 DB68     		ldr	r3, [r3, #12]
 1248 00e2 1800     		movs	r0, r3
 1249 00e4 FFF7FEFF 		bl	lwm2m_free
 1250              	.L117:
 1251 00e8 7B6A     		ldr	r3, [r7, #36]
 1252              	.L118:
 1253 00ea 1800     		movs	r0, r3
 1254 00ec BD46     		mov	sp, r7
 1255 00ee 0BB0     		add	sp, sp, #44
 1256              		@ sp needed
 1257 00f0 90BD     		pop	{r4, r7, pc}
 1258              	.L121:
 1259 00f2 C046     		.align	2
 1260              	.L120:
 1261 00f4 CC010000 		.word	.LC19
 1263              		.section	.text.atiny_data_change,"ax",%progbits
 1264              		.align	1
 1265              		.global	atiny_data_change
 1266              		.syntax unified
 1267              		.code	16
 1268              		.thumb_func
 1269              		.fpu softvfp
 1271              	atiny_data_change:
 1272              		@ args = 0, pretend = 0, frame = 24
 1273              		@ frame_needed = 1, uses_anonymous_args = 0
 1274 0000 90B5     		push	{r4, r7, lr}
 1275 0002 87B0     		sub	sp, sp, #28
 1276 0004 00AF     		add	r7, sp, #0
 1277 0006 7860     		str	r0, [r7, #4]
 1278 0008 3960     		str	r1, [r7]
 1279 000a 7B68     		ldr	r3, [r7, #4]
 1280 000c 002B     		cmp	r3, #0
 1281 000e 02D0     		beq	.L123
 1282 0010 3B68     		ldr	r3, [r7]
 1283 0012 002B     		cmp	r3, #0
 1284 0014 02D1     		bne	.L124
 1285              	.L123:
 1286 0016 0123     		movs	r3, #1
 1287 0018 5B42     		rsbs	r3, r3, #0
 1288 001a 2FE0     		b	.L127
 1289              	.L124:
 1290 001c 0C23     		movs	r3, #12
 1291 001e FB18     		adds	r3, r7, r3
 1292 0020 0822     		movs	r2, #8
 1293 0022 0021     		movs	r1, #0
 1294 0024 1800     		movs	r0, r3
 1295 0026 FFF7FEFF 		bl	memset
 1296 002a 7B68     		ldr	r3, [r7, #4]
 1297 002c 7B61     		str	r3, [r7, #20]
 1298 002e 7B69     		ldr	r3, [r7, #20]
 1299 0030 1B68     		ldr	r3, [r3]
 1300 0032 1B78     		ldrb	r3, [r3]
 1301 0034 052B     		cmp	r3, #5
ARM GAS  C:\Users\SONG_J~1\AppData\Local\Temp\cc5mGnuk.s 			page 24


 1302 0036 02D0     		beq	.L126
 1303 0038 0723     		movs	r3, #7
 1304 003a 5B42     		rsbs	r3, r3, #0
 1305 003c 1EE0     		b	.L127
 1306              	.L126:
 1307 003e 3B68     		ldr	r3, [r7]
 1308 0040 1800     		movs	r0, r3
 1309 0042 FFF7FEFF 		bl	strlen
 1310 0046 0100     		movs	r1, r0
 1311 0048 0C24     		movs	r4, #12
 1312 004a 3A19     		adds	r2, r7, r4
 1313 004c 3B68     		ldr	r3, [r7]
 1314 004e 1800     		movs	r0, r3
 1315 0050 FFF7FEFF 		bl	lwm2m_stringToUri
 1316 0054 7B69     		ldr	r3, [r7, #20]
 1317 0056 1B68     		ldr	r3, [r3]
 1318 0058 1B6A     		ldr	r3, [r3, #32]
 1319 005a 1800     		movs	r0, r3
 1320 005c FFF7FEFF 		bl	atiny_mutex_lock
 1321 0060 7B69     		ldr	r3, [r7, #20]
 1322 0062 1B68     		ldr	r3, [r3]
 1323 0064 3A19     		adds	r2, r7, r4
 1324 0066 1100     		movs	r1, r2
 1325 0068 1800     		movs	r0, r3
 1326 006a FFF7FEFF 		bl	lwm2m_resource_value_changed
 1327 006e 7B69     		ldr	r3, [r7, #20]
 1328 0070 1B68     		ldr	r3, [r3]
 1329 0072 1B6A     		ldr	r3, [r3, #32]
 1330 0074 1800     		movs	r0, r3
 1331 0076 FFF7FEFF 		bl	atiny_mutex_unlock
 1332 007a 0023     		movs	r3, #0
 1333              	.L127:
 1334 007c 1800     		movs	r0, r3
 1335 007e BD46     		mov	sp, r7
 1336 0080 07B0     		add	sp, sp, #28
 1337              		@ sp needed
 1338 0082 90BD     		pop	{r4, r7, pc}
 1340              		.section	.text.observe_handle_ack,"ax",%progbits
 1341              		.align	1
 1342              		.global	observe_handle_ack
 1343              		.syntax unified
 1344              		.code	16
 1345              		.thumb_func
 1346              		.fpu softvfp
 1348              	observe_handle_ack:
 1349              		@ args = 0, pretend = 0, frame = 16
 1350              		@ frame_needed = 1, uses_anonymous_args = 0
 1351 0000 80B5     		push	{r7, lr}
 1352 0002 84B0     		sub	sp, sp, #16
 1353 0004 00AF     		add	r7, sp, #0
 1354 0006 7860     		str	r0, [r7, #4]
 1355 0008 3960     		str	r1, [r7]
 1356 000a 7B68     		ldr	r3, [r7, #4]
 1357 000c DB6B     		ldr	r3, [r3, #60]
 1358 000e FB60     		str	r3, [r7, #12]
 1359 0010 7B68     		ldr	r3, [r7, #4]
 1360 0012 1B7B     		ldrb	r3, [r3, #12]
ARM GAS  C:\Users\SONG_J~1\AppData\Local\Temp\cc5mGnuk.s 			page 25


 1361 0014 002B     		cmp	r3, #0
 1362 0016 08D0     		beq	.L129
 1363 0018 7B68     		ldr	r3, [r7, #4]
 1364 001a 5B6B     		ldr	r3, [r3, #52]
 1365 001c D8B2     		uxtb	r0, r3
 1366 001e 7B68     		ldr	r3, [r7, #4]
 1367 0020 996B     		ldr	r1, [r3, #56]
 1368 0022 FB68     		ldr	r3, [r7, #12]
 1369 0024 0422     		movs	r2, #4
 1370 0026 9847     		blx	r3
 1371 0028 14E0     		b	.L132
 1372              	.L129:
 1373 002a 7B68     		ldr	r3, [r7, #4]
 1374 002c 1B7E     		ldrb	r3, [r3, #24]
 1375 002e 042B     		cmp	r3, #4
 1376 0030 08D9     		bls	.L131
 1377 0032 7B68     		ldr	r3, [r7, #4]
 1378 0034 5B6B     		ldr	r3, [r3, #52]
 1379 0036 D8B2     		uxtb	r0, r3
 1380 0038 7B68     		ldr	r3, [r7, #4]
 1381 003a 996B     		ldr	r1, [r3, #56]
 1382 003c FB68     		ldr	r3, [r7, #12]
 1383 003e 0322     		movs	r2, #3
 1384 0040 9847     		blx	r3
 1385 0042 07E0     		b	.L132
 1386              	.L131:
 1387 0044 7B68     		ldr	r3, [r7, #4]
 1388 0046 5B6B     		ldr	r3, [r3, #52]
 1389 0048 D8B2     		uxtb	r0, r3
 1390 004a 7B68     		ldr	r3, [r7, #4]
 1391 004c 996B     		ldr	r1, [r3, #56]
 1392 004e FB68     		ldr	r3, [r7, #12]
 1393 0050 0222     		movs	r2, #2
 1394 0052 9847     		blx	r3
 1395              	.L132:
 1396 0054 C046     		nop
 1397 0056 BD46     		mov	sp, r7
 1398 0058 04B0     		add	sp, sp, #16
 1399              		@ sp needed
 1400 005a 80BD     		pop	{r7, pc}
 1402              		.section	.text.atiny_reconnect,"ax",%progbits
 1403              		.align	1
 1404              		.global	atiny_reconnect
 1405              		.syntax unified
 1406              		.code	16
 1407              		.thumb_func
 1408              		.fpu softvfp
 1410              	atiny_reconnect:
 1411              		@ args = 0, pretend = 0, frame = 16
 1412              		@ frame_needed = 1, uses_anonymous_args = 0
 1413 0000 80B5     		push	{r7, lr}
 1414 0002 84B0     		sub	sp, sp, #16
 1415 0004 00AF     		add	r7, sp, #0
 1416 0006 7860     		str	r0, [r7, #4]
 1417 0008 7B68     		ldr	r3, [r7, #4]
 1418 000a FB60     		str	r3, [r7, #12]
 1419 000c 7B68     		ldr	r3, [r7, #4]
ARM GAS  C:\Users\SONG_J~1\AppData\Local\Temp\cc5mGnuk.s 			page 26


 1420 000e 002B     		cmp	r3, #0
 1421 0010 02D1     		bne	.L134
 1422 0012 0123     		movs	r3, #1
 1423 0014 5B42     		rsbs	r3, r3, #0
 1424 0016 03E0     		b	.L135
 1425              	.L134:
 1426 0018 FB68     		ldr	r3, [r7, #12]
 1427 001a 0122     		movs	r2, #1
 1428 001c 9A64     		str	r2, [r3, #72]
 1429 001e 0023     		movs	r3, #0
 1430              	.L135:
 1431 0020 1800     		movs	r0, r3
 1432 0022 BD46     		mov	sp, r7
 1433 0024 04B0     		add	sp, sp, #16
 1434              		@ sp needed
 1435 0026 80BD     		pop	{r7, pc}
 1437              		.section	.text.atiny_set_reboot_flag,"ax",%progbits
 1438              		.align	1
 1439              		.global	atiny_set_reboot_flag
 1440              		.syntax unified
 1441              		.code	16
 1442              		.thumb_func
 1443              		.fpu softvfp
 1445              	atiny_set_reboot_flag:
 1446              		@ args = 0, pretend = 0, frame = 0
 1447              		@ frame_needed = 1, uses_anonymous_args = 0
 1448 0000 80B5     		push	{r7, lr}
 1449 0002 00AF     		add	r7, sp, #0
 1450 0004 024B     		ldr	r3, .L137
 1451 0006 0122     		movs	r2, #1
 1452 0008 1A60     		str	r2, [r3]
 1453 000a C046     		nop
 1454 000c BD46     		mov	sp, r7
 1455              		@ sp needed
 1456 000e 80BD     		pop	{r7, pc}
 1457              	.L138:
 1458              		.align	2
 1459              	.L137:
 1460 0010 00000000 		.word	g_reboot
 1462              		.section	.rodata.__func__.7501,"a",%progbits
 1463              		.align	2
 1466              	__func__.7501:
 1467 0000 6174696E 		.ascii	"atiny_check_bootstrap_init_param\000"
 1467      795F6368 
 1467      65636B5F 
 1467      626F6F74 
 1467      73747261 
 1468              		.section	.rodata.__func__.7506,"a",%progbits
 1469              		.align	2
 1472              	__func__.7506:
 1473 0000 6174696E 		.ascii	"atiny_init\000"
 1473      795F696E 
 1473      697400
 1474              		.section	.rodata.__func__.7511,"a",%progbits
 1475              		.align	2
 1478              	__func__.7511:
 1479 0000 6174696E 		.ascii	"atiny_set_bootstrap_sequence_state\000"
ARM GAS  C:\Users\SONG_J~1\AppData\Local\Temp\cc5mGnuk.s 			page 27


 1479      795F7365 
 1479      745F626F 
 1479      6F747374 
 1479      7261705F 
 1480              		.ident	"GCC: (GNU Tools for Arm Embedded Processors 7-2017-q4-major) 7.2.1 20170904 (release) [ARM
ARM GAS  C:\Users\SONG_J~1\AppData\Local\Temp\cc5mGnuk.s 			page 28

