ARM GAS  C:\Users\SONG_J~1\AppData\Local\Temp\ccIvIs5P.s 			page 1


   1              		.cpu cortex-m0
   2              		.eabi_attribute 20, 1
   3              		.eabi_attribute 21, 1
   4              		.eabi_attribute 23, 3
   5              		.eabi_attribute 24, 1
   6              		.eabi_attribute 25, 1
   7              		.eabi_attribute 26, 1
   8              		.eabi_attribute 30, 6
   9              		.eabi_attribute 34, 0
  10              		.eabi_attribute 18, 4
  11              		.file	"agent_tiny_cmd_ioctl.c"
  12              		.section	.rodata
  13              		.align	2
  14              	.LC0:
  15 0000 4F70656E 		.ascii	"Open Mobile Alliance\000"
  15      204D6F62 
  15      696C6520 
  15      416C6C69 
  15      616E6365 
  16              		.section	.text.atiny_get_manufacturer,"ax",%progbits
  17              		.align	1
  18              		.global	atiny_get_manufacturer
  19              		.syntax unified
  20              		.code	16
  21              		.thumb_func
  22              		.fpu softvfp
  24              	atiny_get_manufacturer:
  25              		@ args = 0, pretend = 0, frame = 8
  26              		@ frame_needed = 1, uses_anonymous_args = 0
  27 0000 80B5     		push	{r7, lr}
  28 0002 82B0     		sub	sp, sp, #8
  29 0004 00AF     		add	r7, sp, #0
  30 0006 7860     		str	r0, [r7, #4]
  31 0008 3960     		str	r1, [r7]
  32 000a 3968     		ldr	r1, [r7]
  33 000c 044A     		ldr	r2, .L3
  34 000e 7B68     		ldr	r3, [r7, #4]
  35 0010 1800     		movs	r0, r3
  36 0012 FFF7FEFF 		bl	atiny_snprintf
  37 0016 0023     		movs	r3, #0
  38 0018 1800     		movs	r0, r3
  39 001a BD46     		mov	sp, r7
  40 001c 02B0     		add	sp, sp, #8
  41              		@ sp needed
  42 001e 80BD     		pop	{r7, pc}
  43              	.L4:
  44              		.align	2
  45              	.L3:
  46 0020 00000000 		.word	.LC0
  48              		.section	.rodata
  49 0015 000000   		.align	2
  50              	.LC2:
  51 0018 4C696768 		.ascii	"Lightweight M2M Client\000"
  51      74776569 
  51      67687420 
  51      4D324D20 
  51      436C6965 
ARM GAS  C:\Users\SONG_J~1\AppData\Local\Temp\ccIvIs5P.s 			page 2


  52              		.section	.text.atiny_get_model_number,"ax",%progbits
  53              		.align	1
  54              		.global	atiny_get_model_number
  55              		.syntax unified
  56              		.code	16
  57              		.thumb_func
  58              		.fpu softvfp
  60              	atiny_get_model_number:
  61              		@ args = 0, pretend = 0, frame = 8
  62              		@ frame_needed = 1, uses_anonymous_args = 0
  63 0000 80B5     		push	{r7, lr}
  64 0002 82B0     		sub	sp, sp, #8
  65 0004 00AF     		add	r7, sp, #0
  66 0006 7860     		str	r0, [r7, #4]
  67 0008 3960     		str	r1, [r7]
  68 000a 3968     		ldr	r1, [r7]
  69 000c 044A     		ldr	r2, .L7
  70 000e 7B68     		ldr	r3, [r7, #4]
  71 0010 1800     		movs	r0, r3
  72 0012 FFF7FEFF 		bl	atiny_snprintf
  73 0016 0023     		movs	r3, #0
  74 0018 1800     		movs	r0, r3
  75 001a BD46     		mov	sp, r7
  76 001c 02B0     		add	sp, sp, #8
  77              		@ sp needed
  78 001e 80BD     		pop	{r7, pc}
  79              	.L8:
  80              		.align	2
  81              	.L7:
  82 0020 18000000 		.word	.LC2
  84              		.section	.rodata
  85 002f 00       		.align	2
  86              	.LC4:
  87 0030 33343530 		.ascii	"345000123\000"
  87      30303132 
  87      3300
  88              		.section	.text.atiny_get_serial_number,"ax",%progbits
  89              		.align	1
  90              		.global	atiny_get_serial_number
  91              		.syntax unified
  92              		.code	16
  93              		.thumb_func
  94              		.fpu softvfp
  96              	atiny_get_serial_number:
  97              		@ args = 0, pretend = 0, frame = 8
  98              		@ frame_needed = 1, uses_anonymous_args = 0
  99 0000 80B5     		push	{r7, lr}
 100 0002 82B0     		sub	sp, sp, #8
 101 0004 00AF     		add	r7, sp, #0
 102 0006 7860     		str	r0, [r7, #4]
 103 0008 3960     		str	r1, [r7]
 104 000a 3968     		ldr	r1, [r7]
 105 000c 044A     		ldr	r2, .L11
 106 000e 7B68     		ldr	r3, [r7, #4]
 107 0010 1800     		movs	r0, r3
 108 0012 FFF7FEFF 		bl	atiny_snprintf
 109 0016 0023     		movs	r3, #0
ARM GAS  C:\Users\SONG_J~1\AppData\Local\Temp\ccIvIs5P.s 			page 3


 110 0018 1800     		movs	r0, r3
 111 001a BD46     		mov	sp, r7
 112 001c 02B0     		add	sp, sp, #8
 113              		@ sp needed
 114 001e 80BD     		pop	{r7, pc}
 115              	.L12:
 116              		.align	2
 117              	.L11:
 118 0020 30000000 		.word	.LC4
 120              		.section	.rodata
 121 003a 0000     		.align	2
 122              	.LC6:
 123 003c 6578616D 		.ascii	"example_ver001\000"
 123      706C655F 
 123      76657230 
 123      303100
 124              		.section	.text.atiny_get_firmware_ver,"ax",%progbits
 125              		.align	1
 126              		.global	atiny_get_firmware_ver
 127              		.syntax unified
 128              		.code	16
 129              		.thumb_func
 130              		.fpu softvfp
 132              	atiny_get_firmware_ver:
 133              		@ args = 0, pretend = 0, frame = 8
 134              		@ frame_needed = 1, uses_anonymous_args = 0
 135 0000 80B5     		push	{r7, lr}
 136 0002 82B0     		sub	sp, sp, #8
 137 0004 00AF     		add	r7, sp, #0
 138 0006 7860     		str	r0, [r7, #4]
 139 0008 3960     		str	r1, [r7]
 140 000a 3968     		ldr	r1, [r7]
 141 000c 044A     		ldr	r2, .L15
 142 000e 7B68     		ldr	r3, [r7, #4]
 143 0010 1800     		movs	r0, r3
 144 0012 FFF7FEFF 		bl	atiny_snprintf
 145 0016 0023     		movs	r3, #0
 146 0018 1800     		movs	r0, r3
 147 001a BD46     		mov	sp, r7
 148 001c 02B0     		add	sp, sp, #8
 149              		@ sp needed
 150 001e 80BD     		pop	{r7, pc}
 151              	.L16:
 152              		.align	2
 153              	.L15:
 154 0020 3C000000 		.word	.LC6
 156              		.section	.rodata
 157 004b 00       		.align	2
 158              	.LC8:
 159 004c 64657669 		.ascii	"device is rebooting......\015\012\000"
 159      63652069 
 159      73207265 
 159      626F6F74 
 159      696E672E 
 160              		.section	.text.atiny_do_dev_reboot,"ax",%progbits
 161              		.align	1
 162              		.global	atiny_do_dev_reboot
ARM GAS  C:\Users\SONG_J~1\AppData\Local\Temp\ccIvIs5P.s 			page 4


 163              		.syntax unified
 164              		.code	16
 165              		.thumb_func
 166              		.fpu softvfp
 168              	atiny_do_dev_reboot:
 169              		@ args = 0, pretend = 0, frame = 0
 170              		@ frame_needed = 1, uses_anonymous_args = 0
 171 0000 80B5     		push	{r7, lr}
 172 0002 00AF     		add	r7, sp, #0
 173 0004 044B     		ldr	r3, .L19
 174 0006 1800     		movs	r0, r3
 175 0008 FFF7FEFF 		bl	atiny_printf
 176 000c FFF7FEFF 		bl	atiny_reboot
 177 0010 0023     		movs	r3, #0
 178 0012 1800     		movs	r0, r3
 179 0014 BD46     		mov	sp, r7
 180              		@ sp needed
 181 0016 80BD     		pop	{r7, pc}
 182              	.L20:
 183              		.align	2
 184              	.L19:
 185 0018 4C000000 		.word	.LC8
 187              		.section	.rodata
 188              		.align	2
 189              	.LC10:
 190 0068 0A092046 		.ascii	"\012\011 FACTORY RESET\015\012\012\000"
 190      4143544F 
 190      52592052 
 190      45534554 
 190      0D0A0A00 
 191              		.section	.text.atiny_do_factory_reset,"ax",%progbits
 192              		.align	1
 193              		.global	atiny_do_factory_reset
 194              		.syntax unified
 195              		.code	16
 196              		.thumb_func
 197              		.fpu softvfp
 199              	atiny_do_factory_reset:
 200              		@ args = 0, pretend = 0, frame = 0
 201              		@ frame_needed = 1, uses_anonymous_args = 0
 202 0000 80B5     		push	{r7, lr}
 203 0002 00AF     		add	r7, sp, #0
 204 0004 034B     		ldr	r3, .L23
 205 0006 1800     		movs	r0, r3
 206 0008 FFF7FEFF 		bl	atiny_printf
 207 000c 0023     		movs	r3, #0
 208 000e 1800     		movs	r0, r3
 209 0010 BD46     		mov	sp, r7
 210              		@ sp needed
 211 0012 80BD     		pop	{r7, pc}
 212              	.L24:
 213              		.align	2
 214              	.L23:
 215 0014 68000000 		.word	.LC10
 217              		.section	.text.atiny_get_power_source,"ax",%progbits
 218              		.align	1
 219              		.global	atiny_get_power_source
ARM GAS  C:\Users\SONG_J~1\AppData\Local\Temp\ccIvIs5P.s 			page 5


 220              		.syntax unified
 221              		.code	16
 222              		.thumb_func
 223              		.fpu softvfp
 225              	atiny_get_power_source:
 226              		@ args = 0, pretend = 0, frame = 8
 227              		@ frame_needed = 1, uses_anonymous_args = 0
 228 0000 80B5     		push	{r7, lr}
 229 0002 82B0     		sub	sp, sp, #8
 230 0004 00AF     		add	r7, sp, #0
 231 0006 7860     		str	r0, [r7, #4]
 232 0008 7B68     		ldr	r3, [r7, #4]
 233 000a 0122     		movs	r2, #1
 234 000c 1A60     		str	r2, [r3]
 235 000e 0023     		movs	r3, #0
 236 0010 1800     		movs	r0, r3
 237 0012 BD46     		mov	sp, r7
 238 0014 02B0     		add	sp, sp, #8
 239              		@ sp needed
 240 0016 80BD     		pop	{r7, pc}
 242              		.section	.text.atiny_get_source_voltage,"ax",%progbits
 243              		.align	1
 244              		.global	atiny_get_source_voltage
 245              		.syntax unified
 246              		.code	16
 247              		.thumb_func
 248              		.fpu softvfp
 250              	atiny_get_source_voltage:
 251              		@ args = 0, pretend = 0, frame = 8
 252              		@ frame_needed = 1, uses_anonymous_args = 0
 253 0000 80B5     		push	{r7, lr}
 254 0002 82B0     		sub	sp, sp, #8
 255 0004 00AF     		add	r7, sp, #0
 256 0006 7860     		str	r0, [r7, #4]
 257 0008 7B68     		ldr	r3, [r7, #4]
 258 000a 034A     		ldr	r2, .L29
 259 000c 1A60     		str	r2, [r3]
 260 000e 0023     		movs	r3, #0
 261 0010 1800     		movs	r0, r3
 262 0012 BD46     		mov	sp, r7
 263 0014 02B0     		add	sp, sp, #8
 264              		@ sp needed
 265 0016 80BD     		pop	{r7, pc}
 266              	.L30:
 267              		.align	2
 268              	.L29:
 269 0018 D80E0000 		.word	3800
 271              		.section	.text.atiny_get_power_current,"ax",%progbits
 272              		.align	1
 273              		.global	atiny_get_power_current
 274              		.syntax unified
 275              		.code	16
 276              		.thumb_func
 277              		.fpu softvfp
 279              	atiny_get_power_current:
 280              		@ args = 0, pretend = 0, frame = 8
 281              		@ frame_needed = 1, uses_anonymous_args = 0
ARM GAS  C:\Users\SONG_J~1\AppData\Local\Temp\ccIvIs5P.s 			page 6


 282 0000 80B5     		push	{r7, lr}
 283 0002 82B0     		sub	sp, sp, #8
 284 0004 00AF     		add	r7, sp, #0
 285 0006 7860     		str	r0, [r7, #4]
 286 0008 7B68     		ldr	r3, [r7, #4]
 287 000a 7D22     		movs	r2, #125
 288 000c 1A60     		str	r2, [r3]
 289 000e 0023     		movs	r3, #0
 290 0010 1800     		movs	r0, r3
 291 0012 BD46     		mov	sp, r7
 292 0014 02B0     		add	sp, sp, #8
 293              		@ sp needed
 294 0016 80BD     		pop	{r7, pc}
 296              		.section	.text.atiny_get_baterry_level,"ax",%progbits
 297              		.align	1
 298              		.global	atiny_get_baterry_level
 299              		.syntax unified
 300              		.code	16
 301              		.thumb_func
 302              		.fpu softvfp
 304              	atiny_get_baterry_level:
 305              		@ args = 0, pretend = 0, frame = 8
 306              		@ frame_needed = 1, uses_anonymous_args = 0
 307 0000 80B5     		push	{r7, lr}
 308 0002 82B0     		sub	sp, sp, #8
 309 0004 00AF     		add	r7, sp, #0
 310 0006 7860     		str	r0, [r7, #4]
 311 0008 7B68     		ldr	r3, [r7, #4]
 312 000a 5A22     		movs	r2, #90
 313 000c 1A60     		str	r2, [r3]
 314 000e 0023     		movs	r3, #0
 315 0010 1800     		movs	r0, r3
 316 0012 BD46     		mov	sp, r7
 317 0014 02B0     		add	sp, sp, #8
 318              		@ sp needed
 319 0016 80BD     		pop	{r7, pc}
 321              		.global	__aeabi_idivmod
 322              		.section	.text.atiny_get_memory_free,"ax",%progbits
 323              		.align	1
 324              		.global	atiny_get_memory_free
 325              		.syntax unified
 326              		.code	16
 327              		.thumb_func
 328              		.fpu softvfp
 330              	atiny_get_memory_free:
 331              		@ args = 0, pretend = 0, frame = 16
 332              		@ frame_needed = 1, uses_anonymous_args = 0
 333 0000 80B5     		push	{r7, lr}
 334 0002 84B0     		sub	sp, sp, #16
 335 0004 00AF     		add	r7, sp, #0
 336 0006 7860     		str	r0, [r7, #4]
 337 0008 0C23     		movs	r3, #12
 338 000a FB18     		adds	r3, r7, r3
 339 000c 0421     		movs	r1, #4
 340 000e 1800     		movs	r0, r3
 341 0010 FFF7FEFF 		bl	atiny_random
 342 0014 FB68     		ldr	r3, [r7, #12]
ARM GAS  C:\Users\SONG_J~1\AppData\Local\Temp\ccIvIs5P.s 			page 7


 343 0016 1E21     		movs	r1, #30
 344 0018 1800     		movs	r0, r3
 345 001a FFF7FEFF 		bl	__aeabi_idivmod
 346 001e 0B00     		movs	r3, r1
 347 0020 FB60     		str	r3, [r7, #12]
 348 0022 FB68     		ldr	r3, [r7, #12]
 349 0024 3233     		adds	r3, r3, #50
 350 0026 1A00     		movs	r2, r3
 351 0028 7B68     		ldr	r3, [r7, #4]
 352 002a 1A60     		str	r2, [r3]
 353 002c 0023     		movs	r3, #0
 354 002e 1800     		movs	r0, r3
 355 0030 BD46     		mov	sp, r7
 356 0032 04B0     		add	sp, sp, #16
 357              		@ sp needed
 358 0034 80BD     		pop	{r7, pc}
 360              		.section	.bss.err_code,"aw",%nobits
 361              		.align	2
 364              	err_code:
 365 0000 00000000 		.space	4
 366              		.section	.text.atiny_get_dev_err,"ax",%progbits
 367              		.align	1
 368              		.global	atiny_get_dev_err
 369              		.syntax unified
 370              		.code	16
 371              		.thumb_func
 372              		.fpu softvfp
 374              	atiny_get_dev_err:
 375              		@ args = 0, pretend = 0, frame = 8
 376              		@ frame_needed = 1, uses_anonymous_args = 0
 377 0000 80B5     		push	{r7, lr}
 378 0002 82B0     		sub	sp, sp, #8
 379 0004 00AF     		add	r7, sp, #0
 380 0006 7860     		str	r0, [r7, #4]
 381 0008 044B     		ldr	r3, .L39
 382 000a 1A68     		ldr	r2, [r3]
 383 000c 7B68     		ldr	r3, [r7, #4]
 384 000e 1A60     		str	r2, [r3]
 385 0010 0023     		movs	r3, #0
 386 0012 1800     		movs	r0, r3
 387 0014 BD46     		mov	sp, r7
 388 0016 02B0     		add	sp, sp, #8
 389              		@ sp needed
 390 0018 80BD     		pop	{r7, pc}
 391              	.L40:
 392 001a C046     		.align	2
 393              	.L39:
 394 001c 00000000 		.word	err_code
 396              		.section	.text.atiny_do_reset_dev_err,"ax",%progbits
 397              		.align	1
 398              		.global	atiny_do_reset_dev_err
 399              		.syntax unified
 400              		.code	16
 401              		.thumb_func
 402              		.fpu softvfp
 404              	atiny_do_reset_dev_err:
 405              		@ args = 0, pretend = 0, frame = 0
ARM GAS  C:\Users\SONG_J~1\AppData\Local\Temp\ccIvIs5P.s 			page 8


 406              		@ frame_needed = 1, uses_anonymous_args = 0
 407 0000 80B5     		push	{r7, lr}
 408 0002 00AF     		add	r7, sp, #0
 409 0004 034B     		ldr	r3, .L43
 410 0006 0022     		movs	r2, #0
 411 0008 1A60     		str	r2, [r3]
 412 000a 0023     		movs	r3, #0
 413 000c 1800     		movs	r0, r3
 414 000e BD46     		mov	sp, r7
 415              		@ sp needed
 416 0010 80BD     		pop	{r7, pc}
 417              	.L44:
 418 0012 C046     		.align	2
 419              	.L43:
 420 0014 00000000 		.word	err_code
 422              		.section	.data.g_current_time,"aw",%progbits
 423              		.align	3
 426              	g_current_time:
 427 0000 8F428251 		.word	1367491215
 428 0004 00000000 		.word	0
 429              		.global	__aeabi_ldivmod
 430              		.section	.text.atiny_get_current_time,"ax",%progbits
 431              		.align	1
 432              		.global	atiny_get_current_time
 433              		.syntax unified
 434              		.code	16
 435              		.thumb_func
 436              		.fpu softvfp
 438              	atiny_get_current_time:
 439              		@ args = 0, pretend = 0, frame = 8
 440              		@ frame_needed = 1, uses_anonymous_args = 0
 441 0000 90B5     		push	{r4, r7, lr}
 442 0002 83B0     		sub	sp, sp, #12
 443 0004 00AF     		add	r7, sp, #0
 444 0006 7860     		str	r0, [r7, #4]
 445 0008 FFF7FEFF 		bl	atiny_gettime_ms
 446 000c 0300     		movs	r3, r0
 447 000e 0C00     		movs	r4, r1
 448 0010 1800     		movs	r0, r3
 449 0012 2100     		movs	r1, r4
 450 0014 FA22     		movs	r2, #250
 451 0016 9200     		lsls	r2, r2, #2
 452 0018 0023     		movs	r3, #0
 453 001a FFF7FEFF 		bl	__aeabi_ldivmod
 454 001e 0300     		movs	r3, r0
 455 0020 0C00     		movs	r4, r1
 456 0022 1900     		movs	r1, r3
 457 0024 2200     		movs	r2, r4
 458 0026 064B     		ldr	r3, .L47
 459 0028 5C68     		ldr	r4, [r3, #4]
 460 002a 1B68     		ldr	r3, [r3]
 461 002c 5B18     		adds	r3, r3, r1
 462 002e 5441     		adcs	r4, r4, r2
 463 0030 7A68     		ldr	r2, [r7, #4]
 464 0032 1360     		str	r3, [r2]
 465 0034 5460     		str	r4, [r2, #4]
 466 0036 0023     		movs	r3, #0
ARM GAS  C:\Users\SONG_J~1\AppData\Local\Temp\ccIvIs5P.s 			page 9


 467 0038 1800     		movs	r0, r3
 468 003a BD46     		mov	sp, r7
 469 003c 03B0     		add	sp, sp, #12
 470              		@ sp needed
 471 003e 90BD     		pop	{r4, r7, pc}
 472              	.L48:
 473              		.align	2
 474              	.L47:
 475 0040 00000000 		.word	g_current_time
 477              		.section	.text.atiny_set_current_time,"ax",%progbits
 478              		.align	1
 479              		.global	atiny_set_current_time
 480              		.syntax unified
 481              		.code	16
 482              		.thumb_func
 483              		.fpu softvfp
 485              	atiny_set_current_time:
 486              		@ args = 0, pretend = 0, frame = 8
 487              		@ frame_needed = 1, uses_anonymous_args = 0
 488 0000 B0B5     		push	{r4, r5, r7, lr}
 489 0002 82B0     		sub	sp, sp, #8
 490 0004 00AF     		add	r7, sp, #0
 491 0006 7860     		str	r0, [r7, #4]
 492 0008 7B68     		ldr	r3, [r7, #4]
 493 000a 1C68     		ldr	r4, [r3]
 494 000c 5D68     		ldr	r5, [r3, #4]
 495 000e FFF7FEFF 		bl	atiny_gettime_ms
 496 0012 0200     		movs	r2, r0
 497 0014 0B00     		movs	r3, r1
 498 0016 1000     		movs	r0, r2
 499 0018 1900     		movs	r1, r3
 500 001a 094A     		ldr	r2, .L51
 501 001c 0123     		movs	r3, #1
 502 001e 5B42     		rsbs	r3, r3, #0
 503 0020 FFF7FEFF 		bl	__aeabi_ldivmod
 504 0024 0200     		movs	r2, r0
 505 0026 0B00     		movs	r3, r1
 506 0028 A418     		adds	r4, r4, r2
 507 002a 5D41     		adcs	r5, r5, r3
 508 002c 2300     		movs	r3, r4
 509 002e 2C00     		movs	r4, r5
 510 0030 044A     		ldr	r2, .L51+4
 511 0032 1360     		str	r3, [r2]
 512 0034 5460     		str	r4, [r2, #4]
 513 0036 0023     		movs	r3, #0
 514 0038 1800     		movs	r0, r3
 515 003a BD46     		mov	sp, r7
 516 003c 02B0     		add	sp, sp, #8
 517              		@ sp needed
 518 003e B0BD     		pop	{r4, r5, r7, pc}
 519              	.L52:
 520              		.align	2
 521              	.L51:
 522 0040 18FCFFFF 		.word	-1000
 523 0044 00000000 		.word	g_current_time
 525              		.section	.data.g_UTC_offset,"aw",%progbits
 526              		.align	2
ARM GAS  C:\Users\SONG_J~1\AppData\Local\Temp\ccIvIs5P.s 			page 10


 529              	g_UTC_offset:
 530 0000 2B30313A 		.ascii	"+01:00\000"
 530      303000
 531              		.section	.text.atiny_get_UTC_offset,"ax",%progbits
 532              		.align	1
 533              		.global	atiny_get_UTC_offset
 534              		.syntax unified
 535              		.code	16
 536              		.thumb_func
 537              		.fpu softvfp
 539              	atiny_get_UTC_offset:
 540              		@ args = 0, pretend = 0, frame = 8
 541              		@ frame_needed = 1, uses_anonymous_args = 0
 542 0000 80B5     		push	{r7, lr}
 543 0002 82B0     		sub	sp, sp, #8
 544 0004 00AF     		add	r7, sp, #0
 545 0006 7860     		str	r0, [r7, #4]
 546 0008 3960     		str	r1, [r7]
 547 000a 3968     		ldr	r1, [r7]
 548 000c 044A     		ldr	r2, .L55
 549 000e 7B68     		ldr	r3, [r7, #4]
 550 0010 1800     		movs	r0, r3
 551 0012 FFF7FEFF 		bl	atiny_snprintf
 552 0016 0023     		movs	r3, #0
 553 0018 1800     		movs	r0, r3
 554 001a BD46     		mov	sp, r7
 555 001c 02B0     		add	sp, sp, #8
 556              		@ sp needed
 557 001e 80BD     		pop	{r7, pc}
 558              	.L56:
 559              		.align	2
 560              	.L55:
 561 0020 00000000 		.word	g_UTC_offset
 563              		.section	.text.atiny_set_UTC_offset,"ax",%progbits
 564              		.align	1
 565              		.global	atiny_set_UTC_offset
 566              		.syntax unified
 567              		.code	16
 568              		.thumb_func
 569              		.fpu softvfp
 571              	atiny_set_UTC_offset:
 572              		@ args = 0, pretend = 0, frame = 8
 573              		@ frame_needed = 1, uses_anonymous_args = 0
 574 0000 80B5     		push	{r7, lr}
 575 0002 82B0     		sub	sp, sp, #8
 576 0004 00AF     		add	r7, sp, #0
 577 0006 7860     		str	r0, [r7, #4]
 578 0008 3960     		str	r1, [r7]
 579 000a 3B68     		ldr	r3, [r7]
 580 000c 0133     		adds	r3, r3, #1
 581 000e 1900     		movs	r1, r3
 582 0010 7A68     		ldr	r2, [r7, #4]
 583 0012 044B     		ldr	r3, .L59
 584 0014 1800     		movs	r0, r3
 585 0016 FFF7FEFF 		bl	atiny_snprintf
 586 001a 0023     		movs	r3, #0
 587 001c 1800     		movs	r0, r3
ARM GAS  C:\Users\SONG_J~1\AppData\Local\Temp\ccIvIs5P.s 			page 11


 588 001e BD46     		mov	sp, r7
 589 0020 02B0     		add	sp, sp, #8
 590              		@ sp needed
 591 0022 80BD     		pop	{r7, pc}
 592              	.L60:
 593              		.align	2
 594              	.L59:
 595 0024 00000000 		.word	g_UTC_offset
 597              		.section	.data.g_timezone,"aw",%progbits
 598              		.align	2
 601              	g_timezone:
 602 0000 4575726F 		.ascii	"Europe/Berlin\000"
 602      70652F42 
 602      65726C69 
 602      6E00
 603 000e 00000000 		.space	11
 603      00000000 
 603      000000
 604              		.section	.text.atiny_get_timezone,"ax",%progbits
 605              		.align	1
 606              		.global	atiny_get_timezone
 607              		.syntax unified
 608              		.code	16
 609              		.thumb_func
 610              		.fpu softvfp
 612              	atiny_get_timezone:
 613              		@ args = 0, pretend = 0, frame = 8
 614              		@ frame_needed = 1, uses_anonymous_args = 0
 615 0000 80B5     		push	{r7, lr}
 616 0002 82B0     		sub	sp, sp, #8
 617 0004 00AF     		add	r7, sp, #0
 618 0006 7860     		str	r0, [r7, #4]
 619 0008 3960     		str	r1, [r7]
 620 000a 3968     		ldr	r1, [r7]
 621 000c 044A     		ldr	r2, .L63
 622 000e 7B68     		ldr	r3, [r7, #4]
 623 0010 1800     		movs	r0, r3
 624 0012 FFF7FEFF 		bl	atiny_snprintf
 625 0016 0023     		movs	r3, #0
 626 0018 1800     		movs	r0, r3
 627 001a BD46     		mov	sp, r7
 628 001c 02B0     		add	sp, sp, #8
 629              		@ sp needed
 630 001e 80BD     		pop	{r7, pc}
 631              	.L64:
 632              		.align	2
 633              	.L63:
 634 0020 00000000 		.word	g_timezone
 636              		.section	.text.atiny_set_timezone,"ax",%progbits
 637              		.align	1
 638              		.global	atiny_set_timezone
 639              		.syntax unified
 640              		.code	16
 641              		.thumb_func
 642              		.fpu softvfp
 644              	atiny_set_timezone:
 645              		@ args = 0, pretend = 0, frame = 8
ARM GAS  C:\Users\SONG_J~1\AppData\Local\Temp\ccIvIs5P.s 			page 12


 646              		@ frame_needed = 1, uses_anonymous_args = 0
 647 0000 80B5     		push	{r7, lr}
 648 0002 82B0     		sub	sp, sp, #8
 649 0004 00AF     		add	r7, sp, #0
 650 0006 7860     		str	r0, [r7, #4]
 651 0008 3960     		str	r1, [r7]
 652 000a 3B68     		ldr	r3, [r7]
 653 000c 0133     		adds	r3, r3, #1
 654 000e 1900     		movs	r1, r3
 655 0010 7A68     		ldr	r2, [r7, #4]
 656 0012 044B     		ldr	r3, .L67
 657 0014 1800     		movs	r0, r3
 658 0016 FFF7FEFF 		bl	atiny_snprintf
 659 001a 0023     		movs	r3, #0
 660 001c 1800     		movs	r0, r3
 661 001e BD46     		mov	sp, r7
 662 0020 02B0     		add	sp, sp, #8
 663              		@ sp needed
 664 0022 80BD     		pop	{r7, pc}
 665              	.L68:
 666              		.align	2
 667              	.L67:
 668 0024 00000000 		.word	g_timezone
 670              		.section	.rodata
 671              		.align	2
 672              	.LC20:
 673 007c 62696E64 		.ascii	"bind type is UQ......\015\012\000"
 673      20747970 
 673      65206973 
 673      2055512E 
 673      2E2E2E2E 
 674              		.align	2
 675              	.LC22:
 676 0094 555100   		.ascii	"UQ\000"
 677              		.section	.text.atiny_get_bind_mode,"ax",%progbits
 678              		.align	1
 679              		.global	atiny_get_bind_mode
 680              		.syntax unified
 681              		.code	16
 682              		.thumb_func
 683              		.fpu softvfp
 685              	atiny_get_bind_mode:
 686              		@ args = 0, pretend = 0, frame = 8
 687              		@ frame_needed = 1, uses_anonymous_args = 0
 688 0000 80B5     		push	{r7, lr}
 689 0002 82B0     		sub	sp, sp, #8
 690 0004 00AF     		add	r7, sp, #0
 691 0006 7860     		str	r0, [r7, #4]
 692 0008 3960     		str	r1, [r7]
 693 000a 074B     		ldr	r3, .L71
 694 000c 1800     		movs	r0, r3
 695 000e FFF7FEFF 		bl	atiny_printf
 696 0012 3968     		ldr	r1, [r7]
 697 0014 054A     		ldr	r2, .L71+4
 698 0016 7B68     		ldr	r3, [r7, #4]
 699 0018 1800     		movs	r0, r3
 700 001a FFF7FEFF 		bl	atiny_snprintf
ARM GAS  C:\Users\SONG_J~1\AppData\Local\Temp\ccIvIs5P.s 			page 13


 701 001e 0023     		movs	r3, #0
 702 0020 1800     		movs	r0, r3
 703 0022 BD46     		mov	sp, r7
 704 0024 02B0     		add	sp, sp, #8
 705              		@ sp needed
 706 0026 80BD     		pop	{r7, pc}
 707              	.L72:
 708              		.align	2
 709              	.L71:
 710 0028 7C000000 		.word	.LC20
 711 002c 94000000 		.word	.LC22
 713              		.section	.rodata
 714 0097 00       		.align	2
 715              	.LC24:
 716 0098 6669726D 		.ascii	"firmware is updating......\015\012\000"
 716      77617265 
 716      20697320 
 716      75706461 
 716      74696E67 
 717              		.section	.text.atiny_trig_firmware_update,"ax",%progbits
 718              		.align	1
 719              		.global	atiny_trig_firmware_update
 720              		.syntax unified
 721              		.code	16
 722              		.thumb_func
 723              		.fpu softvfp
 725              	atiny_trig_firmware_update:
 726              		@ args = 0, pretend = 0, frame = 0
 727              		@ frame_needed = 1, uses_anonymous_args = 0
 728 0000 80B5     		push	{r7, lr}
 729 0002 00AF     		add	r7, sp, #0
 730 0004 034B     		ldr	r3, .L75
 731 0006 1800     		movs	r0, r3
 732 0008 FFF7FEFF 		bl	atiny_printf
 733 000c 0023     		movs	r3, #0
 734 000e 1800     		movs	r0, r3
 735 0010 BD46     		mov	sp, r7
 736              		@ sp needed
 737 0012 80BD     		pop	{r7, pc}
 738              	.L76:
 739              		.align	2
 740              	.L75:
 741 0014 98000000 		.word	.LC24
 743              		.section	.text.atiny_get_firmware_result,"ax",%progbits
 744              		.align	1
 745              		.global	atiny_get_firmware_result
 746              		.syntax unified
 747              		.code	16
 748              		.thumb_func
 749              		.fpu softvfp
 751              	atiny_get_firmware_result:
 752              		@ args = 0, pretend = 0, frame = 8
 753              		@ frame_needed = 1, uses_anonymous_args = 0
 754 0000 80B5     		push	{r7, lr}
 755 0002 82B0     		sub	sp, sp, #8
 756 0004 00AF     		add	r7, sp, #0
 757 0006 7860     		str	r0, [r7, #4]
ARM GAS  C:\Users\SONG_J~1\AppData\Local\Temp\ccIvIs5P.s 			page 14


 758 0008 7B68     		ldr	r3, [r7, #4]
 759 000a 0022     		movs	r2, #0
 760 000c 1A60     		str	r2, [r3]
 761 000e 0023     		movs	r3, #0
 762 0010 1800     		movs	r0, r3
 763 0012 BD46     		mov	sp, r7
 764 0014 02B0     		add	sp, sp, #8
 765              		@ sp needed
 766 0016 80BD     		pop	{r7, pc}
 768              		.section	.text.atiny_get_firmware_state,"ax",%progbits
 769              		.align	1
 770              		.global	atiny_get_firmware_state
 771              		.syntax unified
 772              		.code	16
 773              		.thumb_func
 774              		.fpu softvfp
 776              	atiny_get_firmware_state:
 777              		@ args = 0, pretend = 0, frame = 8
 778              		@ frame_needed = 1, uses_anonymous_args = 0
 779 0000 80B5     		push	{r7, lr}
 780 0002 82B0     		sub	sp, sp, #8
 781 0004 00AF     		add	r7, sp, #0
 782 0006 7860     		str	r0, [r7, #4]
 783 0008 7B68     		ldr	r3, [r7, #4]
 784 000a 0022     		movs	r2, #0
 785 000c 1A60     		str	r2, [r3]
 786 000e 0023     		movs	r3, #0
 787 0010 1800     		movs	r0, r3
 788 0012 BD46     		mov	sp, r7
 789 0014 02B0     		add	sp, sp, #8
 790              		@ sp needed
 791 0016 80BD     		pop	{r7, pc}
 793              		.section	.text.atiny_get_network_bearer,"ax",%progbits
 794              		.align	1
 795              		.global	atiny_get_network_bearer
 796              		.syntax unified
 797              		.code	16
 798              		.thumb_func
 799              		.fpu softvfp
 801              	atiny_get_network_bearer:
 802              		@ args = 0, pretend = 0, frame = 8
 803              		@ frame_needed = 1, uses_anonymous_args = 0
 804 0000 80B5     		push	{r7, lr}
 805 0002 82B0     		sub	sp, sp, #8
 806 0004 00AF     		add	r7, sp, #0
 807 0006 7860     		str	r0, [r7, #4]
 808 0008 7B68     		ldr	r3, [r7, #4]
 809 000a 0522     		movs	r2, #5
 810 000c 1A60     		str	r2, [r3]
 811 000e 0023     		movs	r3, #0
 812 0010 1800     		movs	r0, r3
 813 0012 BD46     		mov	sp, r7
 814 0014 02B0     		add	sp, sp, #8
 815              		@ sp needed
 816 0016 80BD     		pop	{r7, pc}
 818              		.section	.text.atiny_get_signal_strength,"ax",%progbits
 819              		.align	1
ARM GAS  C:\Users\SONG_J~1\AppData\Local\Temp\ccIvIs5P.s 			page 15


 820              		.global	atiny_get_signal_strength
 821              		.syntax unified
 822              		.code	16
 823              		.thumb_func
 824              		.fpu softvfp
 826              	atiny_get_signal_strength:
 827              		@ args = 0, pretend = 0, frame = 8
 828              		@ frame_needed = 1, uses_anonymous_args = 0
 829 0000 80B5     		push	{r7, lr}
 830 0002 82B0     		sub	sp, sp, #8
 831 0004 00AF     		add	r7, sp, #0
 832 0006 7860     		str	r0, [r7, #4]
 833 0008 7B68     		ldr	r3, [r7, #4]
 834 000a 5A22     		movs	r2, #90
 835 000c 1A60     		str	r2, [r3]
 836 000e 0023     		movs	r3, #0
 837 0010 1800     		movs	r0, r3
 838 0012 BD46     		mov	sp, r7
 839 0014 02B0     		add	sp, sp, #8
 840              		@ sp needed
 841 0016 80BD     		pop	{r7, pc}
 843              		.section	.text.atiny_get_cell_id,"ax",%progbits
 844              		.align	1
 845              		.global	atiny_get_cell_id
 846              		.syntax unified
 847              		.code	16
 848              		.thumb_func
 849              		.fpu softvfp
 851              	atiny_get_cell_id:
 852              		@ args = 0, pretend = 0, frame = 8
 853              		@ frame_needed = 1, uses_anonymous_args = 0
 854 0000 80B5     		push	{r7, lr}
 855 0002 82B0     		sub	sp, sp, #8
 856 0004 00AF     		add	r7, sp, #0
 857 0006 7860     		str	r0, [r7, #4]
 858 0008 7B68     		ldr	r3, [r7, #4]
 859 000a 034A     		ldr	r2, .L87
 860 000c 1A60     		str	r2, [r3]
 861 000e 0023     		movs	r3, #0
 862 0010 1800     		movs	r0, r3
 863 0012 BD46     		mov	sp, r7
 864 0014 02B0     		add	sp, sp, #8
 865              		@ sp needed
 866 0016 80BD     		pop	{r7, pc}
 867              	.L88:
 868              		.align	2
 869              	.L87:
 870 0018 6F520000 		.word	21103
 872              		.section	.text.atiny_get_link_quality,"ax",%progbits
 873              		.align	1
 874              		.global	atiny_get_link_quality
 875              		.syntax unified
 876              		.code	16
 877              		.thumb_func
 878              		.fpu softvfp
 880              	atiny_get_link_quality:
 881              		@ args = 0, pretend = 0, frame = 8
ARM GAS  C:\Users\SONG_J~1\AppData\Local\Temp\ccIvIs5P.s 			page 16


 882              		@ frame_needed = 1, uses_anonymous_args = 0
 883 0000 80B5     		push	{r7, lr}
 884 0002 82B0     		sub	sp, sp, #8
 885 0004 00AF     		add	r7, sp, #0
 886 0006 7860     		str	r0, [r7, #4]
 887 0008 7B68     		ldr	r3, [r7, #4]
 888 000a 6222     		movs	r2, #98
 889 000c 1A60     		str	r2, [r3]
 890 000e 0023     		movs	r3, #0
 891 0010 1800     		movs	r0, r3
 892 0012 BD46     		mov	sp, r7
 893 0014 02B0     		add	sp, sp, #8
 894              		@ sp needed
 895 0016 80BD     		pop	{r7, pc}
 897              		.section	.text.atiny_get_link_utilization,"ax",%progbits
 898              		.align	1
 899              		.global	atiny_get_link_utilization
 900              		.syntax unified
 901              		.code	16
 902              		.thumb_func
 903              		.fpu softvfp
 905              	atiny_get_link_utilization:
 906              		@ args = 0, pretend = 0, frame = 8
 907              		@ frame_needed = 1, uses_anonymous_args = 0
 908 0000 80B5     		push	{r7, lr}
 909 0002 82B0     		sub	sp, sp, #8
 910 0004 00AF     		add	r7, sp, #0
 911 0006 7860     		str	r0, [r7, #4]
 912 0008 7B68     		ldr	r3, [r7, #4]
 913 000a 0A22     		movs	r2, #10
 914 000c 1A60     		str	r2, [r3]
 915 000e 0023     		movs	r3, #0
 916 0010 1800     		movs	r0, r3
 917 0012 BD46     		mov	sp, r7
 918 0014 02B0     		add	sp, sp, #8
 919              		@ sp needed
 920 0016 80BD     		pop	{r7, pc}
 922              		.section	.rodata
 923 00b5 000000   		.align	2
 924              	.LC26:
 925 00b8 77726974 		.ascii	"write num19 object success\015\012\000"
 925      65206E75 
 925      6D313920 
 925      6F626A65 
 925      63742073 
 926              		.section	.text.atiny_write_app_write,"ax",%progbits
 927              		.align	1
 928              		.global	atiny_write_app_write
 929              		.syntax unified
 930              		.code	16
 931              		.thumb_func
 932              		.fpu softvfp
 934              	atiny_write_app_write:
 935              		@ args = 0, pretend = 0, frame = 8
 936              		@ frame_needed = 1, uses_anonymous_args = 0
 937 0000 80B5     		push	{r7, lr}
 938 0002 82B0     		sub	sp, sp, #8
ARM GAS  C:\Users\SONG_J~1\AppData\Local\Temp\ccIvIs5P.s 			page 17


 939 0004 00AF     		add	r7, sp, #0
 940 0006 7860     		str	r0, [r7, #4]
 941 0008 3960     		str	r1, [r7]
 942 000a 044B     		ldr	r3, .L95
 943 000c 1800     		movs	r0, r3
 944 000e FFF7FEFF 		bl	atiny_printf
 945 0012 0023     		movs	r3, #0
 946 0014 1800     		movs	r0, r3
 947 0016 BD46     		mov	sp, r7
 948 0018 02B0     		add	sp, sp, #8
 949              		@ sp needed
 950 001a 80BD     		pop	{r7, pc}
 951              	.L96:
 952              		.align	2
 953              	.L95:
 954 001c B8000000 		.word	.LC26
 956              		.section	.rodata
 957 00d5 000000   		.align	2
 958              	.LC28:
 959 00d8 75706461 		.ascii	"update psk success\015\012\000"
 959      74652070 
 959      736B2073 
 959      75636365 
 959      73730D0A 
 960              		.section	.text.atiny_update_psk,"ax",%progbits
 961              		.align	1
 962              		.global	atiny_update_psk
 963              		.syntax unified
 964              		.code	16
 965              		.thumb_func
 966              		.fpu softvfp
 968              	atiny_update_psk:
 969              		@ args = 0, pretend = 0, frame = 8
 970              		@ frame_needed = 1, uses_anonymous_args = 0
 971 0000 80B5     		push	{r7, lr}
 972 0002 82B0     		sub	sp, sp, #8
 973 0004 00AF     		add	r7, sp, #0
 974 0006 7860     		str	r0, [r7, #4]
 975 0008 3960     		str	r1, [r7]
 976 000a 044B     		ldr	r3, .L99
 977 000c 1800     		movs	r0, r3
 978 000e FFF7FEFF 		bl	atiny_printf
 979 0012 0023     		movs	r3, #0
 980 0014 1800     		movs	r0, r3
 981 0016 BD46     		mov	sp, r7
 982 0018 02B0     		add	sp, sp, #8
 983              		@ sp needed
 984 001a 80BD     		pop	{r7, pc}
 985              	.L100:
 986              		.align	2
 987              	.L99:
 988 001c D8000000 		.word	.LC28
 990              		.section	.text.atiny_get_latitude,"ax",%progbits
 991              		.align	1
 992              		.global	atiny_get_latitude
 993              		.syntax unified
 994              		.code	16
ARM GAS  C:\Users\SONG_J~1\AppData\Local\Temp\ccIvIs5P.s 			page 18


 995              		.thumb_func
 996              		.fpu softvfp
 998              	atiny_get_latitude:
 999              		@ args = 0, pretend = 0, frame = 8
 1000              		@ frame_needed = 1, uses_anonymous_args = 0
 1001 0000 80B5     		push	{r7, lr}
 1002 0002 82B0     		sub	sp, sp, #8
 1003 0004 00AF     		add	r7, sp, #0
 1004 0006 7860     		str	r0, [r7, #4]
 1005 0008 7B68     		ldr	r3, [r7, #4]
 1006 000a 034A     		ldr	r2, .L103
 1007 000c 1A60     		str	r2, [r3]
 1008 000e 0023     		movs	r3, #0
 1009 0010 1800     		movs	r0, r3
 1010 0012 BD46     		mov	sp, r7
 1011 0014 02B0     		add	sp, sp, #8
 1012              		@ sp needed
 1013 0016 80BD     		pop	{r7, pc}
 1014              	.L104:
 1015              		.align	2
 1016              	.L103:
 1017 0018 76E3DF41 		.word	1105191798
 1019              		.section	.text.atiny_get_longitude,"ax",%progbits
 1020              		.align	1
 1021              		.global	atiny_get_longitude
 1022              		.syntax unified
 1023              		.code	16
 1024              		.thumb_func
 1025              		.fpu softvfp
 1027              	atiny_get_longitude:
 1028              		@ args = 0, pretend = 0, frame = 8
 1029              		@ frame_needed = 1, uses_anonymous_args = 0
 1030 0000 80B5     		push	{r7, lr}
 1031 0002 82B0     		sub	sp, sp, #8
 1032 0004 00AF     		add	r7, sp, #0
 1033 0006 7860     		str	r0, [r7, #4]
 1034 0008 7B68     		ldr	r3, [r7, #4]
 1035 000a 034A     		ldr	r2, .L107
 1036 000c 1A60     		str	r2, [r3]
 1037 000e 0023     		movs	r3, #0
 1038 0010 1800     		movs	r0, r3
 1039 0012 BD46     		mov	sp, r7
 1040 0014 02B0     		add	sp, sp, #8
 1041              		@ sp needed
 1042 0016 80BD     		pop	{r7, pc}
 1043              	.L108:
 1044              		.align	2
 1045              	.L107:
 1046 0018 62D8AD42 		.word	1118689378
 1048              		.section	.text.atiny_get_altitude,"ax",%progbits
 1049              		.align	1
 1050              		.global	atiny_get_altitude
 1051              		.syntax unified
 1052              		.code	16
 1053              		.thumb_func
 1054              		.fpu softvfp
 1056              	atiny_get_altitude:
ARM GAS  C:\Users\SONG_J~1\AppData\Local\Temp\ccIvIs5P.s 			page 19


 1057              		@ args = 0, pretend = 0, frame = 8
 1058              		@ frame_needed = 1, uses_anonymous_args = 0
 1059 0000 80B5     		push	{r7, lr}
 1060 0002 82B0     		sub	sp, sp, #8
 1061 0004 00AF     		add	r7, sp, #0
 1062 0006 7860     		str	r0, [r7, #4]
 1063 0008 7B68     		ldr	r3, [r7, #4]
 1064 000a 034A     		ldr	r2, .L111
 1065 000c 1A60     		str	r2, [r3]
 1066 000e 0023     		movs	r3, #0
 1067 0010 1800     		movs	r0, r3
 1068 0012 BD46     		mov	sp, r7
 1069 0014 02B0     		add	sp, sp, #8
 1070              		@ sp needed
 1071 0016 80BD     		pop	{r7, pc}
 1072              	.L112:
 1073              		.align	2
 1074              	.L111:
 1075 0018 00BC0446 		.word	1174715392
 1077              		.section	.text.atiny_get_radius,"ax",%progbits
 1078              		.align	1
 1079              		.global	atiny_get_radius
 1080              		.syntax unified
 1081              		.code	16
 1082              		.thumb_func
 1083              		.fpu softvfp
 1085              	atiny_get_radius:
 1086              		@ args = 0, pretend = 0, frame = 8
 1087              		@ frame_needed = 1, uses_anonymous_args = 0
 1088 0000 80B5     		push	{r7, lr}
 1089 0002 82B0     		sub	sp, sp, #8
 1090 0004 00AF     		add	r7, sp, #0
 1091 0006 7860     		str	r0, [r7, #4]
 1092 0008 7B68     		ldr	r3, [r7, #4]
 1093 000a 0022     		movs	r2, #0
 1094 000c 1A60     		str	r2, [r3]
 1095 000e 0023     		movs	r3, #0
 1096 0010 1800     		movs	r0, r3
 1097 0012 BD46     		mov	sp, r7
 1098 0014 02B0     		add	sp, sp, #8
 1099              		@ sp needed
 1100 0016 80BD     		pop	{r7, pc}
 1102              		.section	.text.atiny_get_speed,"ax",%progbits
 1103              		.align	1
 1104              		.global	atiny_get_speed
 1105              		.syntax unified
 1106              		.code	16
 1107              		.thumb_func
 1108              		.fpu softvfp
 1110              	atiny_get_speed:
 1111              		@ args = 0, pretend = 0, frame = 8
 1112              		@ frame_needed = 1, uses_anonymous_args = 0
 1113 0000 80B5     		push	{r7, lr}
 1114 0002 82B0     		sub	sp, sp, #8
 1115 0004 00AF     		add	r7, sp, #0
 1116 0006 7860     		str	r0, [r7, #4]
 1117 0008 7B68     		ldr	r3, [r7, #4]
ARM GAS  C:\Users\SONG_J~1\AppData\Local\Temp\ccIvIs5P.s 			page 20


 1118 000a 0022     		movs	r2, #0
 1119 000c 1A60     		str	r2, [r3]
 1120 000e 0023     		movs	r3, #0
 1121 0010 1800     		movs	r0, r3
 1122 0012 BD46     		mov	sp, r7
 1123 0014 02B0     		add	sp, sp, #8
 1124              		@ sp needed
 1125 0016 80BD     		pop	{r7, pc}
 1127              		.global	__aeabi_uldivmod
 1128              		.section	.text.atiny_get_timestamp,"ax",%progbits
 1129              		.align	1
 1130              		.global	atiny_get_timestamp
 1131              		.syntax unified
 1132              		.code	16
 1133              		.thumb_func
 1134              		.fpu softvfp
 1136              	atiny_get_timestamp:
 1137              		@ args = 0, pretend = 0, frame = 8
 1138              		@ frame_needed = 1, uses_anonymous_args = 0
 1139 0000 90B5     		push	{r4, r7, lr}
 1140 0002 83B0     		sub	sp, sp, #12
 1141 0004 00AF     		add	r7, sp, #0
 1142 0006 7860     		str	r0, [r7, #4]
 1143 0008 FFF7FEFF 		bl	atiny_gettime_ms
 1144 000c FA22     		movs	r2, #250
 1145 000e 9200     		lsls	r2, r2, #2
 1146 0010 0023     		movs	r3, #0
 1147 0012 FFF7FEFF 		bl	__aeabi_uldivmod
 1148 0016 0300     		movs	r3, r0
 1149 0018 0C00     		movs	r4, r1
 1150 001a 1900     		movs	r1, r3
 1151 001c 2200     		movs	r2, r4
 1152 001e 064B     		ldr	r3, .L119
 1153 0020 0024     		movs	r4, #0
 1154 0022 5B18     		adds	r3, r3, r1
 1155 0024 5441     		adcs	r4, r4, r2
 1156 0026 7A68     		ldr	r2, [r7, #4]
 1157 0028 1360     		str	r3, [r2]
 1158 002a 5460     		str	r4, [r2, #4]
 1159 002c 0023     		movs	r3, #0
 1160 002e 1800     		movs	r0, r3
 1161 0030 BD46     		mov	sp, r7
 1162 0032 03B0     		add	sp, sp, #12
 1163              		@ sp needed
 1164 0034 90BD     		pop	{r4, r7, pc}
 1165              	.L120:
 1166 0036 C046     		.align	2
 1167              	.L119:
 1168 0038 8F428251 		.word	1367491215
 1170              		.section	.text.location_get_velocity,"ax",%progbits
 1171              		.align	1
 1172              		.global	location_get_velocity
 1173              		.syntax unified
 1174              		.code	16
 1175              		.thumb_func
 1176              		.fpu softvfp
 1178              	location_get_velocity:
ARM GAS  C:\Users\SONG_J~1\AppData\Local\Temp\ccIvIs5P.s 			page 21


 1179              		@ args = 0, pretend = 0, frame = 32
 1180              		@ frame_needed = 1, uses_anonymous_args = 0
 1181 0000 B0B5     		push	{r4, r5, r7, lr}
 1182 0002 88B0     		sub	sp, sp, #32
 1183 0004 00AF     		add	r7, sp, #0
 1184 0006 F860     		str	r0, [r7, #12]
 1185 0008 0C00     		movs	r4, r1
 1186 000a 1000     		movs	r0, r2
 1187 000c 1900     		movs	r1, r3
 1188 000e 0A25     		movs	r5, #10
 1189 0010 7B19     		adds	r3, r7, r5
 1190 0012 221C     		adds	r2, r4, #0
 1191 0014 1A80     		strh	r2, [r3]
 1192 0016 0824     		movs	r4, #8
 1193 0018 3B19     		adds	r3, r7, r4
 1194 001a 021C     		adds	r2, r0, #0
 1195 001c 1A80     		strh	r2, [r3]
 1196 001e FB1D     		adds	r3, r7, #7
 1197 0020 0A1C     		adds	r2, r1, #0
 1198 0022 1A70     		strb	r2, [r3]
 1199 0024 1420     		movs	r0, #20
 1200 0026 3B18     		adds	r3, r7, r0
 1201 0028 2022     		movs	r2, #32
 1202 002a 1A70     		strb	r2, [r3]
 1203 002c 3B18     		adds	r3, r7, r0
 1204 002e 1B78     		ldrb	r3, [r3]
 1205 0030 5AB2     		sxtb	r2, r3
 1206 0032 7B19     		adds	r3, r7, r5
 1207 0034 1B88     		ldrh	r3, [r3]
 1208 0036 1B12     		asrs	r3, r3, #8
 1209 0038 5BB2     		sxtb	r3, r3
 1210 003a 0121     		movs	r1, #1
 1211 003c 0B40     		ands	r3, r1
 1212 003e 5BB2     		sxtb	r3, r3
 1213 0040 1343     		orrs	r3, r2
 1214 0042 5BB2     		sxtb	r3, r3
 1215 0044 DAB2     		uxtb	r2, r3
 1216 0046 3B18     		adds	r3, r7, r0
 1217 0048 1A70     		strb	r2, [r3]
 1218 004a 7B19     		adds	r3, r7, r5
 1219 004c 1B88     		ldrh	r3, [r3]
 1220 004e DAB2     		uxtb	r2, r3
 1221 0050 3B18     		adds	r3, r7, r0
 1222 0052 5A70     		strb	r2, [r3, #1]
 1223 0054 3B19     		adds	r3, r7, r4
 1224 0056 1B88     		ldrh	r3, [r3]
 1225 0058 1B0A     		lsrs	r3, r3, #8
 1226 005a 9BB2     		uxth	r3, r3
 1227 005c DAB2     		uxtb	r2, r3
 1228 005e 3B18     		adds	r3, r7, r0
 1229 0060 9A70     		strb	r2, [r3, #2]
 1230 0062 3B19     		adds	r3, r7, r4
 1231 0064 1B88     		ldrh	r3, [r3]
 1232 0066 DAB2     		uxtb	r2, r3
 1233 0068 3B18     		adds	r3, r7, r0
 1234 006a DA70     		strb	r2, [r3, #3]
 1235 006c 3B18     		adds	r3, r7, r0
ARM GAS  C:\Users\SONG_J~1\AppData\Local\Temp\ccIvIs5P.s 			page 22


 1236 006e FA1D     		adds	r2, r7, #7
 1237 0070 1278     		ldrb	r2, [r2]
 1238 0072 1A71     		strb	r2, [r3, #4]
 1239 0074 0523     		movs	r3, #5
 1240 0076 FB61     		str	r3, [r7, #28]
 1241 0078 FB68     		ldr	r3, [r7, #12]
 1242 007a FA69     		ldr	r2, [r7, #28]
 1243 007c 3918     		adds	r1, r7, r0
 1244 007e 1800     		movs	r0, r3
 1245 0080 FFF7FEFF 		bl	memcpy
 1246 0084 FB68     		ldr	r3, [r7, #12]
 1247 0086 FA69     		ldr	r2, [r7, #28]
 1248 0088 1A61     		str	r2, [r3, #16]
 1249 008a C046     		nop
 1250 008c BD46     		mov	sp, r7
 1251 008e 08B0     		add	sp, sp, #32
 1252              		@ sp needed
 1253 0090 B0BD     		pop	{r4, r5, r7, pc}
 1255              		.section	.text.atiny_get_velocity,"ax",%progbits
 1256              		.align	1
 1257              		.global	atiny_get_velocity
 1258              		.syntax unified
 1259              		.code	16
 1260              		.thumb_func
 1261              		.fpu softvfp
 1263              	atiny_get_velocity:
 1264              		@ args = 0, pretend = 0, frame = 8
 1265              		@ frame_needed = 1, uses_anonymous_args = 0
 1266 0000 80B5     		push	{r7, lr}
 1267 0002 82B0     		sub	sp, sp, #8
 1268 0004 00AF     		add	r7, sp, #0
 1269 0006 7860     		str	r0, [r7, #4]
 1270 0008 7868     		ldr	r0, [r7, #4]
 1271 000a FF23     		movs	r3, #255
 1272 000c 0022     		movs	r2, #0
 1273 000e 0021     		movs	r1, #0
 1274 0010 FFF7FEFF 		bl	location_get_velocity
 1275 0014 0023     		movs	r3, #0
 1276 0016 1800     		movs	r0, r3
 1277 0018 BD46     		mov	sp, r7
 1278 001a 02B0     		add	sp, sp, #8
 1279              		@ sp needed
 1280 001c 80BD     		pop	{r7, pc}
 1282              		.section	.text.atiny_cmd_ioctl,"ax",%progbits
 1283              		.align	1
 1284              		.global	atiny_cmd_ioctl
 1285              		.syntax unified
 1286              		.code	16
 1287              		.thumb_func
 1288              		.fpu softvfp
 1290              	atiny_cmd_ioctl:
 1291              		@ args = 0, pretend = 0, frame = 24
 1292              		@ frame_needed = 1, uses_anonymous_args = 0
 1293 0000 80B5     		push	{r7, lr}
 1294 0002 86B0     		sub	sp, sp, #24
 1295 0004 00AF     		add	r7, sp, #0
 1296 0006 B960     		str	r1, [r7, #8]
ARM GAS  C:\Users\SONG_J~1\AppData\Local\Temp\ccIvIs5P.s 			page 23


 1297 0008 7A60     		str	r2, [r7, #4]
 1298 000a 0F21     		movs	r1, #15
 1299 000c 7B18     		adds	r3, r7, r1
 1300 000e 021C     		adds	r2, r0, #0
 1301 0010 1A70     		strb	r2, [r3]
 1302 0012 0023     		movs	r3, #0
 1303 0014 7B61     		str	r3, [r7, #20]
 1304 0016 7B18     		adds	r3, r7, r1
 1305 0018 1B78     		ldrb	r3, [r3]
 1306 001a 222B     		cmp	r3, #34
 1307 001c 00D9     		bls	.LCB1211
 1308 001e 09E1     		b	.L164	@long jump
 1309              	.LCB1211:
 1310 0020 9A00     		lsls	r2, r3, #2
 1311 0022 874B     		ldr	r3, .L165
 1312 0024 D318     		adds	r3, r2, r3
 1313 0026 1B68     		ldr	r3, [r3]
 1314 0028 9F46     		mov	pc, r3
 1315              		.section	.rodata.atiny_cmd_ioctl,"a",%progbits
 1316              		.align	2
 1317              	.L127:
 1318 0000 2A000000 		.word	.L126
 1319 0004 3C000000 		.word	.L128
 1320 0008 4E000000 		.word	.L129
 1321 000c 60000000 		.word	.L130
 1322 0010 72000000 		.word	.L131
 1323 0014 7C000000 		.word	.L132
 1324 0018 86000000 		.word	.L133
 1325 001c 94000000 		.word	.L134
 1326 0020 A2000000 		.word	.L135
 1327 0024 B0000000 		.word	.L136
 1328 0028 BE000000 		.word	.L137
 1329 002c CC000000 		.word	.L138
 1330 0030 DA000000 		.word	.L139
 1331 0034 E4000000 		.word	.L140
 1332 0038 F2000000 		.word	.L141
 1333 003c 00010000 		.word	.L142
 1334 0040 12010000 		.word	.L143
 1335 0044 24010000 		.word	.L144
 1336 0048 36010000 		.word	.L145
 1337 004c 48010000 		.word	.L146
 1338 0050 5A010000 		.word	.L147
 1339 0054 68010000 		.word	.L148
 1340 0058 76010000 		.word	.L149
 1341 005c 84010000 		.word	.L150
 1342 0060 92010000 		.word	.L151
 1343 0064 A0010000 		.word	.L152
 1344 0068 AE010000 		.word	.L153
 1345 006c C0010000 		.word	.L154
 1346 0070 D2010000 		.word	.L155
 1347 0074 E0010000 		.word	.L156
 1348 0078 EE010000 		.word	.L157
 1349 007c FC010000 		.word	.L158
 1350 0080 0A020000 		.word	.L159
 1351 0084 18020000 		.word	.L160
 1352 0088 26020000 		.word	.L161
 1353              		.section	.text.atiny_cmd_ioctl
ARM GAS  C:\Users\SONG_J~1\AppData\Local\Temp\ccIvIs5P.s 			page 24


 1354              	.L126:
 1355 002a 7A68     		ldr	r2, [r7, #4]
 1356 002c BB68     		ldr	r3, [r7, #8]
 1357 002e 1100     		movs	r1, r2
 1358 0030 1800     		movs	r0, r3
 1359 0032 FFF7FEFF 		bl	atiny_get_manufacturer
 1360 0036 0300     		movs	r3, r0
 1361 0038 7B61     		str	r3, [r7, #20]
 1362 003a FCE0     		b	.L162
 1363              	.L128:
 1364 003c 7A68     		ldr	r2, [r7, #4]
 1365 003e BB68     		ldr	r3, [r7, #8]
 1366 0040 1100     		movs	r1, r2
 1367 0042 1800     		movs	r0, r3
 1368 0044 FFF7FEFF 		bl	atiny_get_model_number
 1369 0048 0300     		movs	r3, r0
 1370 004a 7B61     		str	r3, [r7, #20]
 1371 004c F3E0     		b	.L162
 1372              	.L129:
 1373 004e 7A68     		ldr	r2, [r7, #4]
 1374 0050 BB68     		ldr	r3, [r7, #8]
 1375 0052 1100     		movs	r1, r2
 1376 0054 1800     		movs	r0, r3
 1377 0056 FFF7FEFF 		bl	atiny_get_serial_number
 1378 005a 0300     		movs	r3, r0
 1379 005c 7B61     		str	r3, [r7, #20]
 1380 005e EAE0     		b	.L162
 1381              	.L130:
 1382 0060 7A68     		ldr	r2, [r7, #4]
 1383 0062 BB68     		ldr	r3, [r7, #8]
 1384 0064 1100     		movs	r1, r2
 1385 0066 1800     		movs	r0, r3
 1386 0068 FFF7FEFF 		bl	atiny_get_firmware_ver
 1387 006c 0300     		movs	r3, r0
 1388 006e 7B61     		str	r3, [r7, #20]
 1389 0070 E1E0     		b	.L162
 1390              	.L131:
 1391 0072 FFF7FEFF 		bl	atiny_do_dev_reboot
 1392 0076 0300     		movs	r3, r0
 1393 0078 7B61     		str	r3, [r7, #20]
 1394 007a DCE0     		b	.L162
 1395              	.L132:
 1396 007c FFF7FEFF 		bl	atiny_do_factory_reset
 1397 0080 0300     		movs	r3, r0
 1398 0082 7B61     		str	r3, [r7, #20]
 1399 0084 D7E0     		b	.L162
 1400              	.L133:
 1401 0086 BB68     		ldr	r3, [r7, #8]
 1402 0088 1800     		movs	r0, r3
 1403 008a FFF7FEFF 		bl	atiny_get_power_source
 1404 008e 0300     		movs	r3, r0
 1405 0090 7B61     		str	r3, [r7, #20]
 1406 0092 D0E0     		b	.L162
 1407              	.L134:
 1408 0094 BB68     		ldr	r3, [r7, #8]
 1409 0096 1800     		movs	r0, r3
 1410 0098 FFF7FEFF 		bl	atiny_get_source_voltage
ARM GAS  C:\Users\SONG_J~1\AppData\Local\Temp\ccIvIs5P.s 			page 25


 1411 009c 0300     		movs	r3, r0
 1412 009e 7B61     		str	r3, [r7, #20]
 1413 00a0 C9E0     		b	.L162
 1414              	.L135:
 1415 00a2 BB68     		ldr	r3, [r7, #8]
 1416 00a4 1800     		movs	r0, r3
 1417 00a6 FFF7FEFF 		bl	atiny_get_power_current
 1418 00aa 0300     		movs	r3, r0
 1419 00ac 7B61     		str	r3, [r7, #20]
 1420 00ae C2E0     		b	.L162
 1421              	.L136:
 1422 00b0 BB68     		ldr	r3, [r7, #8]
 1423 00b2 1800     		movs	r0, r3
 1424 00b4 FFF7FEFF 		bl	atiny_get_baterry_level
 1425 00b8 0300     		movs	r3, r0
 1426 00ba 7B61     		str	r3, [r7, #20]
 1427 00bc BBE0     		b	.L162
 1428              	.L137:
 1429 00be BB68     		ldr	r3, [r7, #8]
 1430 00c0 1800     		movs	r0, r3
 1431 00c2 FFF7FEFF 		bl	atiny_get_memory_free
 1432 00c6 0300     		movs	r3, r0
 1433 00c8 7B61     		str	r3, [r7, #20]
 1434 00ca B4E0     		b	.L162
 1435              	.L138:
 1436 00cc BB68     		ldr	r3, [r7, #8]
 1437 00ce 1800     		movs	r0, r3
 1438 00d0 FFF7FEFF 		bl	atiny_get_dev_err
 1439 00d4 0300     		movs	r3, r0
 1440 00d6 7B61     		str	r3, [r7, #20]
 1441 00d8 ADE0     		b	.L162
 1442              	.L139:
 1443 00da FFF7FEFF 		bl	atiny_do_reset_dev_err
 1444 00de 0300     		movs	r3, r0
 1445 00e0 7B61     		str	r3, [r7, #20]
 1446 00e2 A8E0     		b	.L162
 1447              	.L140:
 1448 00e4 BB68     		ldr	r3, [r7, #8]
 1449 00e6 1800     		movs	r0, r3
 1450 00e8 FFF7FEFF 		bl	atiny_get_current_time
 1451 00ec 0300     		movs	r3, r0
 1452 00ee 7B61     		str	r3, [r7, #20]
 1453 00f0 A1E0     		b	.L162
 1454              	.L141:
 1455 00f2 BB68     		ldr	r3, [r7, #8]
 1456 00f4 1800     		movs	r0, r3
 1457 00f6 FFF7FEFF 		bl	atiny_set_current_time
 1458 00fa 0300     		movs	r3, r0
 1459 00fc 7B61     		str	r3, [r7, #20]
 1460 00fe 9AE0     		b	.L162
 1461              	.L142:
 1462 0100 7A68     		ldr	r2, [r7, #4]
 1463 0102 BB68     		ldr	r3, [r7, #8]
 1464 0104 1100     		movs	r1, r2
 1465 0106 1800     		movs	r0, r3
 1466 0108 FFF7FEFF 		bl	atiny_get_UTC_offset
 1467 010c 0300     		movs	r3, r0
ARM GAS  C:\Users\SONG_J~1\AppData\Local\Temp\ccIvIs5P.s 			page 26


 1468 010e 7B61     		str	r3, [r7, #20]
 1469 0110 91E0     		b	.L162
 1470              	.L143:
 1471 0112 7A68     		ldr	r2, [r7, #4]
 1472 0114 BB68     		ldr	r3, [r7, #8]
 1473 0116 1100     		movs	r1, r2
 1474 0118 1800     		movs	r0, r3
 1475 011a FFF7FEFF 		bl	atiny_set_UTC_offset
 1476 011e 0300     		movs	r3, r0
 1477 0120 7B61     		str	r3, [r7, #20]
 1478 0122 88E0     		b	.L162
 1479              	.L144:
 1480 0124 7A68     		ldr	r2, [r7, #4]
 1481 0126 BB68     		ldr	r3, [r7, #8]
 1482 0128 1100     		movs	r1, r2
 1483 012a 1800     		movs	r0, r3
 1484 012c FFF7FEFF 		bl	atiny_get_timezone
 1485 0130 0300     		movs	r3, r0
 1486 0132 7B61     		str	r3, [r7, #20]
 1487 0134 7FE0     		b	.L162
 1488              	.L145:
 1489 0136 7A68     		ldr	r2, [r7, #4]
 1490 0138 BB68     		ldr	r3, [r7, #8]
 1491 013a 1100     		movs	r1, r2
 1492 013c 1800     		movs	r0, r3
 1493 013e FFF7FEFF 		bl	atiny_set_timezone
 1494 0142 0300     		movs	r3, r0
 1495 0144 7B61     		str	r3, [r7, #20]
 1496 0146 76E0     		b	.L162
 1497              	.L146:
 1498 0148 7A68     		ldr	r2, [r7, #4]
 1499 014a BB68     		ldr	r3, [r7, #8]
 1500 014c 1100     		movs	r1, r2
 1501 014e 1800     		movs	r0, r3
 1502 0150 FFF7FEFF 		bl	atiny_get_bind_mode
 1503 0154 0300     		movs	r3, r0
 1504 0156 7B61     		str	r3, [r7, #20]
 1505 0158 6DE0     		b	.L162
 1506              	.L147:
 1507 015a BB68     		ldr	r3, [r7, #8]
 1508 015c 1800     		movs	r0, r3
 1509 015e FFF7FEFF 		bl	atiny_get_firmware_state
 1510 0162 0300     		movs	r3, r0
 1511 0164 7B61     		str	r3, [r7, #20]
 1512 0166 66E0     		b	.L162
 1513              	.L148:
 1514 0168 BB68     		ldr	r3, [r7, #8]
 1515 016a 1800     		movs	r0, r3
 1516 016c FFF7FEFF 		bl	atiny_get_network_bearer
 1517 0170 0300     		movs	r3, r0
 1518 0172 7B61     		str	r3, [r7, #20]
 1519 0174 5FE0     		b	.L162
 1520              	.L149:
 1521 0176 BB68     		ldr	r3, [r7, #8]
 1522 0178 1800     		movs	r0, r3
 1523 017a FFF7FEFF 		bl	atiny_get_signal_strength
 1524 017e 0300     		movs	r3, r0
ARM GAS  C:\Users\SONG_J~1\AppData\Local\Temp\ccIvIs5P.s 			page 27


 1525 0180 7B61     		str	r3, [r7, #20]
 1526 0182 58E0     		b	.L162
 1527              	.L150:
 1528 0184 BB68     		ldr	r3, [r7, #8]
 1529 0186 1800     		movs	r0, r3
 1530 0188 FFF7FEFF 		bl	atiny_get_cell_id
 1531 018c 0300     		movs	r3, r0
 1532 018e 7B61     		str	r3, [r7, #20]
 1533 0190 51E0     		b	.L162
 1534              	.L151:
 1535 0192 BB68     		ldr	r3, [r7, #8]
 1536 0194 1800     		movs	r0, r3
 1537 0196 FFF7FEFF 		bl	atiny_get_link_quality
 1538 019a 0300     		movs	r3, r0
 1539 019c 7B61     		str	r3, [r7, #20]
 1540 019e 4AE0     		b	.L162
 1541              	.L152:
 1542 01a0 BB68     		ldr	r3, [r7, #8]
 1543 01a2 1800     		movs	r0, r3
 1544 01a4 FFF7FEFF 		bl	atiny_get_link_utilization
 1545 01a8 0300     		movs	r3, r0
 1546 01aa 7B61     		str	r3, [r7, #20]
 1547 01ac 43E0     		b	.L162
 1548              	.L153:
 1549 01ae 7A68     		ldr	r2, [r7, #4]
 1550 01b0 BB68     		ldr	r3, [r7, #8]
 1551 01b2 1100     		movs	r1, r2
 1552 01b4 1800     		movs	r0, r3
 1553 01b6 FFF7FEFF 		bl	atiny_write_app_write
 1554 01ba 0300     		movs	r3, r0
 1555 01bc 7B61     		str	r3, [r7, #20]
 1556 01be 3AE0     		b	.L162
 1557              	.L154:
 1558 01c0 7A68     		ldr	r2, [r7, #4]
 1559 01c2 BB68     		ldr	r3, [r7, #8]
 1560 01c4 1100     		movs	r1, r2
 1561 01c6 1800     		movs	r0, r3
 1562 01c8 FFF7FEFF 		bl	atiny_update_psk
 1563 01cc 0300     		movs	r3, r0
 1564 01ce 7B61     		str	r3, [r7, #20]
 1565 01d0 31E0     		b	.L162
 1566              	.L155:
 1567 01d2 BB68     		ldr	r3, [r7, #8]
 1568 01d4 1800     		movs	r0, r3
 1569 01d6 FFF7FEFF 		bl	atiny_get_latitude
 1570 01da 0300     		movs	r3, r0
 1571 01dc 7B61     		str	r3, [r7, #20]
 1572 01de 2AE0     		b	.L162
 1573              	.L156:
 1574 01e0 BB68     		ldr	r3, [r7, #8]
 1575 01e2 1800     		movs	r0, r3
 1576 01e4 FFF7FEFF 		bl	atiny_get_longitude
 1577 01e8 0300     		movs	r3, r0
 1578 01ea 7B61     		str	r3, [r7, #20]
 1579 01ec 23E0     		b	.L162
 1580              	.L157:
 1581 01ee BB68     		ldr	r3, [r7, #8]
ARM GAS  C:\Users\SONG_J~1\AppData\Local\Temp\ccIvIs5P.s 			page 28


 1582 01f0 1800     		movs	r0, r3
 1583 01f2 FFF7FEFF 		bl	atiny_get_altitude
 1584 01f6 0300     		movs	r3, r0
 1585 01f8 7B61     		str	r3, [r7, #20]
 1586 01fa 1CE0     		b	.L162
 1587              	.L158:
 1588 01fc BB68     		ldr	r3, [r7, #8]
 1589 01fe 1800     		movs	r0, r3
 1590 0200 FFF7FEFF 		bl	atiny_get_radius
 1591 0204 0300     		movs	r3, r0
 1592 0206 7B61     		str	r3, [r7, #20]
 1593 0208 15E0     		b	.L162
 1594              	.L159:
 1595 020a BB68     		ldr	r3, [r7, #8]
 1596 020c 1800     		movs	r0, r3
 1597 020e FFF7FEFF 		bl	atiny_get_speed
 1598 0212 0300     		movs	r3, r0
 1599 0214 7B61     		str	r3, [r7, #20]
 1600 0216 0EE0     		b	.L162
 1601              	.L160:
 1602 0218 BB68     		ldr	r3, [r7, #8]
 1603 021a 1800     		movs	r0, r3
 1604 021c FFF7FEFF 		bl	atiny_get_timestamp
 1605 0220 0300     		movs	r3, r0
 1606 0222 7B61     		str	r3, [r7, #20]
 1607 0224 07E0     		b	.L162
 1608              	.L161:
 1609 0226 BB68     		ldr	r3, [r7, #8]
 1610 0228 1800     		movs	r0, r3
 1611 022a FFF7FEFF 		bl	atiny_get_velocity
 1612 022e 0300     		movs	r3, r0
 1613 0230 7B61     		str	r3, [r7, #20]
 1614 0232 00E0     		b	.L162
 1615              	.L164:
 1616 0234 C046     		nop
 1617              	.L162:
 1618 0236 7B69     		ldr	r3, [r7, #20]
 1619 0238 1800     		movs	r0, r3
 1620 023a BD46     		mov	sp, r7
 1621 023c 06B0     		add	sp, sp, #24
 1622              		@ sp needed
 1623 023e 80BD     		pop	{r7, pc}
 1624              	.L166:
 1625              		.align	2
 1626              	.L165:
 1627 0240 00000000 		.word	.L127
 1629              		.section	.rodata
 1630 00ed 000000   		.align	2
 1631              	.LC31:
 1632 00f0 6E6F7469 		.ascii	"notify:stat:%d\015\012\000"
 1632      66793A73 
 1632      7461743A 
 1632      25640D0A 
 1632      00
 1633              		.section	.text.atiny_event_notify,"ax",%progbits
 1634              		.align	1
 1635              		.global	atiny_event_notify
ARM GAS  C:\Users\SONG_J~1\AppData\Local\Temp\ccIvIs5P.s 			page 29


 1636              		.syntax unified
 1637              		.code	16
 1638              		.thumb_func
 1639              		.fpu softvfp
 1641              	atiny_event_notify:
 1642              		@ args = 0, pretend = 0, frame = 16
 1643              		@ frame_needed = 1, uses_anonymous_args = 0
 1644 0000 80B5     		push	{r7, lr}
 1645 0002 84B0     		sub	sp, sp, #16
 1646 0004 00AF     		add	r7, sp, #0
 1647 0006 B960     		str	r1, [r7, #8]
 1648 0008 7A60     		str	r2, [r7, #4]
 1649 000a 0F21     		movs	r1, #15
 1650 000c 7B18     		adds	r3, r7, r1
 1651 000e 021C     		adds	r2, r0, #0
 1652 0010 1A70     		strb	r2, [r3]
 1653 0012 7B18     		adds	r3, r7, r1
 1654 0014 1A78     		ldrb	r2, [r3]
 1655 0016 044B     		ldr	r3, .L168
 1656 0018 1100     		movs	r1, r2
 1657 001a 1800     		movs	r0, r3
 1658 001c FFF7FEFF 		bl	atiny_printf
 1659 0020 C046     		nop
 1660 0022 BD46     		mov	sp, r7
 1661 0024 04B0     		add	sp, sp, #16
 1662              		@ sp needed
 1663 0026 80BD     		pop	{r7, pc}
 1664              	.L169:
 1665              		.align	2
 1666              	.L168:
 1667 0028 F0000000 		.word	.LC31
 1669              		.ident	"GCC: (GNU Tools for Arm Embedded Processors 7-2017-q4-major) 7.2.1 20170904 (release) [ARM
ARM GAS  C:\Users\SONG_J~1\AppData\Local\Temp\ccIvIs5P.s 			page 30

