ARM GAS  C:\Users\SONG_J~1\AppData\Local\Temp\ccI21FnK.s 			page 1


   1              		.cpu cortex-m0
   2              		.eabi_attribute 20, 1
   3              		.eabi_attribute 21, 1
   4              		.eabi_attribute 23, 3
   5              		.eabi_attribute 24, 1
   6              		.eabi_attribute 25, 1
   7              		.eabi_attribute 26, 1
   8              		.eabi_attribute 30, 6
   9              		.eabi_attribute 34, 0
  10              		.eabi_attribute 18, 4
  11              		.file	"app_timer.c"
  12              		.section	.text.is_word_aligned,"ax",%progbits
  13              		.align	1
  14              		.syntax unified
  15              		.code	16
  16              		.thumb_func
  17              		.fpu softvfp
  19              	is_word_aligned:
  20              		@ args = 0, pretend = 0, frame = 8
  21              		@ frame_needed = 1, uses_anonymous_args = 0
  22 0000 80B5     		push	{r7, lr}
  23 0002 82B0     		sub	sp, sp, #8
  24 0004 00AF     		add	r7, sp, #0
  25 0006 7860     		str	r0, [r7, #4]
  26 0008 7B68     		ldr	r3, [r7, #4]
  27 000a 0322     		movs	r2, #3
  28 000c 1340     		ands	r3, r2
  29 000e 5A42     		rsbs	r2, r3, #0
  30 0010 5341     		adcs	r3, r3, r2
  31 0012 DBB2     		uxtb	r3, r3
  32 0014 1800     		movs	r0, r3
  33 0016 BD46     		mov	sp, r7
  34 0018 02B0     		add	sp, sp, #8
  35              		@ sp needed
  36 001a 80BD     		pop	{r7, pc}
  38              		.section	.text.NVIC_EnableIRQ,"ax",%progbits
  39              		.align	1
  40              		.syntax unified
  41              		.code	16
  42              		.thumb_func
  43              		.fpu softvfp
  45              	NVIC_EnableIRQ:
  46              		@ args = 0, pretend = 0, frame = 8
  47              		@ frame_needed = 1, uses_anonymous_args = 0
  48 0000 80B5     		push	{r7, lr}
  49 0002 82B0     		sub	sp, sp, #8
  50 0004 00AF     		add	r7, sp, #0
  51 0006 0200     		movs	r2, r0
  52 0008 FB1D     		adds	r3, r7, #7
  53 000a 1A70     		strb	r2, [r3]
  54 000c FB1D     		adds	r3, r7, #7
  55 000e 1B78     		ldrb	r3, [r3]
  56 0010 1A00     		movs	r2, r3
  57 0012 1F23     		movs	r3, #31
  58 0014 1340     		ands	r3, r2
  59 0016 0122     		movs	r2, #1
  60 0018 9A40     		lsls	r2, r2, r3
ARM GAS  C:\Users\SONG_J~1\AppData\Local\Temp\ccI21FnK.s 			page 2


  61 001a 034B     		ldr	r3, .L4
  62 001c 1A60     		str	r2, [r3]
  63 001e C046     		nop
  64 0020 BD46     		mov	sp, r7
  65 0022 02B0     		add	sp, sp, #8
  66              		@ sp needed
  67 0024 80BD     		pop	{r7, pc}
  68              	.L5:
  69 0026 C046     		.align	2
  70              	.L4:
  71 0028 00E100E0 		.word	-536813312
  73              		.section	.text.NVIC_DisableIRQ,"ax",%progbits
  74              		.align	1
  75              		.syntax unified
  76              		.code	16
  77              		.thumb_func
  78              		.fpu softvfp
  80              	NVIC_DisableIRQ:
  81              		@ args = 0, pretend = 0, frame = 8
  82              		@ frame_needed = 1, uses_anonymous_args = 0
  83 0000 80B5     		push	{r7, lr}
  84 0002 82B0     		sub	sp, sp, #8
  85 0004 00AF     		add	r7, sp, #0
  86 0006 0200     		movs	r2, r0
  87 0008 FB1D     		adds	r3, r7, #7
  88 000a 1A70     		strb	r2, [r3]
  89 000c FB1D     		adds	r3, r7, #7
  90 000e 1B78     		ldrb	r3, [r3]
  91 0010 1A00     		movs	r2, r3
  92 0012 1F23     		movs	r3, #31
  93 0014 1340     		ands	r3, r2
  94 0016 0122     		movs	r2, #1
  95 0018 9A40     		lsls	r2, r2, r3
  96 001a 1300     		movs	r3, r2
  97 001c 034A     		ldr	r2, .L7
  98 001e 1900     		movs	r1, r3
  99 0020 8023     		movs	r3, #128
 100 0022 D150     		str	r1, [r2, r3]
 101 0024 C046     		nop
 102 0026 BD46     		mov	sp, r7
 103 0028 02B0     		add	sp, sp, #8
 104              		@ sp needed
 105 002a 80BD     		pop	{r7, pc}
 106              	.L8:
 107              		.align	2
 108              	.L7:
 109 002c 00E100E0 		.word	-536813312
 111              		.section	.text.NVIC_SetPendingIRQ,"ax",%progbits
 112              		.align	1
 113              		.syntax unified
 114              		.code	16
 115              		.thumb_func
 116              		.fpu softvfp
 118              	NVIC_SetPendingIRQ:
 119              		@ args = 0, pretend = 0, frame = 8
 120              		@ frame_needed = 1, uses_anonymous_args = 0
 121 0000 80B5     		push	{r7, lr}
ARM GAS  C:\Users\SONG_J~1\AppData\Local\Temp\ccI21FnK.s 			page 3


 122 0002 82B0     		sub	sp, sp, #8
 123 0004 00AF     		add	r7, sp, #0
 124 0006 0200     		movs	r2, r0
 125 0008 FB1D     		adds	r3, r7, #7
 126 000a 1A70     		strb	r2, [r3]
 127 000c FB1D     		adds	r3, r7, #7
 128 000e 1B78     		ldrb	r3, [r3]
 129 0010 1A00     		movs	r2, r3
 130 0012 1F23     		movs	r3, #31
 131 0014 1340     		ands	r3, r2
 132 0016 0122     		movs	r2, #1
 133 0018 9A40     		lsls	r2, r2, r3
 134 001a 1300     		movs	r3, r2
 135 001c 044A     		ldr	r2, .L10
 136 001e 1900     		movs	r1, r3
 137 0020 8023     		movs	r3, #128
 138 0022 5B00     		lsls	r3, r3, #1
 139 0024 D150     		str	r1, [r2, r3]
 140 0026 C046     		nop
 141 0028 BD46     		mov	sp, r7
 142 002a 02B0     		add	sp, sp, #8
 143              		@ sp needed
 144 002c 80BD     		pop	{r7, pc}
 145              	.L11:
 146 002e C046     		.align	2
 147              	.L10:
 148 0030 00E100E0 		.word	-536813312
 150              		.section	.text.NVIC_ClearPendingIRQ,"ax",%progbits
 151              		.align	1
 152              		.syntax unified
 153              		.code	16
 154              		.thumb_func
 155              		.fpu softvfp
 157              	NVIC_ClearPendingIRQ:
 158              		@ args = 0, pretend = 0, frame = 8
 159              		@ frame_needed = 1, uses_anonymous_args = 0
 160 0000 80B5     		push	{r7, lr}
 161 0002 82B0     		sub	sp, sp, #8
 162 0004 00AF     		add	r7, sp, #0
 163 0006 0200     		movs	r2, r0
 164 0008 FB1D     		adds	r3, r7, #7
 165 000a 1A70     		strb	r2, [r3]
 166 000c FB1D     		adds	r3, r7, #7
 167 000e 1B78     		ldrb	r3, [r3]
 168 0010 1A00     		movs	r2, r3
 169 0012 1F23     		movs	r3, #31
 170 0014 1340     		ands	r3, r2
 171 0016 0122     		movs	r2, #1
 172 0018 9A40     		lsls	r2, r2, r3
 173 001a 1300     		movs	r3, r2
 174 001c 044A     		ldr	r2, .L13
 175 001e 1900     		movs	r1, r3
 176 0020 C023     		movs	r3, #192
 177 0022 5B00     		lsls	r3, r3, #1
 178 0024 D150     		str	r1, [r2, r3]
 179 0026 C046     		nop
 180 0028 BD46     		mov	sp, r7
ARM GAS  C:\Users\SONG_J~1\AppData\Local\Temp\ccI21FnK.s 			page 4


 181 002a 02B0     		add	sp, sp, #8
 182              		@ sp needed
 183 002c 80BD     		pop	{r7, pc}
 184              	.L14:
 185 002e C046     		.align	2
 186              	.L13:
 187 0030 00E100E0 		.word	-536813312
 189              		.section	.text.NVIC_SetPriority,"ax",%progbits
 190              		.align	1
 191              		.syntax unified
 192              		.code	16
 193              		.thumb_func
 194              		.fpu softvfp
 196              	NVIC_SetPriority:
 197              		@ args = 0, pretend = 0, frame = 8
 198              		@ frame_needed = 1, uses_anonymous_args = 0
 199 0000 90B5     		push	{r4, r7, lr}
 200 0002 83B0     		sub	sp, sp, #12
 201 0004 00AF     		add	r7, sp, #0
 202 0006 0200     		movs	r2, r0
 203 0008 3960     		str	r1, [r7]
 204 000a FB1D     		adds	r3, r7, #7
 205 000c 1A70     		strb	r2, [r3]
 206 000e FB1D     		adds	r3, r7, #7
 207 0010 1B78     		ldrb	r3, [r3]
 208 0012 7F2B     		cmp	r3, #127
 209 0014 32D9     		bls	.L16
 210 0016 2F4A     		ldr	r2, .L19
 211 0018 FB1D     		adds	r3, r7, #7
 212 001a 1B78     		ldrb	r3, [r3]
 213 001c 1900     		movs	r1, r3
 214 001e 0F23     		movs	r3, #15
 215 0020 0B40     		ands	r3, r1
 216 0022 083B     		subs	r3, r3, #8
 217 0024 9B08     		lsrs	r3, r3, #2
 218 0026 0633     		adds	r3, r3, #6
 219 0028 9B00     		lsls	r3, r3, #2
 220 002a D318     		adds	r3, r2, r3
 221 002c 0433     		adds	r3, r3, #4
 222 002e 1B68     		ldr	r3, [r3]
 223 0030 FA1D     		adds	r2, r7, #7
 224 0032 1278     		ldrb	r2, [r2]
 225 0034 1100     		movs	r1, r2
 226 0036 0322     		movs	r2, #3
 227 0038 0A40     		ands	r2, r1
 228 003a D200     		lsls	r2, r2, #3
 229 003c FF21     		movs	r1, #255
 230 003e 9140     		lsls	r1, r1, r2
 231 0040 0A00     		movs	r2, r1
 232 0042 D243     		mvns	r2, r2
 233 0044 1A40     		ands	r2, r3
 234 0046 1100     		movs	r1, r2
 235 0048 3B68     		ldr	r3, [r7]
 236 004a 9B01     		lsls	r3, r3, #6
 237 004c FF22     		movs	r2, #255
 238 004e 1A40     		ands	r2, r3
 239 0050 FB1D     		adds	r3, r7, #7
ARM GAS  C:\Users\SONG_J~1\AppData\Local\Temp\ccI21FnK.s 			page 5


 240 0052 1B78     		ldrb	r3, [r3]
 241 0054 1800     		movs	r0, r3
 242 0056 0323     		movs	r3, #3
 243 0058 0340     		ands	r3, r0
 244 005a DB00     		lsls	r3, r3, #3
 245 005c 9A40     		lsls	r2, r2, r3
 246 005e 1D48     		ldr	r0, .L19
 247 0060 FB1D     		adds	r3, r7, #7
 248 0062 1B78     		ldrb	r3, [r3]
 249 0064 1C00     		movs	r4, r3
 250 0066 0F23     		movs	r3, #15
 251 0068 2340     		ands	r3, r4
 252 006a 083B     		subs	r3, r3, #8
 253 006c 9B08     		lsrs	r3, r3, #2
 254 006e 0A43     		orrs	r2, r1
 255 0070 0633     		adds	r3, r3, #6
 256 0072 9B00     		lsls	r3, r3, #2
 257 0074 C318     		adds	r3, r0, r3
 258 0076 0433     		adds	r3, r3, #4
 259 0078 1A60     		str	r2, [r3]
 260 007a 27E0     		b	.L18
 261              	.L16:
 262 007c 164A     		ldr	r2, .L19+4
 263 007e FB1D     		adds	r3, r7, #7
 264 0080 1B78     		ldrb	r3, [r3]
 265 0082 5BB2     		sxtb	r3, r3
 266 0084 9B08     		lsrs	r3, r3, #2
 267 0086 C033     		adds	r3, r3, #192
 268 0088 9B00     		lsls	r3, r3, #2
 269 008a 9B58     		ldr	r3, [r3, r2]
 270 008c FA1D     		adds	r2, r7, #7
 271 008e 1278     		ldrb	r2, [r2]
 272 0090 1100     		movs	r1, r2
 273 0092 0322     		movs	r2, #3
 274 0094 0A40     		ands	r2, r1
 275 0096 D200     		lsls	r2, r2, #3
 276 0098 FF21     		movs	r1, #255
 277 009a 9140     		lsls	r1, r1, r2
 278 009c 0A00     		movs	r2, r1
 279 009e D243     		mvns	r2, r2
 280 00a0 1A40     		ands	r2, r3
 281 00a2 1100     		movs	r1, r2
 282 00a4 3B68     		ldr	r3, [r7]
 283 00a6 9B01     		lsls	r3, r3, #6
 284 00a8 FF22     		movs	r2, #255
 285 00aa 1A40     		ands	r2, r3
 286 00ac FB1D     		adds	r3, r7, #7
 287 00ae 1B78     		ldrb	r3, [r3]
 288 00b0 1800     		movs	r0, r3
 289 00b2 0323     		movs	r3, #3
 290 00b4 0340     		ands	r3, r0
 291 00b6 DB00     		lsls	r3, r3, #3
 292 00b8 9A40     		lsls	r2, r2, r3
 293 00ba 0748     		ldr	r0, .L19+4
 294 00bc FB1D     		adds	r3, r7, #7
 295 00be 1B78     		ldrb	r3, [r3]
 296 00c0 5BB2     		sxtb	r3, r3
ARM GAS  C:\Users\SONG_J~1\AppData\Local\Temp\ccI21FnK.s 			page 6


 297 00c2 9B08     		lsrs	r3, r3, #2
 298 00c4 0A43     		orrs	r2, r1
 299 00c6 C033     		adds	r3, r3, #192
 300 00c8 9B00     		lsls	r3, r3, #2
 301 00ca 1A50     		str	r2, [r3, r0]
 302              	.L18:
 303 00cc C046     		nop
 304 00ce BD46     		mov	sp, r7
 305 00d0 03B0     		add	sp, sp, #12
 306              		@ sp needed
 307 00d2 90BD     		pop	{r4, r7, pc}
 308              	.L20:
 309              		.align	2
 310              	.L19:
 311 00d4 00ED00E0 		.word	-536810240
 312 00d8 00E100E0 		.word	-536813312
 314              		.section	.text.NVIC_GetPriority,"ax",%progbits
 315              		.align	1
 316              		.syntax unified
 317              		.code	16
 318              		.thumb_func
 319              		.fpu softvfp
 321              	NVIC_GetPriority:
 322              		@ args = 0, pretend = 0, frame = 8
 323              		@ frame_needed = 1, uses_anonymous_args = 0
 324 0000 80B5     		push	{r7, lr}
 325 0002 82B0     		sub	sp, sp, #8
 326 0004 00AF     		add	r7, sp, #0
 327 0006 0200     		movs	r2, r0
 328 0008 FB1D     		adds	r3, r7, #7
 329 000a 1A70     		strb	r2, [r3]
 330 000c FB1D     		adds	r3, r7, #7
 331 000e 1B78     		ldrb	r3, [r3]
 332 0010 7F2B     		cmp	r3, #127
 333 0012 18D9     		bls	.L22
 334 0014 174A     		ldr	r2, .L24
 335 0016 FB1D     		adds	r3, r7, #7
 336 0018 1B78     		ldrb	r3, [r3]
 337 001a 1900     		movs	r1, r3
 338 001c 0F23     		movs	r3, #15
 339 001e 0B40     		ands	r3, r1
 340 0020 083B     		subs	r3, r3, #8
 341 0022 9B08     		lsrs	r3, r3, #2
 342 0024 0633     		adds	r3, r3, #6
 343 0026 9B00     		lsls	r3, r3, #2
 344 0028 D318     		adds	r3, r2, r3
 345 002a 0433     		adds	r3, r3, #4
 346 002c 1A68     		ldr	r2, [r3]
 347 002e FB1D     		adds	r3, r7, #7
 348 0030 1B78     		ldrb	r3, [r3]
 349 0032 1900     		movs	r1, r3
 350 0034 0323     		movs	r3, #3
 351 0036 0B40     		ands	r3, r1
 352 0038 DB00     		lsls	r3, r3, #3
 353 003a DA40     		lsrs	r2, r2, r3
 354 003c 1300     		movs	r3, r2
 355 003e 9B09     		lsrs	r3, r3, #6
ARM GAS  C:\Users\SONG_J~1\AppData\Local\Temp\ccI21FnK.s 			page 7


 356 0040 0322     		movs	r2, #3
 357 0042 1340     		ands	r3, r2
 358 0044 12E0     		b	.L23
 359              	.L22:
 360 0046 0C4A     		ldr	r2, .L24+4
 361 0048 FB1D     		adds	r3, r7, #7
 362 004a 1B78     		ldrb	r3, [r3]
 363 004c 5BB2     		sxtb	r3, r3
 364 004e 9B08     		lsrs	r3, r3, #2
 365 0050 C033     		adds	r3, r3, #192
 366 0052 9B00     		lsls	r3, r3, #2
 367 0054 9A58     		ldr	r2, [r3, r2]
 368 0056 FB1D     		adds	r3, r7, #7
 369 0058 1B78     		ldrb	r3, [r3]
 370 005a 1900     		movs	r1, r3
 371 005c 0323     		movs	r3, #3
 372 005e 0B40     		ands	r3, r1
 373 0060 DB00     		lsls	r3, r3, #3
 374 0062 DA40     		lsrs	r2, r2, r3
 375 0064 1300     		movs	r3, r2
 376 0066 9B09     		lsrs	r3, r3, #6
 377 0068 0322     		movs	r2, #3
 378 006a 1340     		ands	r3, r2
 379              	.L23:
 380 006c 1800     		movs	r0, r3
 381 006e BD46     		mov	sp, r7
 382 0070 02B0     		add	sp, sp, #8
 383              		@ sp needed
 384 0072 80BD     		pop	{r7, pc}
 385              	.L25:
 386              		.align	2
 387              	.L24:
 388 0074 00ED00E0 		.word	-536810240
 389 0078 00E100E0 		.word	-536813312
 391              		.section	.text.sd_mutex_new,"ax",%progbits
 392              		.align	1
 393              		.syntax unified
 394              		.code	16
 395              		.thumb_func
 396              		.fpu softvfp
 398              	sd_mutex_new:
 399              		@ Naked Function: prologue and epilogue provided by programmer.
 400              		@ args = 0, pretend = 0, frame = 0
 401              		@ frame_needed = 1, uses_anonymous_args = 0
 402              		.syntax divided
 403              	@ 374 "../components/softdevice/s110/headers/nrf_soc.h" 1
 404 0000 2BDF     		svc #43
 405 0002 7047     	bx r14
 406              	@ 0 "" 2
 407              		.thumb
 408              		.syntax unified
 409 0004 C046     		nop
 410 0006 1800     		movs	r0, r3
 412              		.section	.text.sd_mutex_acquire,"ax",%progbits
 413              		.align	1
 414              		.syntax unified
 415              		.code	16
ARM GAS  C:\Users\SONG_J~1\AppData\Local\Temp\ccI21FnK.s 			page 8


 416              		.thumb_func
 417              		.fpu softvfp
 419              	sd_mutex_acquire:
 420              		@ Naked Function: prologue and epilogue provided by programmer.
 421              		@ args = 0, pretend = 0, frame = 0
 422              		@ frame_needed = 1, uses_anonymous_args = 0
 423              		.syntax divided
 424              	@ 383 "../components/softdevice/s110/headers/nrf_soc.h" 1
 425 0000 2CDF     		svc #44
 426 0002 7047     	bx r14
 427              	@ 0 "" 2
 428              		.thumb
 429              		.syntax unified
 430 0004 C046     		nop
 431 0006 1800     		movs	r0, r3
 433              		.section	.text.sd_mutex_release,"ax",%progbits
 434              		.align	1
 435              		.syntax unified
 436              		.code	16
 437              		.thumb_func
 438              		.fpu softvfp
 440              	sd_mutex_release:
 441              		@ Naked Function: prologue and epilogue provided by programmer.
 442              		@ args = 0, pretend = 0, frame = 0
 443              		@ frame_needed = 1, uses_anonymous_args = 0
 444              		.syntax divided
 445              	@ 391 "../components/softdevice/s110/headers/nrf_soc.h" 1
 446 0000 2DDF     		svc #45
 447 0002 7047     	bx r14
 448              	@ 0 "" 2
 449              		.thumb
 450              		.syntax unified
 451 0004 C046     		nop
 452 0006 1800     		movs	r0, r3
 454              		.section	.text.sd_nvic_EnableIRQ,"ax",%progbits
 455              		.align	1
 456              		.syntax unified
 457              		.code	16
 458              		.thumb_func
 459              		.fpu softvfp
 461              	sd_nvic_EnableIRQ:
 462              		@ Naked Function: prologue and epilogue provided by programmer.
 463              		@ args = 0, pretend = 0, frame = 0
 464              		@ frame_needed = 1, uses_anonymous_args = 0
 465              		.syntax divided
 466              	@ 404 "../components/softdevice/s110/headers/nrf_soc.h" 1
 467 0000 2EDF     		svc #46
 468 0002 7047     	bx r14
 469              	@ 0 "" 2
 470              		.thumb
 471              		.syntax unified
 472 0004 C046     		nop
 473 0006 1800     		movs	r0, r3
 475              		.section	.text.sd_nvic_DisableIRQ,"ax",%progbits
 476              		.align	1
 477              		.syntax unified
 478              		.code	16
ARM GAS  C:\Users\SONG_J~1\AppData\Local\Temp\ccI21FnK.s 			page 9


 479              		.thumb_func
 480              		.fpu softvfp
 482              	sd_nvic_DisableIRQ:
 483              		@ Naked Function: prologue and epilogue provided by programmer.
 484              		@ args = 0, pretend = 0, frame = 0
 485              		@ frame_needed = 1, uses_anonymous_args = 0
 486              		.syntax divided
 487              	@ 416 "../components/softdevice/s110/headers/nrf_soc.h" 1
 488 0000 2FDF     		svc #47
 489 0002 7047     	bx r14
 490              	@ 0 "" 2
 491              		.thumb
 492              		.syntax unified
 493 0004 C046     		nop
 494 0006 1800     		movs	r0, r3
 496              		.section	.text.sd_nvic_GetPendingIRQ,"ax",%progbits
 497              		.align	1
 498              		.syntax unified
 499              		.code	16
 500              		.thumb_func
 501              		.fpu softvfp
 503              	sd_nvic_GetPendingIRQ:
 504              		@ Naked Function: prologue and epilogue provided by programmer.
 505              		@ args = 0, pretend = 0, frame = 0
 506              		@ frame_needed = 1, uses_anonymous_args = 0
 507              		.syntax divided
 508              	@ 429 "../components/softdevice/s110/headers/nrf_soc.h" 1
 509 0000 30DF     		svc #48
 510 0002 7047     	bx r14
 511              	@ 0 "" 2
 512              		.thumb
 513              		.syntax unified
 514 0004 C046     		nop
 515 0006 1800     		movs	r0, r3
 517              		.section	.text.sd_nvic_SetPendingIRQ,"ax",%progbits
 518              		.align	1
 519              		.syntax unified
 520              		.code	16
 521              		.thumb_func
 522              		.fpu softvfp
 524              	sd_nvic_SetPendingIRQ:
 525              		@ Naked Function: prologue and epilogue provided by programmer.
 526              		@ args = 0, pretend = 0, frame = 0
 527              		@ frame_needed = 1, uses_anonymous_args = 0
 528              		.syntax divided
 529              	@ 441 "../components/softdevice/s110/headers/nrf_soc.h" 1
 530 0000 31DF     		svc #49
 531 0002 7047     	bx r14
 532              	@ 0 "" 2
 533              		.thumb
 534              		.syntax unified
 535 0004 C046     		nop
 536 0006 1800     		movs	r0, r3
 538              		.section	.text.sd_nvic_ClearPendingIRQ,"ax",%progbits
 539              		.align	1
 540              		.syntax unified
 541              		.code	16
ARM GAS  C:\Users\SONG_J~1\AppData\Local\Temp\ccI21FnK.s 			page 10


 542              		.thumb_func
 543              		.fpu softvfp
 545              	sd_nvic_ClearPendingIRQ:
 546              		@ Naked Function: prologue and epilogue provided by programmer.
 547              		@ args = 0, pretend = 0, frame = 0
 548              		@ frame_needed = 1, uses_anonymous_args = 0
 549              		.syntax divided
 550              	@ 453 "../components/softdevice/s110/headers/nrf_soc.h" 1
 551 0000 32DF     		svc #50
 552 0002 7047     	bx r14
 553              	@ 0 "" 2
 554              		.thumb
 555              		.syntax unified
 556 0004 C046     		nop
 557 0006 1800     		movs	r0, r3
 559              		.section	.text.sd_nvic_SetPriority,"ax",%progbits
 560              		.align	1
 561              		.syntax unified
 562              		.code	16
 563              		.thumb_func
 564              		.fpu softvfp
 566              	sd_nvic_SetPriority:
 567              		@ Naked Function: prologue and epilogue provided by programmer.
 568              		@ args = 0, pretend = 0, frame = 0
 569              		@ frame_needed = 1, uses_anonymous_args = 0
 570              		.syntax divided
 571              	@ 468 "../components/softdevice/s110/headers/nrf_soc.h" 1
 572 0000 33DF     		svc #51
 573 0002 7047     	bx r14
 574              	@ 0 "" 2
 575              		.thumb
 576              		.syntax unified
 577 0004 C046     		nop
 578 0006 1800     		movs	r0, r3
 580              		.section	.text.sd_nvic_GetPriority,"ax",%progbits
 581              		.align	1
 582              		.syntax unified
 583              		.code	16
 584              		.thumb_func
 585              		.fpu softvfp
 587              	sd_nvic_GetPriority:
 588              		@ Naked Function: prologue and epilogue provided by programmer.
 589              		@ args = 0, pretend = 0, frame = 0
 590              		@ frame_needed = 1, uses_anonymous_args = 0
 591              		.syntax divided
 592              	@ 481 "../components/softdevice/s110/headers/nrf_soc.h" 1
 593 0000 34DF     		svc #52
 594 0002 7047     	bx r14
 595              	@ 0 "" 2
 596              		.thumb
 597              		.syntax unified
 598 0004 C046     		nop
 599 0006 1800     		movs	r0, r3
 601              		.section	.text.sd_nvic_SystemReset,"ax",%progbits
 602              		.align	1
 603              		.syntax unified
 604              		.code	16
ARM GAS  C:\Users\SONG_J~1\AppData\Local\Temp\ccI21FnK.s 			page 11


 605              		.thumb_func
 606              		.fpu softvfp
 608              	sd_nvic_SystemReset:
 609              		@ Naked Function: prologue and epilogue provided by programmer.
 610              		@ args = 0, pretend = 0, frame = 0
 611              		@ frame_needed = 1, uses_anonymous_args = 0
 612              		.syntax divided
 613              	@ 488 "../components/softdevice/s110/headers/nrf_soc.h" 1
 614 0000 35DF     		svc #53
 615 0002 7047     	bx r14
 616              	@ 0 "" 2
 617              		.thumb
 618              		.syntax unified
 619 0004 C046     		nop
 620 0006 1800     		movs	r0, r3
 622              		.section	.text.sd_nvic_critical_region_enter,"ax",%progbits
 623              		.align	1
 624              		.syntax unified
 625              		.code	16
 626              		.thumb_func
 627              		.fpu softvfp
 629              	sd_nvic_critical_region_enter:
 630              		@ Naked Function: prologue and epilogue provided by programmer.
 631              		@ args = 0, pretend = 0, frame = 0
 632              		@ frame_needed = 1, uses_anonymous_args = 0
 633              		.syntax divided
 634              	@ 500 "../components/softdevice/s110/headers/nrf_soc.h" 1
 635 0000 36DF     		svc #54
 636 0002 7047     	bx r14
 637              	@ 0 "" 2
 638              		.thumb
 639              		.syntax unified
 640 0004 C046     		nop
 641 0006 1800     		movs	r0, r3
 643              		.section	.text.sd_nvic_critical_region_exit,"ax",%progbits
 644              		.align	1
 645              		.syntax unified
 646              		.code	16
 647              		.thumb_func
 648              		.fpu softvfp
 650              	sd_nvic_critical_region_exit:
 651              		@ Naked Function: prologue and epilogue provided by programmer.
 652              		@ args = 0, pretend = 0, frame = 0
 653              		@ frame_needed = 1, uses_anonymous_args = 0
 654              		.syntax divided
 655              	@ 511 "../components/softdevice/s110/headers/nrf_soc.h" 1
 656 0000 37DF     		svc #55
 657 0002 7047     	bx r14
 658              	@ 0 "" 2
 659              		.thumb
 660              		.syntax unified
 661 0004 C046     		nop
 662 0006 1800     		movs	r0, r3
 664              		.section	.text.sd_rand_application_pool_capacity_get,"ax",%progbits
 665              		.align	1
 666              		.syntax unified
 667              		.code	16
ARM GAS  C:\Users\SONG_J~1\AppData\Local\Temp\ccI21FnK.s 			page 12


 668              		.thumb_func
 669              		.fpu softvfp
 671              	sd_rand_application_pool_capacity_get:
 672              		@ Naked Function: prologue and epilogue provided by programmer.
 673              		@ args = 0, pretend = 0, frame = 0
 674              		@ frame_needed = 1, uses_anonymous_args = 0
 675              		.syntax divided
 676              	@ 519 "../components/softdevice/s110/headers/nrf_soc.h" 1
 677 0000 38DF     		svc #56
 678 0002 7047     	bx r14
 679              	@ 0 "" 2
 680              		.thumb
 681              		.syntax unified
 682 0004 C046     		nop
 683 0006 1800     		movs	r0, r3
 685              		.section	.text.sd_rand_application_bytes_available_get,"ax",%progbits
 686              		.align	1
 687              		.syntax unified
 688              		.code	16
 689              		.thumb_func
 690              		.fpu softvfp
 692              	sd_rand_application_bytes_available_get:
 693              		@ Naked Function: prologue and epilogue provided by programmer.
 694              		@ args = 0, pretend = 0, frame = 0
 695              		@ frame_needed = 1, uses_anonymous_args = 0
 696              		.syntax divided
 697              	@ 527 "../components/softdevice/s110/headers/nrf_soc.h" 1
 698 0000 39DF     		svc #57
 699 0002 7047     	bx r14
 700              	@ 0 "" 2
 701              		.thumb
 702              		.syntax unified
 703 0004 C046     		nop
 704 0006 1800     		movs	r0, r3
 706              		.section	.text.sd_rand_application_vector_get,"ax",%progbits
 707              		.align	1
 708              		.syntax unified
 709              		.code	16
 710              		.thumb_func
 711              		.fpu softvfp
 713              	sd_rand_application_vector_get:
 714              		@ Naked Function: prologue and epilogue provided by programmer.
 715              		@ args = 0, pretend = 0, frame = 0
 716              		@ frame_needed = 1, uses_anonymous_args = 0
 717              		.syntax divided
 718              	@ 537 "../components/softdevice/s110/headers/nrf_soc.h" 1
 719 0000 3ADF     		svc #58
 720 0002 7047     	bx r14
 721              	@ 0 "" 2
 722              		.thumb
 723              		.syntax unified
 724 0004 C046     		nop
 725 0006 1800     		movs	r0, r3
 727              		.section	.text.sd_power_reset_reason_get,"ax",%progbits
 728              		.align	1
 729              		.syntax unified
 730              		.code	16
ARM GAS  C:\Users\SONG_J~1\AppData\Local\Temp\ccI21FnK.s 			page 13


 731              		.thumb_func
 732              		.fpu softvfp
 734              	sd_power_reset_reason_get:
 735              		@ Naked Function: prologue and epilogue provided by programmer.
 736              		@ args = 0, pretend = 0, frame = 0
 737              		@ frame_needed = 1, uses_anonymous_args = 0
 738              		.syntax divided
 739              	@ 545 "../components/softdevice/s110/headers/nrf_soc.h" 1
 740 0000 3DDF     		svc #61
 741 0002 7047     	bx r14
 742              	@ 0 "" 2
 743              		.thumb
 744              		.syntax unified
 745 0004 C046     		nop
 746 0006 1800     		movs	r0, r3
 748              		.section	.text.sd_power_reset_reason_clr,"ax",%progbits
 749              		.align	1
 750              		.syntax unified
 751              		.code	16
 752              		.thumb_func
 753              		.fpu softvfp
 755              	sd_power_reset_reason_clr:
 756              		@ Naked Function: prologue and epilogue provided by programmer.
 757              		@ args = 0, pretend = 0, frame = 0
 758              		@ frame_needed = 1, uses_anonymous_args = 0
 759              		.syntax divided
 760              	@ 553 "../components/softdevice/s110/headers/nrf_soc.h" 1
 761 0000 3EDF     		svc #62
 762 0002 7047     	bx r14
 763              	@ 0 "" 2
 764              		.thumb
 765              		.syntax unified
 766 0004 C046     		nop
 767 0006 1800     		movs	r0, r3
 769              		.section	.text.sd_power_mode_set,"ax",%progbits
 770              		.align	1
 771              		.syntax unified
 772              		.code	16
 773              		.thumb_func
 774              		.fpu softvfp
 776              	sd_power_mode_set:
 777              		@ Naked Function: prologue and epilogue provided by programmer.
 778              		@ args = 0, pretend = 0, frame = 0
 779              		@ frame_needed = 1, uses_anonymous_args = 0
 780              		.syntax divided
 781              	@ 562 "../components/softdevice/s110/headers/nrf_soc.h" 1
 782 0000 3BDF     		svc #59
 783 0002 7047     	bx r14
 784              	@ 0 "" 2
 785              		.thumb
 786              		.syntax unified
 787 0004 C046     		nop
 788 0006 1800     		movs	r0, r3
 790              		.section	.text.sd_power_system_off,"ax",%progbits
 791              		.align	1
 792              		.syntax unified
 793              		.code	16
ARM GAS  C:\Users\SONG_J~1\AppData\Local\Temp\ccI21FnK.s 			page 14


 794              		.thumb_func
 795              		.fpu softvfp
 797              	sd_power_system_off:
 798              		@ Naked Function: prologue and epilogue provided by programmer.
 799              		@ args = 0, pretend = 0, frame = 0
 800              		@ frame_needed = 1, uses_anonymous_args = 0
 801              		.syntax divided
 802              	@ 568 "../components/softdevice/s110/headers/nrf_soc.h" 1
 803 0000 3CDF     		svc #60
 804 0002 7047     	bx r14
 805              	@ 0 "" 2
 806              		.thumb
 807              		.syntax unified
 808 0004 C046     		nop
 809 0006 1800     		movs	r0, r3
 811              		.section	.text.sd_power_pof_enable,"ax",%progbits
 812              		.align	1
 813              		.syntax unified
 814              		.code	16
 815              		.thumb_func
 816              		.fpu softvfp
 818              	sd_power_pof_enable:
 819              		@ Naked Function: prologue and epilogue provided by programmer.
 820              		@ args = 0, pretend = 0, frame = 0
 821              		@ frame_needed = 1, uses_anonymous_args = 0
 822              		.syntax divided
 823              	@ 579 "../components/softdevice/s110/headers/nrf_soc.h" 1
 824 0000 3FDF     		svc #63
 825 0002 7047     	bx r14
 826              	@ 0 "" 2
 827              		.thumb
 828              		.syntax unified
 829 0004 C046     		nop
 830 0006 1800     		movs	r0, r3
 832              		.section	.text.sd_power_pof_threshold_set,"ax",%progbits
 833              		.align	1
 834              		.syntax unified
 835              		.code	16
 836              		.thumb_func
 837              		.fpu softvfp
 839              	sd_power_pof_threshold_set:
 840              		@ Naked Function: prologue and epilogue provided by programmer.
 841              		@ args = 0, pretend = 0, frame = 0
 842              		@ frame_needed = 1, uses_anonymous_args = 0
 843              		.syntax divided
 844              	@ 588 "../components/softdevice/s110/headers/nrf_soc.h" 1
 845 0000 40DF     		svc #64
 846 0002 7047     	bx r14
 847              	@ 0 "" 2
 848              		.thumb
 849              		.syntax unified
 850 0004 C046     		nop
 851 0006 1800     		movs	r0, r3
 853              		.section	.text.sd_power_ramon_set,"ax",%progbits
 854              		.align	1
 855              		.syntax unified
 856              		.code	16
ARM GAS  C:\Users\SONG_J~1\AppData\Local\Temp\ccI21FnK.s 			page 15


 857              		.thumb_func
 858              		.fpu softvfp
 860              	sd_power_ramon_set:
 861              		@ Naked Function: prologue and epilogue provided by programmer.
 862              		@ args = 0, pretend = 0, frame = 0
 863              		@ frame_needed = 1, uses_anonymous_args = 0
 864              		.syntax divided
 865              	@ 596 "../components/softdevice/s110/headers/nrf_soc.h" 1
 866 0000 41DF     		svc #65
 867 0002 7047     	bx r14
 868              	@ 0 "" 2
 869              		.thumb
 870              		.syntax unified
 871 0004 C046     		nop
 872 0006 1800     		movs	r0, r3
 874              		.section	.text.sd_power_ramon_clr,"ax",%progbits
 875              		.align	1
 876              		.syntax unified
 877              		.code	16
 878              		.thumb_func
 879              		.fpu softvfp
 881              	sd_power_ramon_clr:
 882              		@ Naked Function: prologue and epilogue provided by programmer.
 883              		@ args = 0, pretend = 0, frame = 0
 884              		@ frame_needed = 1, uses_anonymous_args = 0
 885              		.syntax divided
 886              	@ 604 "../components/softdevice/s110/headers/nrf_soc.h" 1
 887 0000 42DF     		svc #66
 888 0002 7047     	bx r14
 889              	@ 0 "" 2
 890              		.thumb
 891              		.syntax unified
 892 0004 C046     		nop
 893 0006 1800     		movs	r0, r3
 895              		.section	.text.sd_power_ramon_get,"ax",%progbits
 896              		.align	1
 897              		.syntax unified
 898              		.code	16
 899              		.thumb_func
 900              		.fpu softvfp
 902              	sd_power_ramon_get:
 903              		@ Naked Function: prologue and epilogue provided by programmer.
 904              		@ args = 0, pretend = 0, frame = 0
 905              		@ frame_needed = 1, uses_anonymous_args = 0
 906              		.syntax divided
 907              	@ 612 "../components/softdevice/s110/headers/nrf_soc.h" 1
 908 0000 43DF     		svc #67
 909 0002 7047     	bx r14
 910              	@ 0 "" 2
 911              		.thumb
 912              		.syntax unified
 913 0004 C046     		nop
 914 0006 1800     		movs	r0, r3
 916              		.section	.text.sd_power_gpregret_set,"ax",%progbits
 917              		.align	1
 918              		.syntax unified
 919              		.code	16
ARM GAS  C:\Users\SONG_J~1\AppData\Local\Temp\ccI21FnK.s 			page 16


 920              		.thumb_func
 921              		.fpu softvfp
 923              	sd_power_gpregret_set:
 924              		@ Naked Function: prologue and epilogue provided by programmer.
 925              		@ args = 0, pretend = 0, frame = 0
 926              		@ frame_needed = 1, uses_anonymous_args = 0
 927              		.syntax divided
 928              	@ 620 "../components/softdevice/s110/headers/nrf_soc.h" 1
 929 0000 44DF     		svc #68
 930 0002 7047     	bx r14
 931              	@ 0 "" 2
 932              		.thumb
 933              		.syntax unified
 934 0004 C046     		nop
 935 0006 1800     		movs	r0, r3
 937              		.section	.text.sd_power_gpregret_clr,"ax",%progbits
 938              		.align	1
 939              		.syntax unified
 940              		.code	16
 941              		.thumb_func
 942              		.fpu softvfp
 944              	sd_power_gpregret_clr:
 945              		@ Naked Function: prologue and epilogue provided by programmer.
 946              		@ args = 0, pretend = 0, frame = 0
 947              		@ frame_needed = 1, uses_anonymous_args = 0
 948              		.syntax divided
 949              	@ 628 "../components/softdevice/s110/headers/nrf_soc.h" 1
 950 0000 45DF     		svc #69
 951 0002 7047     	bx r14
 952              	@ 0 "" 2
 953              		.thumb
 954              		.syntax unified
 955 0004 C046     		nop
 956 0006 1800     		movs	r0, r3
 958              		.section	.text.sd_power_gpregret_get,"ax",%progbits
 959              		.align	1
 960              		.syntax unified
 961              		.code	16
 962              		.thumb_func
 963              		.fpu softvfp
 965              	sd_power_gpregret_get:
 966              		@ Naked Function: prologue and epilogue provided by programmer.
 967              		@ args = 0, pretend = 0, frame = 0
 968              		@ frame_needed = 1, uses_anonymous_args = 0
 969              		.syntax divided
 970              	@ 636 "../components/softdevice/s110/headers/nrf_soc.h" 1
 971 0000 46DF     		svc #70
 972 0002 7047     	bx r14
 973              	@ 0 "" 2
 974              		.thumb
 975              		.syntax unified
 976 0004 C046     		nop
 977 0006 1800     		movs	r0, r3
 979              		.section	.text.sd_power_dcdc_mode_set,"ax",%progbits
 980              		.align	1
 981              		.syntax unified
 982              		.code	16
ARM GAS  C:\Users\SONG_J~1\AppData\Local\Temp\ccI21FnK.s 			page 17


 983              		.thumb_func
 984              		.fpu softvfp
 986              	sd_power_dcdc_mode_set:
 987              		@ Naked Function: prologue and epilogue provided by programmer.
 988              		@ args = 0, pretend = 0, frame = 0
 989              		@ frame_needed = 1, uses_anonymous_args = 0
 990              		.syntax divided
 991              	@ 647 "../components/softdevice/s110/headers/nrf_soc.h" 1
 992 0000 47DF     		svc #71
 993 0002 7047     	bx r14
 994              	@ 0 "" 2
 995              		.thumb
 996              		.syntax unified
 997 0004 C046     		nop
 998 0006 1800     		movs	r0, r3
 1000              		.section	.text.sd_clock_hfclk_request,"ax",%progbits
 1001              		.align	1
 1002              		.syntax unified
 1003              		.code	16
 1004              		.thumb_func
 1005              		.fpu softvfp
 1007              	sd_clock_hfclk_request:
 1008              		@ Naked Function: prologue and epilogue provided by programmer.
 1009              		@ args = 0, pretend = 0, frame = 0
 1010              		@ frame_needed = 1, uses_anonymous_args = 0
 1011              		.syntax divided
 1012              	@ 659 "../components/softdevice/s110/headers/nrf_soc.h" 1
 1013 0000 49DF     		svc #73
 1014 0002 7047     	bx r14
 1015              	@ 0 "" 2
 1016              		.thumb
 1017              		.syntax unified
 1018 0004 C046     		nop
 1019 0006 1800     		movs	r0, r3
 1021              		.section	.text.sd_clock_hfclk_release,"ax",%progbits
 1022              		.align	1
 1023              		.syntax unified
 1024              		.code	16
 1025              		.thumb_func
 1026              		.fpu softvfp
 1028              	sd_clock_hfclk_release:
 1029              		@ Naked Function: prologue and epilogue provided by programmer.
 1030              		@ args = 0, pretend = 0, frame = 0
 1031              		@ frame_needed = 1, uses_anonymous_args = 0
 1032              		.syntax divided
 1033              	@ 670 "../components/softdevice/s110/headers/nrf_soc.h" 1
 1034 0000 4ADF     		svc #74
 1035 0002 7047     	bx r14
 1036              	@ 0 "" 2
 1037              		.thumb
 1038              		.syntax unified
 1039 0004 C046     		nop
 1040 0006 1800     		movs	r0, r3
 1042              		.section	.text.sd_clock_hfclk_is_running,"ax",%progbits
 1043              		.align	1
 1044              		.syntax unified
 1045              		.code	16
ARM GAS  C:\Users\SONG_J~1\AppData\Local\Temp\ccI21FnK.s 			page 18


 1046              		.thumb_func
 1047              		.fpu softvfp
 1049              	sd_clock_hfclk_is_running:
 1050              		@ Naked Function: prologue and epilogue provided by programmer.
 1051              		@ args = 0, pretend = 0, frame = 0
 1052              		@ frame_needed = 1, uses_anonymous_args = 0
 1053              		.syntax divided
 1054              	@ 681 "../components/softdevice/s110/headers/nrf_soc.h" 1
 1055 0000 4BDF     		svc #75
 1056 0002 7047     	bx r14
 1057              	@ 0 "" 2
 1058              		.thumb
 1059              		.syntax unified
 1060 0004 C046     		nop
 1061 0006 1800     		movs	r0, r3
 1063              		.section	.text.sd_app_evt_wait,"ax",%progbits
 1064              		.align	1
 1065              		.syntax unified
 1066              		.code	16
 1067              		.thumb_func
 1068              		.fpu softvfp
 1070              	sd_app_evt_wait:
 1071              		@ Naked Function: prologue and epilogue provided by programmer.
 1072              		@ args = 0, pretend = 0, frame = 0
 1073              		@ frame_needed = 1, uses_anonymous_args = 0
 1074              		.syntax divided
 1075              	@ 706 "../components/softdevice/s110/headers/nrf_soc.h" 1
 1076 0000 48DF     		svc #72
 1077 0002 7047     	bx r14
 1078              	@ 0 "" 2
 1079              		.thumb
 1080              		.syntax unified
 1081 0004 C046     		nop
 1082 0006 1800     		movs	r0, r3
 1084              		.section	.text.sd_ppi_channel_enable_get,"ax",%progbits
 1085              		.align	1
 1086              		.syntax unified
 1087              		.code	16
 1088              		.thumb_func
 1089              		.fpu softvfp
 1091              	sd_ppi_channel_enable_get:
 1092              		@ Naked Function: prologue and epilogue provided by programmer.
 1093              		@ args = 0, pretend = 0, frame = 0
 1094              		@ frame_needed = 1, uses_anonymous_args = 0
 1095              		.syntax divided
 1096              	@ 714 "../components/softdevice/s110/headers/nrf_soc.h" 1
 1097 0000 20DF     		svc #32
 1098 0002 7047     	bx r14
 1099              	@ 0 "" 2
 1100              		.thumb
 1101              		.syntax unified
 1102 0004 C046     		nop
 1103 0006 1800     		movs	r0, r3
 1105              		.section	.text.sd_ppi_channel_enable_set,"ax",%progbits
 1106              		.align	1
 1107              		.syntax unified
 1108              		.code	16
ARM GAS  C:\Users\SONG_J~1\AppData\Local\Temp\ccI21FnK.s 			page 19


 1109              		.thumb_func
 1110              		.fpu softvfp
 1112              	sd_ppi_channel_enable_set:
 1113              		@ Naked Function: prologue and epilogue provided by programmer.
 1114              		@ args = 0, pretend = 0, frame = 0
 1115              		@ frame_needed = 1, uses_anonymous_args = 0
 1116              		.syntax divided
 1117              	@ 722 "../components/softdevice/s110/headers/nrf_soc.h" 1
 1118 0000 21DF     		svc #33
 1119 0002 7047     	bx r14
 1120              	@ 0 "" 2
 1121              		.thumb
 1122              		.syntax unified
 1123 0004 C046     		nop
 1124 0006 1800     		movs	r0, r3
 1126              		.section	.text.sd_ppi_channel_enable_clr,"ax",%progbits
 1127              		.align	1
 1128              		.syntax unified
 1129              		.code	16
 1130              		.thumb_func
 1131              		.fpu softvfp
 1133              	sd_ppi_channel_enable_clr:
 1134              		@ Naked Function: prologue and epilogue provided by programmer.
 1135              		@ args = 0, pretend = 0, frame = 0
 1136              		@ frame_needed = 1, uses_anonymous_args = 0
 1137              		.syntax divided
 1138              	@ 730 "../components/softdevice/s110/headers/nrf_soc.h" 1
 1139 0000 22DF     		svc #34
 1140 0002 7047     	bx r14
 1141              	@ 0 "" 2
 1142              		.thumb
 1143              		.syntax unified
 1144 0004 C046     		nop
 1145 0006 1800     		movs	r0, r3
 1147              		.section	.text.sd_ppi_channel_assign,"ax",%progbits
 1148              		.align	1
 1149              		.syntax unified
 1150              		.code	16
 1151              		.thumb_func
 1152              		.fpu softvfp
 1154              	sd_ppi_channel_assign:
 1155              		@ Naked Function: prologue and epilogue provided by programmer.
 1156              		@ args = 0, pretend = 0, frame = 0
 1157              		@ frame_needed = 1, uses_anonymous_args = 0
 1158              		.syntax divided
 1159              	@ 741 "../components/softdevice/s110/headers/nrf_soc.h" 1
 1160 0000 23DF     		svc #35
 1161 0002 7047     	bx r14
 1162              	@ 0 "" 2
 1163              		.thumb
 1164              		.syntax unified
 1165 0004 C046     		nop
 1166 0006 1800     		movs	r0, r3
 1168              		.section	.text.sd_ppi_group_task_enable,"ax",%progbits
 1169              		.align	1
 1170              		.syntax unified
 1171              		.code	16
ARM GAS  C:\Users\SONG_J~1\AppData\Local\Temp\ccI21FnK.s 			page 20


 1172              		.thumb_func
 1173              		.fpu softvfp
 1175              	sd_ppi_group_task_enable:
 1176              		@ Naked Function: prologue and epilogue provided by programmer.
 1177              		@ args = 0, pretend = 0, frame = 0
 1178              		@ frame_needed = 1, uses_anonymous_args = 0
 1179              		.syntax divided
 1180              	@ 750 "../components/softdevice/s110/headers/nrf_soc.h" 1
 1181 0000 24DF     		svc #36
 1182 0002 7047     	bx r14
 1183              	@ 0 "" 2
 1184              		.thumb
 1185              		.syntax unified
 1186 0004 C046     		nop
 1187 0006 1800     		movs	r0, r3
 1189              		.section	.text.sd_ppi_group_task_disable,"ax",%progbits
 1190              		.align	1
 1191              		.syntax unified
 1192              		.code	16
 1193              		.thumb_func
 1194              		.fpu softvfp
 1196              	sd_ppi_group_task_disable:
 1197              		@ Naked Function: prologue and epilogue provided by programmer.
 1198              		@ args = 0, pretend = 0, frame = 0
 1199              		@ frame_needed = 1, uses_anonymous_args = 0
 1200              		.syntax divided
 1201              	@ 759 "../components/softdevice/s110/headers/nrf_soc.h" 1
 1202 0000 25DF     		svc #37
 1203 0002 7047     	bx r14
 1204              	@ 0 "" 2
 1205              		.thumb
 1206              		.syntax unified
 1207 0004 C046     		nop
 1208 0006 1800     		movs	r0, r3
 1210              		.section	.text.sd_ppi_group_assign,"ax",%progbits
 1211              		.align	1
 1212              		.syntax unified
 1213              		.code	16
 1214              		.thumb_func
 1215              		.fpu softvfp
 1217              	sd_ppi_group_assign:
 1218              		@ Naked Function: prologue and epilogue provided by programmer.
 1219              		@ args = 0, pretend = 0, frame = 0
 1220              		@ frame_needed = 1, uses_anonymous_args = 0
 1221              		.syntax divided
 1222              	@ 769 "../components/softdevice/s110/headers/nrf_soc.h" 1
 1223 0000 26DF     		svc #38
 1224 0002 7047     	bx r14
 1225              	@ 0 "" 2
 1226              		.thumb
 1227              		.syntax unified
 1228 0004 C046     		nop
 1229 0006 1800     		movs	r0, r3
 1231              		.section	.text.sd_ppi_group_get,"ax",%progbits
 1232              		.align	1
 1233              		.syntax unified
 1234              		.code	16
ARM GAS  C:\Users\SONG_J~1\AppData\Local\Temp\ccI21FnK.s 			page 21


 1235              		.thumb_func
 1236              		.fpu softvfp
 1238              	sd_ppi_group_get:
 1239              		@ Naked Function: prologue and epilogue provided by programmer.
 1240              		@ args = 0, pretend = 0, frame = 0
 1241              		@ frame_needed = 1, uses_anonymous_args = 0
 1242              		.syntax divided
 1243              	@ 779 "../components/softdevice/s110/headers/nrf_soc.h" 1
 1244 0000 27DF     		svc #39
 1245 0002 7047     	bx r14
 1246              	@ 0 "" 2
 1247              		.thumb
 1248              		.syntax unified
 1249 0004 C046     		nop
 1250 0006 1800     		movs	r0, r3
 1252              		.section	.text.sd_radio_notification_cfg_set,"ax",%progbits
 1253              		.align	1
 1254              		.syntax unified
 1255              		.code	16
 1256              		.thumb_func
 1257              		.fpu softvfp
 1259              	sd_radio_notification_cfg_set:
 1260              		@ Naked Function: prologue and epilogue provided by programmer.
 1261              		@ args = 0, pretend = 0, frame = 0
 1262              		@ frame_needed = 1, uses_anonymous_args = 0
 1263              		.syntax divided
 1264              	@ 808 "../components/softdevice/s110/headers/nrf_soc.h" 1
 1265 0000 4CDF     		svc #76
 1266 0002 7047     	bx r14
 1267              	@ 0 "" 2
 1268              		.thumb
 1269              		.syntax unified
 1270 0004 C046     		nop
 1271 0006 1800     		movs	r0, r3
 1273              		.section	.text.sd_ecb_block_encrypt,"ax",%progbits
 1274              		.align	1
 1275              		.syntax unified
 1276              		.code	16
 1277              		.thumb_func
 1278              		.fpu softvfp
 1280              	sd_ecb_block_encrypt:
 1281              		@ Naked Function: prologue and epilogue provided by programmer.
 1282              		@ args = 0, pretend = 0, frame = 0
 1283              		@ frame_needed = 1, uses_anonymous_args = 0
 1284              		.syntax divided
 1285              	@ 819 "../components/softdevice/s110/headers/nrf_soc.h" 1
 1286 0000 4DDF     		svc #77
 1287 0002 7047     	bx r14
 1288              	@ 0 "" 2
 1289              		.thumb
 1290              		.syntax unified
 1291 0004 C046     		nop
 1292 0006 1800     		movs	r0, r3
 1294              		.section	.text.sd_evt_get,"ax",%progbits
 1295              		.align	1
 1296              		.syntax unified
 1297              		.code	16
ARM GAS  C:\Users\SONG_J~1\AppData\Local\Temp\ccI21FnK.s 			page 22


 1298              		.thumb_func
 1299              		.fpu softvfp
 1301              	sd_evt_get:
 1302              		@ Naked Function: prologue and epilogue provided by programmer.
 1303              		@ args = 0, pretend = 0, frame = 0
 1304              		@ frame_needed = 1, uses_anonymous_args = 0
 1305              		.syntax divided
 1306              	@ 830 "../components/softdevice/s110/headers/nrf_soc.h" 1
 1307 0000 51DF     		svc #81
 1308 0002 7047     	bx r14
 1309              	@ 0 "" 2
 1310              		.thumb
 1311              		.syntax unified
 1312 0004 C046     		nop
 1313 0006 1800     		movs	r0, r3
 1315              		.section	.text.sd_temp_get,"ax",%progbits
 1316              		.align	1
 1317              		.syntax unified
 1318              		.code	16
 1319              		.thumb_func
 1320              		.fpu softvfp
 1322              	sd_temp_get:
 1323              		@ Naked Function: prologue and epilogue provided by programmer.
 1324              		@ args = 0, pretend = 0, frame = 0
 1325              		@ frame_needed = 1, uses_anonymous_args = 0
 1326              		.syntax divided
 1327              	@ 843 "../components/softdevice/s110/headers/nrf_soc.h" 1
 1328 0000 52DF     		svc #82
 1329 0002 7047     	bx r14
 1330              	@ 0 "" 2
 1331              		.thumb
 1332              		.syntax unified
 1333 0004 C046     		nop
 1334 0006 1800     		movs	r0, r3
 1336              		.section	.text.sd_flash_write,"ax",%progbits
 1337              		.align	1
 1338              		.syntax unified
 1339              		.code	16
 1340              		.thumb_func
 1341              		.fpu softvfp
 1343              	sd_flash_write:
 1344              		@ Naked Function: prologue and epilogue provided by programmer.
 1345              		@ args = 0, pretend = 0, frame = 0
 1346              		@ frame_needed = 1, uses_anonymous_args = 0
 1347              		.syntax divided
 1348              	@ 875 "../components/softdevice/s110/headers/nrf_soc.h" 1
 1349 0000 29DF     		svc #41
 1350 0002 7047     	bx r14
 1351              	@ 0 "" 2
 1352              		.thumb
 1353              		.syntax unified
 1354 0004 C046     		nop
 1355 0006 1800     		movs	r0, r3
 1357              		.section	.text.sd_flash_page_erase,"ax",%progbits
 1358              		.align	1
 1359              		.syntax unified
 1360              		.code	16
ARM GAS  C:\Users\SONG_J~1\AppData\Local\Temp\ccI21FnK.s 			page 23


 1361              		.thumb_func
 1362              		.fpu softvfp
 1364              	sd_flash_page_erase:
 1365              		@ Naked Function: prologue and epilogue provided by programmer.
 1366              		@ args = 0, pretend = 0, frame = 0
 1367              		@ frame_needed = 1, uses_anonymous_args = 0
 1368              		.syntax divided
 1369              	@ 904 "../components/softdevice/s110/headers/nrf_soc.h" 1
 1370 0000 28DF     		svc #40
 1371 0002 7047     	bx r14
 1372              	@ 0 "" 2
 1373              		.thumb
 1374              		.syntax unified
 1375 0004 C046     		nop
 1376 0006 1800     		movs	r0, r3
 1378              		.section	.text.sd_flash_protect,"ax",%progbits
 1379              		.align	1
 1380              		.syntax unified
 1381              		.code	16
 1382              		.thumb_func
 1383              		.fpu softvfp
 1385              	sd_flash_protect:
 1386              		@ Naked Function: prologue and epilogue provided by programmer.
 1387              		@ args = 0, pretend = 0, frame = 0
 1388              		@ frame_needed = 1, uses_anonymous_args = 0
 1389              		.syntax divided
 1390              	@ 919 "../components/softdevice/s110/headers/nrf_soc.h" 1
 1391 0000 2ADF     		svc #42
 1392 0002 7047     	bx r14
 1393              	@ 0 "" 2
 1394              		.thumb
 1395              		.syntax unified
 1396 0004 C046     		nop
 1397 0006 1800     		movs	r0, r3
 1399              		.section	.text.sd_radio_session_open,"ax",%progbits
 1400              		.align	1
 1401              		.syntax unified
 1402              		.code	16
 1403              		.thumb_func
 1404              		.fpu softvfp
 1406              	sd_radio_session_open:
 1407              		@ Naked Function: prologue and epilogue provided by programmer.
 1408              		@ args = 0, pretend = 0, frame = 0
 1409              		@ frame_needed = 1, uses_anonymous_args = 0
 1410              		.syntax divided
 1411              	@ 941 "../components/softdevice/s110/headers/nrf_soc.h" 1
 1412 0000 4EDF     		svc #78
 1413 0002 7047     	bx r14
 1414              	@ 0 "" 2
 1415              		.thumb
 1416              		.syntax unified
 1417 0004 C046     		nop
 1418 0006 1800     		movs	r0, r3
 1420              		.section	.text.sd_radio_session_close,"ax",%progbits
 1421              		.align	1
 1422              		.syntax unified
 1423              		.code	16
ARM GAS  C:\Users\SONG_J~1\AppData\Local\Temp\ccI21FnK.s 			page 24


 1424              		.thumb_func
 1425              		.fpu softvfp
 1427              	sd_radio_session_close:
 1428              		@ Naked Function: prologue and epilogue provided by programmer.
 1429              		@ args = 0, pretend = 0, frame = 0
 1430              		@ frame_needed = 1, uses_anonymous_args = 0
 1431              		.syntax divided
 1432              	@ 954 "../components/softdevice/s110/headers/nrf_soc.h" 1
 1433 0000 4FDF     		svc #79
 1434 0002 7047     	bx r14
 1435              	@ 0 "" 2
 1436              		.thumb
 1437              		.syntax unified
 1438 0004 C046     		nop
 1439 0006 1800     		movs	r0, r3
 1441              		.section	.text.sd_radio_request,"ax",%progbits
 1442              		.align	1
 1443              		.syntax unified
 1444              		.code	16
 1445              		.thumb_func
 1446              		.fpu softvfp
 1448              	sd_radio_request:
 1449              		@ Naked Function: prologue and epilogue provided by programmer.
 1450              		@ args = 0, pretend = 0, frame = 0
 1451              		@ frame_needed = 1, uses_anonymous_args = 0
 1452              		.syntax divided
 1453              	@ 987 "../components/softdevice/s110/headers/nrf_soc.h" 1
 1454 0000 50DF     		svc #80
 1455 0002 7047     	bx r14
 1456              	@ 0 "" 2
 1457              		.thumb
 1458              		.syntax unified
 1459 0004 C046     		nop
 1460 0006 1800     		movs	r0, r3
 1462              		.section	.text.current_int_priority_get,"ax",%progbits
 1463              		.align	1
 1464              		.syntax unified
 1465              		.code	16
 1466              		.thumb_func
 1467              		.fpu softvfp
 1469              	current_int_priority_get:
 1470              		@ args = 0, pretend = 0, frame = 8
 1471              		@ frame_needed = 1, uses_anonymous_args = 0
 1472 0000 80B5     		push	{r7, lr}
 1473 0002 82B0     		sub	sp, sp, #8
 1474 0004 00AF     		add	r7, sp, #0
 1475 0006 0C4B     		ldr	r3, .L80
 1476 0008 5B68     		ldr	r3, [r3, #4]
 1477 000a DB05     		lsls	r3, r3, #23
 1478 000c DB0D     		lsrs	r3, r3, #23
 1479 000e 7B60     		str	r3, [r7, #4]
 1480 0010 7B68     		ldr	r3, [r7, #4]
 1481 0012 002B     		cmp	r3, #0
 1482 0014 0AD0     		beq	.L78
 1483 0016 7B68     		ldr	r3, [r7, #4]
 1484 0018 103B     		subs	r3, r3, #16
 1485 001a 3B60     		str	r3, [r7]
ARM GAS  C:\Users\SONG_J~1\AppData\Local\Temp\ccI21FnK.s 			page 25


 1486 001c 3B68     		ldr	r3, [r7]
 1487 001e 5BB2     		sxtb	r3, r3
 1488 0020 1800     		movs	r0, r3
 1489 0022 FFF7FEFF 		bl	NVIC_GetPriority
 1490 0026 0300     		movs	r3, r0
 1491 0028 DBB2     		uxtb	r3, r3
 1492 002a 00E0     		b	.L79
 1493              	.L78:
 1494 002c 0423     		movs	r3, #4
 1495              	.L79:
 1496 002e 1800     		movs	r0, r3
 1497 0030 BD46     		mov	sp, r7
 1498 0032 02B0     		add	sp, sp, #8
 1499              		@ sp needed
 1500 0034 80BD     		pop	{r7, pc}
 1501              	.L81:
 1502 0036 C046     		.align	2
 1503              	.L80:
 1504 0038 00ED00E0 		.word	-536810240
 1506              		.section	.bss.m_user_array_size,"aw",%nobits
 1509              	m_user_array_size:
 1510 0000 00       		.space	1
 1511              		.section	.bss.mp_users,"aw",%nobits
 1512              		.align	2
 1515              	mp_users:
 1516 0000 00000000 		.space	4
 1517              		.section	.bss.mp_timer_id_head,"aw",%nobits
 1518              		.align	2
 1521              	mp_timer_id_head:
 1522 0000 00000000 		.space	4
 1523              		.section	.bss.m_ticks_latest,"aw",%nobits
 1524              		.align	2
 1527              	m_ticks_latest:
 1528 0000 00000000 		.space	4
 1529              		.section	.bss.m_ticks_elapsed,"aw",%nobits
 1530              		.align	2
 1533              	m_ticks_elapsed:
 1534 0000 00000000 		.space	8
 1534      00000000 
 1535              		.section	.bss.m_ticks_elapsed_q_read_ind,"aw",%nobits
 1538              	m_ticks_elapsed_q_read_ind:
 1539 0000 00       		.space	1
 1540              		.section	.bss.m_ticks_elapsed_q_write_ind,"aw",%nobits
 1543              	m_ticks_elapsed_q_write_ind:
 1544 0000 00       		.space	1
 1545              		.section	.bss.m_evt_schedule_func,"aw",%nobits
 1546              		.align	2
 1549              	m_evt_schedule_func:
 1550 0000 00000000 		.space	4
 1551              		.section	.bss.m_rtc1_running,"aw",%nobits
 1554              	m_rtc1_running:
 1555 0000 00       		.space	1
 1556              		.section	.bss.m_rtc1_reset,"aw",%nobits
 1559              	m_rtc1_reset:
 1560 0000 00       		.space	1
 1561              		.section	.text.rtc1_init,"ax",%progbits
 1562              		.align	1
ARM GAS  C:\Users\SONG_J~1\AppData\Local\Temp\ccI21FnK.s 			page 26


 1563              		.syntax unified
 1564              		.code	16
 1565              		.thumb_func
 1566              		.fpu softvfp
 1568              	rtc1_init:
 1569              		@ args = 0, pretend = 0, frame = 8
 1570              		@ frame_needed = 1, uses_anonymous_args = 0
 1571 0000 80B5     		push	{r7, lr}
 1572 0002 82B0     		sub	sp, sp, #8
 1573 0004 00AF     		add	r7, sp, #0
 1574 0006 7860     		str	r0, [r7, #4]
 1575 0008 0649     		ldr	r1, .L83
 1576 000a A123     		movs	r3, #161
 1577 000c DB00     		lsls	r3, r3, #3
 1578 000e 7A68     		ldr	r2, [r7, #4]
 1579 0010 CA50     		str	r2, [r1, r3]
 1580 0012 0321     		movs	r1, #3
 1581 0014 1120     		movs	r0, #17
 1582 0016 FFF7FEFF 		bl	NVIC_SetPriority
 1583 001a C046     		nop
 1584 001c BD46     		mov	sp, r7
 1585 001e 02B0     		add	sp, sp, #8
 1586              		@ sp needed
 1587 0020 80BD     		pop	{r7, pc}
 1588              	.L84:
 1589 0022 C046     		.align	2
 1590              	.L83:
 1591 0024 00100140 		.word	1073811456
 1593              		.section	.text.rtc1_start,"ax",%progbits
 1594              		.align	1
 1595              		.syntax unified
 1596              		.code	16
 1597              		.thumb_func
 1598              		.fpu softvfp
 1600              	rtc1_start:
 1601              		@ args = 0, pretend = 0, frame = 8
 1602              		@ frame_needed = 1, uses_anonymous_args = 0
 1603 0000 80B5     		push	{r7, lr}
 1604 0002 82B0     		sub	sp, sp, #8
 1605 0004 00AF     		add	r7, sp, #0
 1606 0006 1749     		ldr	r1, .L86
 1607 0008 D123     		movs	r3, #209
 1608 000a 9B00     		lsls	r3, r3, #2
 1609 000c 8022     		movs	r2, #128
 1610 000e 5202     		lsls	r2, r2, #9
 1611 0010 CA50     		str	r2, [r1, r3]
 1612 0012 1449     		ldr	r1, .L86
 1613 0014 C123     		movs	r3, #193
 1614 0016 9B00     		lsls	r3, r3, #2
 1615 0018 8022     		movs	r2, #128
 1616 001a 5202     		lsls	r2, r2, #9
 1617 001c CA50     		str	r2, [r1, r3]
 1618 001e 1120     		movs	r0, #17
 1619 0020 FFF7FEFF 		bl	NVIC_ClearPendingIRQ
 1620 0024 1120     		movs	r0, #17
 1621 0026 FFF7FEFF 		bl	NVIC_EnableIRQ
 1622 002a 0E4B     		ldr	r3, .L86
ARM GAS  C:\Users\SONG_J~1\AppData\Local\Temp\ccI21FnK.s 			page 27


 1623 002c 0122     		movs	r2, #1
 1624 002e 1A60     		str	r2, [r3]
 1625 0030 2F23     		movs	r3, #47
 1626 0032 7B60     		str	r3, [r7, #4]
 1627 0034 7B68     		ldr	r3, [r7, #4]
 1628 0036 1800     		movs	r0, r3
 1629              		.syntax divided
 1630              	@ 166 "../components/drivers_nrf/delay/nrf_delay.h" 1
 1631              		.syntax unified
 1632              	1:
 1633 0038 0138     	 SUBS r0, r0, #1
 1634 003a C046     	 NOP
 1635 003c C046     	 NOP
 1636 003e C046     	 NOP
 1637 0040 C046     	 NOP
 1638 0042 C046     	 NOP
 1639 0044 C046     	 NOP
 1640 0046 C046     	 NOP
 1641 0048 C046     	 NOP
 1642 004a C046     	 NOP
 1643 004c C046     	 NOP
 1644 004e C046     	 NOP
 1645 0050 C046     	 NOP
 1646 0052 F1D1     	 BNE 1b
 1647              	.syntax divided
 1648              	
 1649              	@ 0 "" 2
 1650              		.thumb
 1651              		.syntax unified
 1652 0054 044B     		ldr	r3, .L86+4
 1653 0056 0122     		movs	r2, #1
 1654 0058 1A70     		strb	r2, [r3]
 1655 005a C046     		nop
 1656 005c BD46     		mov	sp, r7
 1657 005e 02B0     		add	sp, sp, #8
 1658              		@ sp needed
 1659 0060 80BD     		pop	{r7, pc}
 1660              	.L87:
 1661 0062 C046     		.align	2
 1662              	.L86:
 1663 0064 00100140 		.word	1073811456
 1664 0068 00000000 		.word	m_rtc1_running
 1666              		.section	.text.rtc1_stop,"ax",%progbits
 1667              		.align	1
 1668              		.syntax unified
 1669              		.code	16
 1670              		.thumb_func
 1671              		.fpu softvfp
 1673              	rtc1_stop:
 1674              		@ args = 0, pretend = 0, frame = 8
 1675              		@ frame_needed = 1, uses_anonymous_args = 0
 1676 0000 80B5     		push	{r7, lr}
 1677 0002 82B0     		sub	sp, sp, #8
 1678 0004 00AF     		add	r7, sp, #0
 1679 0006 1120     		movs	r0, #17
 1680 0008 FFF7FEFF 		bl	NVIC_DisableIRQ
 1681 000c 1F49     		ldr	r1, .L89
ARM GAS  C:\Users\SONG_J~1\AppData\Local\Temp\ccI21FnK.s 			page 28


 1682 000e D223     		movs	r3, #210
 1683 0010 9B00     		lsls	r3, r3, #2
 1684 0012 8022     		movs	r2, #128
 1685 0014 5202     		lsls	r2, r2, #9
 1686 0016 CA50     		str	r2, [r1, r3]
 1687 0018 1C49     		ldr	r1, .L89
 1688 001a C223     		movs	r3, #194
 1689 001c 9B00     		lsls	r3, r3, #2
 1690 001e 8022     		movs	r2, #128
 1691 0020 5202     		lsls	r2, r2, #9
 1692 0022 CA50     		str	r2, [r1, r3]
 1693 0024 194B     		ldr	r3, .L89
 1694 0026 0122     		movs	r2, #1
 1695 0028 5A60     		str	r2, [r3, #4]
 1696 002a 2F23     		movs	r3, #47
 1697 002c 7B60     		str	r3, [r7, #4]
 1698 002e 7B68     		ldr	r3, [r7, #4]
 1699 0030 1800     		movs	r0, r3
 1700              		.syntax divided
 1701              	@ 166 "../components/drivers_nrf/delay/nrf_delay.h" 1
 1702              		.syntax unified
 1703              	1:
 1704 0032 0138     	 SUBS r0, r0, #1
 1705 0034 C046     	 NOP
 1706 0036 C046     	 NOP
 1707 0038 C046     	 NOP
 1708 003a C046     	 NOP
 1709 003c C046     	 NOP
 1710 003e C046     	 NOP
 1711 0040 C046     	 NOP
 1712 0042 C046     	 NOP
 1713 0044 C046     	 NOP
 1714 0046 C046     	 NOP
 1715 0048 C046     	 NOP
 1716 004a C046     	 NOP
 1717 004c F1D1     	 BNE 1b
 1718              	.syntax divided
 1719              	
 1720              	@ 0 "" 2
 1721              		.thumb
 1722              		.syntax unified
 1723 004e 0F4B     		ldr	r3, .L89
 1724 0050 0122     		movs	r2, #1
 1725 0052 9A60     		str	r2, [r3, #8]
 1726 0054 0E4B     		ldr	r3, .L89+4
 1727 0056 0022     		movs	r2, #0
 1728 0058 1A60     		str	r2, [r3]
 1729 005a 2F23     		movs	r3, #47
 1730 005c 3B60     		str	r3, [r7]
 1731 005e 3B68     		ldr	r3, [r7]
 1732 0060 1800     		movs	r0, r3
 1733              		.syntax divided
 1734              	@ 166 "../components/drivers_nrf/delay/nrf_delay.h" 1
 1735              		.syntax unified
 1736              	1:
 1737 0062 0138     	 SUBS r0, r0, #1
 1738 0064 C046     	 NOP
ARM GAS  C:\Users\SONG_J~1\AppData\Local\Temp\ccI21FnK.s 			page 29


 1739 0066 C046     	 NOP
 1740 0068 C046     	 NOP
 1741 006a C046     	 NOP
 1742 006c C046     	 NOP
 1743 006e C046     	 NOP
 1744 0070 C046     	 NOP
 1745 0072 C046     	 NOP
 1746 0074 C046     	 NOP
 1747 0076 C046     	 NOP
 1748 0078 C046     	 NOP
 1749 007a C046     	 NOP
 1750 007c F1D1     	 BNE 1b
 1751              	.syntax divided
 1752              	
 1753              	@ 0 "" 2
 1754              		.thumb
 1755              		.syntax unified
 1756 007e 054B     		ldr	r3, .L89+8
 1757 0080 0022     		movs	r2, #0
 1758 0082 1A70     		strb	r2, [r3]
 1759 0084 C046     		nop
 1760 0086 BD46     		mov	sp, r7
 1761 0088 02B0     		add	sp, sp, #8
 1762              		@ sp needed
 1763 008a 80BD     		pop	{r7, pc}
 1764              	.L90:
 1765              		.align	2
 1766              	.L89:
 1767 008c 00100140 		.word	1073811456
 1768 0090 00000000 		.word	m_ticks_latest
 1769 0094 00000000 		.word	m_rtc1_running
 1771              		.section	.text.rtc1_counter_get,"ax",%progbits
 1772              		.align	1
 1773              		.syntax unified
 1774              		.code	16
 1775              		.thumb_func
 1776              		.fpu softvfp
 1778              	rtc1_counter_get:
 1779              		@ args = 0, pretend = 0, frame = 0
 1780              		@ frame_needed = 1, uses_anonymous_args = 0
 1781 0000 80B5     		push	{r7, lr}
 1782 0002 00AF     		add	r7, sp, #0
 1783 0004 024A     		ldr	r2, .L93
 1784 0006 034B     		ldr	r3, .L93+4
 1785 0008 D358     		ldr	r3, [r2, r3]
 1786 000a 1800     		movs	r0, r3
 1787 000c BD46     		mov	sp, r7
 1788              		@ sp needed
 1789 000e 80BD     		pop	{r7, pc}
 1790              	.L94:
 1791              		.align	2
 1792              	.L93:
 1793 0010 00100140 		.word	1073811456
 1794 0014 04050000 		.word	1284
 1796              		.section	.text.ticks_diff_get,"ax",%progbits
 1797              		.align	1
 1798              		.syntax unified
ARM GAS  C:\Users\SONG_J~1\AppData\Local\Temp\ccI21FnK.s 			page 30


 1799              		.code	16
 1800              		.thumb_func
 1801              		.fpu softvfp
 1803              	ticks_diff_get:
 1804              		@ args = 0, pretend = 0, frame = 8
 1805              		@ frame_needed = 1, uses_anonymous_args = 0
 1806 0000 80B5     		push	{r7, lr}
 1807 0002 82B0     		sub	sp, sp, #8
 1808 0004 00AF     		add	r7, sp, #0
 1809 0006 7860     		str	r0, [r7, #4]
 1810 0008 3960     		str	r1, [r7]
 1811 000a 7A68     		ldr	r2, [r7, #4]
 1812 000c 3B68     		ldr	r3, [r7]
 1813 000e D31A     		subs	r3, r2, r3
 1814 0010 1B02     		lsls	r3, r3, #8
 1815 0012 1B0A     		lsrs	r3, r3, #8
 1816 0014 1800     		movs	r0, r3
 1817 0016 BD46     		mov	sp, r7
 1818 0018 02B0     		add	sp, sp, #8
 1819              		@ sp needed
 1820 001a 80BD     		pop	{r7, pc}
 1822              		.section	.text.rtc1_compare0_set,"ax",%progbits
 1823              		.align	1
 1824              		.syntax unified
 1825              		.code	16
 1826              		.thumb_func
 1827              		.fpu softvfp
 1829              	rtc1_compare0_set:
 1830              		@ args = 0, pretend = 0, frame = 8
 1831              		@ frame_needed = 1, uses_anonymous_args = 0
 1832 0000 80B5     		push	{r7, lr}
 1833 0002 82B0     		sub	sp, sp, #8
 1834 0004 00AF     		add	r7, sp, #0
 1835 0006 7860     		str	r0, [r7, #4]
 1836 0008 0449     		ldr	r1, .L98
 1837 000a A823     		movs	r3, #168
 1838 000c DB00     		lsls	r3, r3, #3
 1839 000e 7A68     		ldr	r2, [r7, #4]
 1840 0010 CA50     		str	r2, [r1, r3]
 1841 0012 C046     		nop
 1842 0014 BD46     		mov	sp, r7
 1843 0016 02B0     		add	sp, sp, #8
 1844              		@ sp needed
 1845 0018 80BD     		pop	{r7, pc}
 1846              	.L99:
 1847 001a C046     		.align	2
 1848              	.L98:
 1849 001c 00100140 		.word	1073811456
 1851              		.section	.text.timer_list_insert,"ax",%progbits
 1852              		.align	1
 1853              		.syntax unified
 1854              		.code	16
 1855              		.thumb_func
 1856              		.fpu softvfp
 1858              	timer_list_insert:
 1859              		@ args = 0, pretend = 0, frame = 24
 1860              		@ frame_needed = 1, uses_anonymous_args = 0
ARM GAS  C:\Users\SONG_J~1\AppData\Local\Temp\ccI21FnK.s 			page 31


 1861 0000 80B5     		push	{r7, lr}
 1862 0002 86B0     		sub	sp, sp, #24
 1863 0004 00AF     		add	r7, sp, #0
 1864 0006 7860     		str	r0, [r7, #4]
 1865 0008 284B     		ldr	r3, .L109
 1866 000a 1B68     		ldr	r3, [r3]
 1867 000c 002B     		cmp	r3, #0
 1868 000e 03D1     		bne	.L101
 1869 0010 264B     		ldr	r3, .L109
 1870 0012 7A68     		ldr	r2, [r7, #4]
 1871 0014 1A60     		str	r2, [r3]
 1872 0016 45E0     		b	.L108
 1873              	.L101:
 1874 0018 7B68     		ldr	r3, [r7, #4]
 1875 001a 1A68     		ldr	r2, [r3]
 1876 001c 234B     		ldr	r3, .L109
 1877 001e 1B68     		ldr	r3, [r3]
 1878 0020 1B68     		ldr	r3, [r3]
 1879 0022 9A42     		cmp	r2, r3
 1880 0024 10D8     		bhi	.L103
 1881 0026 214B     		ldr	r3, .L109
 1882 0028 1B68     		ldr	r3, [r3]
 1883 002a 1968     		ldr	r1, [r3]
 1884 002c 7B68     		ldr	r3, [r7, #4]
 1885 002e 1A68     		ldr	r2, [r3]
 1886 0030 1E4B     		ldr	r3, .L109
 1887 0032 1B68     		ldr	r3, [r3]
 1888 0034 8A1A     		subs	r2, r1, r2
 1889 0036 1A60     		str	r2, [r3]
 1890 0038 1C4B     		ldr	r3, .L109
 1891 003a 1A68     		ldr	r2, [r3]
 1892 003c 7B68     		ldr	r3, [r7, #4]
 1893 003e DA61     		str	r2, [r3, #28]
 1894 0040 1A4B     		ldr	r3, .L109
 1895 0042 7A68     		ldr	r2, [r7, #4]
 1896 0044 1A60     		str	r2, [r3]
 1897 0046 2DE0     		b	.L108
 1898              	.L103:
 1899 0048 7B68     		ldr	r3, [r7, #4]
 1900 004a 1B68     		ldr	r3, [r3]
 1901 004c FB60     		str	r3, [r7, #12]
 1902 004e 174B     		ldr	r3, .L109
 1903 0050 1B68     		ldr	r3, [r3]
 1904 0052 7B61     		str	r3, [r7, #20]
 1905 0054 154B     		ldr	r3, .L109
 1906 0056 1B68     		ldr	r3, [r3]
 1907 0058 3B61     		str	r3, [r7, #16]
 1908 005a 09E0     		b	.L104
 1909              	.L106:
 1910 005c 3B69     		ldr	r3, [r7, #16]
 1911 005e 1B68     		ldr	r3, [r3]
 1912 0060 FA68     		ldr	r2, [r7, #12]
 1913 0062 D31A     		subs	r3, r2, r3
 1914 0064 FB60     		str	r3, [r7, #12]
 1915 0066 3B69     		ldr	r3, [r7, #16]
 1916 0068 7B61     		str	r3, [r7, #20]
 1917 006a 3B69     		ldr	r3, [r7, #16]
ARM GAS  C:\Users\SONG_J~1\AppData\Local\Temp\ccI21FnK.s 			page 32


 1918 006c DB69     		ldr	r3, [r3, #28]
 1919 006e 3B61     		str	r3, [r7, #16]
 1920              	.L104:
 1921 0070 3B69     		ldr	r3, [r7, #16]
 1922 0072 002B     		cmp	r3, #0
 1923 0074 04D0     		beq	.L105
 1924 0076 3B69     		ldr	r3, [r7, #16]
 1925 0078 1B68     		ldr	r3, [r3]
 1926 007a FA68     		ldr	r2, [r7, #12]
 1927 007c 9A42     		cmp	r2, r3
 1928 007e EDD8     		bhi	.L106
 1929              	.L105:
 1930 0080 3B69     		ldr	r3, [r7, #16]
 1931 0082 002B     		cmp	r3, #0
 1932 0084 05D0     		beq	.L107
 1933 0086 3B69     		ldr	r3, [r7, #16]
 1934 0088 1A68     		ldr	r2, [r3]
 1935 008a FB68     		ldr	r3, [r7, #12]
 1936 008c D21A     		subs	r2, r2, r3
 1937 008e 3B69     		ldr	r3, [r7, #16]
 1938 0090 1A60     		str	r2, [r3]
 1939              	.L107:
 1940 0092 7B68     		ldr	r3, [r7, #4]
 1941 0094 FA68     		ldr	r2, [r7, #12]
 1942 0096 1A60     		str	r2, [r3]
 1943 0098 7B68     		ldr	r3, [r7, #4]
 1944 009a 3A69     		ldr	r2, [r7, #16]
 1945 009c DA61     		str	r2, [r3, #28]
 1946 009e 7B69     		ldr	r3, [r7, #20]
 1947 00a0 7A68     		ldr	r2, [r7, #4]
 1948 00a2 DA61     		str	r2, [r3, #28]
 1949              	.L108:
 1950 00a4 C046     		nop
 1951 00a6 BD46     		mov	sp, r7
 1952 00a8 06B0     		add	sp, sp, #24
 1953              		@ sp needed
 1954 00aa 80BD     		pop	{r7, pc}
 1955              	.L110:
 1956              		.align	2
 1957              	.L109:
 1958 00ac 00000000 		.word	mp_timer_id_head
 1960              		.section	.text.timer_list_remove,"ax",%progbits
 1961              		.align	1
 1962              		.syntax unified
 1963              		.code	16
 1964              		.thumb_func
 1965              		.fpu softvfp
 1967              	timer_list_remove:
 1968              		@ args = 0, pretend = 0, frame = 24
 1969              		@ frame_needed = 1, uses_anonymous_args = 0
 1970 0000 80B5     		push	{r7, lr}
 1971 0002 86B0     		sub	sp, sp, #24
 1972 0004 00AF     		add	r7, sp, #0
 1973 0006 7860     		str	r0, [r7, #4]
 1974 0008 224B     		ldr	r3, .L121
 1975 000a 1B68     		ldr	r3, [r3]
 1976 000c 7B61     		str	r3, [r7, #20]
ARM GAS  C:\Users\SONG_J~1\AppData\Local\Temp\ccI21FnK.s 			page 33


 1977 000e 7B69     		ldr	r3, [r7, #20]
 1978 0010 3B61     		str	r3, [r7, #16]
 1979 0012 08E0     		b	.L112
 1980              	.L115:
 1981 0014 3A69     		ldr	r2, [r7, #16]
 1982 0016 7B68     		ldr	r3, [r7, #4]
 1983 0018 9A42     		cmp	r2, r3
 1984 001a 08D0     		beq	.L119
 1985 001c 3B69     		ldr	r3, [r7, #16]
 1986 001e 7B61     		str	r3, [r7, #20]
 1987 0020 3B69     		ldr	r3, [r7, #16]
 1988 0022 DB69     		ldr	r3, [r3, #28]
 1989 0024 3B61     		str	r3, [r7, #16]
 1990              	.L112:
 1991 0026 3B69     		ldr	r3, [r7, #16]
 1992 0028 002B     		cmp	r3, #0
 1993 002a F3D1     		bne	.L115
 1994 002c 00E0     		b	.L114
 1995              	.L119:
 1996 002e C046     		nop
 1997              	.L114:
 1998 0030 3B69     		ldr	r3, [r7, #16]
 1999 0032 002B     		cmp	r3, #0
 2000 0034 29D0     		beq	.L120
 2001 0036 7A69     		ldr	r2, [r7, #20]
 2002 0038 3B69     		ldr	r3, [r7, #16]
 2003 003a 9A42     		cmp	r2, r3
 2004 003c 11D1     		bne	.L118
 2005 003e 154B     		ldr	r3, .L121
 2006 0040 1B68     		ldr	r3, [r3]
 2007 0042 DA69     		ldr	r2, [r3, #28]
 2008 0044 134B     		ldr	r3, .L121
 2009 0046 1A60     		str	r2, [r3]
 2010 0048 124B     		ldr	r3, .L121
 2011 004a 1B68     		ldr	r3, [r3]
 2012 004c 002B     		cmp	r3, #0
 2013 004e 08D1     		bne	.L118
 2014 0050 114B     		ldr	r3, .L121+4
 2015 0052 0122     		movs	r2, #1
 2016 0054 9A60     		str	r2, [r3, #8]
 2017 0056 114B     		ldr	r3, .L121+8
 2018 0058 0022     		movs	r2, #0
 2019 005a 1A60     		str	r2, [r3]
 2020 005c 104B     		ldr	r3, .L121+12
 2021 005e 0122     		movs	r2, #1
 2022 0060 1A70     		strb	r2, [r3]
 2023              	.L118:
 2024 0062 3B69     		ldr	r3, [r7, #16]
 2025 0064 1B68     		ldr	r3, [r3]
 2026 0066 FB60     		str	r3, [r7, #12]
 2027 0068 3B69     		ldr	r3, [r7, #16]
 2028 006a DA69     		ldr	r2, [r3, #28]
 2029 006c 7B69     		ldr	r3, [r7, #20]
 2030 006e DA61     		str	r2, [r3, #28]
 2031 0070 7B69     		ldr	r3, [r7, #20]
 2032 0072 DB69     		ldr	r3, [r3, #28]
 2033 0074 3B61     		str	r3, [r7, #16]
ARM GAS  C:\Users\SONG_J~1\AppData\Local\Temp\ccI21FnK.s 			page 34


 2034 0076 3B69     		ldr	r3, [r7, #16]
 2035 0078 002B     		cmp	r3, #0
 2036 007a 07D0     		beq	.L111
 2037 007c 3B69     		ldr	r3, [r7, #16]
 2038 007e 1A68     		ldr	r2, [r3]
 2039 0080 FB68     		ldr	r3, [r7, #12]
 2040 0082 D218     		adds	r2, r2, r3
 2041 0084 3B69     		ldr	r3, [r7, #16]
 2042 0086 1A60     		str	r2, [r3]
 2043 0088 00E0     		b	.L111
 2044              	.L120:
 2045 008a C046     		nop
 2046              	.L111:
 2047 008c BD46     		mov	sp, r7
 2048 008e 06B0     		add	sp, sp, #24
 2049              		@ sp needed
 2050 0090 80BD     		pop	{r7, pc}
 2051              	.L122:
 2052 0092 C046     		.align	2
 2053              	.L121:
 2054 0094 00000000 		.word	mp_timer_id_head
 2055 0098 00100140 		.word	1073811456
 2056 009c 00000000 		.word	m_ticks_latest
 2057 00a0 00000000 		.word	m_rtc1_reset
 2059              		.section	.text.timer_timeouts_check_sched,"ax",%progbits
 2060              		.align	1
 2061              		.syntax unified
 2062              		.code	16
 2063              		.thumb_func
 2064              		.fpu softvfp
 2066              	timer_timeouts_check_sched:
 2067              		@ args = 0, pretend = 0, frame = 0
 2068              		@ frame_needed = 1, uses_anonymous_args = 0
 2069 0000 80B5     		push	{r7, lr}
 2070 0002 00AF     		add	r7, sp, #0
 2071 0004 1120     		movs	r0, #17
 2072 0006 FFF7FEFF 		bl	NVIC_SetPendingIRQ
 2073 000a C046     		nop
 2074 000c BD46     		mov	sp, r7
 2075              		@ sp needed
 2076 000e 80BD     		pop	{r7, pc}
 2078              		.section	.text.timer_list_handler_sched,"ax",%progbits
 2079              		.align	1
 2080              		.syntax unified
 2081              		.code	16
 2082              		.thumb_func
 2083              		.fpu softvfp
 2085              	timer_list_handler_sched:
 2086              		@ args = 0, pretend = 0, frame = 0
 2087              		@ frame_needed = 1, uses_anonymous_args = 0
 2088 0000 80B5     		push	{r7, lr}
 2089 0002 00AF     		add	r7, sp, #0
 2090 0004 1420     		movs	r0, #20
 2091 0006 FFF7FEFF 		bl	NVIC_SetPendingIRQ
 2092 000a C046     		nop
 2093 000c BD46     		mov	sp, r7
 2094              		@ sp needed
ARM GAS  C:\Users\SONG_J~1\AppData\Local\Temp\ccI21FnK.s 			page 35


 2095 000e 80BD     		pop	{r7, pc}
 2097              		.section	.text.timeout_handler_exec,"ax",%progbits
 2098              		.align	1
 2099              		.syntax unified
 2100              		.code	16
 2101              		.thumb_func
 2102              		.fpu softvfp
 2104              	timeout_handler_exec:
 2105              		@ args = 0, pretend = 0, frame = 16
 2106              		@ frame_needed = 1, uses_anonymous_args = 0
 2107 0000 80B5     		push	{r7, lr}
 2108 0002 84B0     		sub	sp, sp, #16
 2109 0004 00AF     		add	r7, sp, #0
 2110 0006 7860     		str	r0, [r7, #4]
 2111 0008 114B     		ldr	r3, .L130
 2112 000a 1B68     		ldr	r3, [r3]
 2113 000c 002B     		cmp	r3, #0
 2114 000e 15D0     		beq	.L126
 2115 0010 0F4B     		ldr	r3, .L130
 2116 0012 1A68     		ldr	r2, [r3]
 2117 0014 7B68     		ldr	r3, [r7, #4]
 2118 0016 5869     		ldr	r0, [r3, #20]
 2119 0018 7B68     		ldr	r3, [r7, #4]
 2120 001a 9B69     		ldr	r3, [r3, #24]
 2121 001c 1900     		movs	r1, r3
 2122 001e 9047     		blx	r2
 2123 0020 0300     		movs	r3, r0
 2124 0022 FB60     		str	r3, [r7, #12]
 2125 0024 FB68     		ldr	r3, [r7, #12]
 2126 0026 BB60     		str	r3, [r7, #8]
 2127 0028 BB68     		ldr	r3, [r7, #8]
 2128 002a 002B     		cmp	r3, #0
 2129 002c 0CD0     		beq	.L129
 2130 002e BB68     		ldr	r3, [r7, #8]
 2131 0030 0022     		movs	r2, #0
 2132 0032 0021     		movs	r1, #0
 2133 0034 1800     		movs	r0, r3
 2134 0036 FFF7FEFF 		bl	app_error_handler
 2135 003a 05E0     		b	.L129
 2136              	.L126:
 2137 003c 7B68     		ldr	r3, [r7, #4]
 2138 003e 5A69     		ldr	r2, [r3, #20]
 2139 0040 7B68     		ldr	r3, [r7, #4]
 2140 0042 9B69     		ldr	r3, [r3, #24]
 2141 0044 1800     		movs	r0, r3
 2142 0046 9047     		blx	r2
 2143              	.L129:
 2144 0048 C046     		nop
 2145 004a BD46     		mov	sp, r7
 2146 004c 04B0     		add	sp, sp, #16
 2147              		@ sp needed
 2148 004e 80BD     		pop	{r7, pc}
 2149              	.L131:
 2150              		.align	2
 2151              	.L130:
 2152 0050 00000000 		.word	m_evt_schedule_func
 2154              		.section	.text.timer_timeouts_check,"ax",%progbits
ARM GAS  C:\Users\SONG_J~1\AppData\Local\Temp\ccI21FnK.s 			page 36


 2155              		.align	1
 2156              		.syntax unified
 2157              		.code	16
 2158              		.thumb_func
 2159              		.fpu softvfp
 2161              	timer_timeouts_check:
 2162              		@ args = 0, pretend = 0, frame = 16
 2163              		@ frame_needed = 1, uses_anonymous_args = 0
 2164 0000 80B5     		push	{r7, lr}
 2165 0002 84B0     		sub	sp, sp, #16
 2166 0004 00AF     		add	r7, sp, #0
 2167 0006 2C4B     		ldr	r3, .L141
 2168 0008 1B68     		ldr	r3, [r3]
 2169 000a 002B     		cmp	r3, #0
 2170 000c 50D0     		beq	.L139
 2171 000e 0023     		movs	r3, #0
 2172 0010 7B60     		str	r3, [r7, #4]
 2173 0012 FFF7FEFF 		bl	rtc1_counter_get
 2174 0016 0200     		movs	r2, r0
 2175 0018 284B     		ldr	r3, .L141+4
 2176 001a 1B68     		ldr	r3, [r3]
 2177 001c 1900     		movs	r1, r3
 2178 001e 1000     		movs	r0, r2
 2179 0020 FFF7FEFF 		bl	ticks_diff_get
 2180 0024 0300     		movs	r3, r0
 2181 0026 BB60     		str	r3, [r7, #8]
 2182 0028 234B     		ldr	r3, .L141
 2183 002a 1B68     		ldr	r3, [r3]
 2184 002c FB60     		str	r3, [r7, #12]
 2185 002e 1EE0     		b	.L134
 2186              	.L137:
 2187 0030 FB68     		ldr	r3, [r7, #12]
 2188 0032 1B68     		ldr	r3, [r3]
 2189 0034 BA68     		ldr	r2, [r7, #8]
 2190 0036 9A42     		cmp	r2, r3
 2191 0038 1DD3     		bcc	.L140
 2192 003a FB68     		ldr	r3, [r7, #12]
 2193 003c 1B68     		ldr	r3, [r3]
 2194 003e BA68     		ldr	r2, [r7, #8]
 2195 0040 D31A     		subs	r3, r2, r3
 2196 0042 BB60     		str	r3, [r7, #8]
 2197 0044 FB68     		ldr	r3, [r7, #12]
 2198 0046 1B68     		ldr	r3, [r3]
 2199 0048 7A68     		ldr	r2, [r7, #4]
 2200 004a D318     		adds	r3, r2, r3
 2201 004c 7B60     		str	r3, [r7, #4]
 2202 004e FB68     		ldr	r3, [r7, #12]
 2203 0050 3B60     		str	r3, [r7]
 2204 0052 FB68     		ldr	r3, [r7, #12]
 2205 0054 DB69     		ldr	r3, [r3, #28]
 2206 0056 FB60     		str	r3, [r7, #12]
 2207 0058 3B68     		ldr	r3, [r7]
 2208 005a 1B7C     		ldrb	r3, [r3, #16]
 2209 005c 002B     		cmp	r3, #0
 2210 005e 06D0     		beq	.L134
 2211 0060 3B68     		ldr	r3, [r7]
 2212 0062 0022     		movs	r2, #0
ARM GAS  C:\Users\SONG_J~1\AppData\Local\Temp\ccI21FnK.s 			page 37


 2213 0064 1A74     		strb	r2, [r3, #16]
 2214 0066 3B68     		ldr	r3, [r7]
 2215 0068 1800     		movs	r0, r3
 2216 006a FFF7FEFF 		bl	timeout_handler_exec
 2217              	.L134:
 2218 006e FB68     		ldr	r3, [r7, #12]
 2219 0070 002B     		cmp	r3, #0
 2220 0072 DDD1     		bne	.L137
 2221 0074 00E0     		b	.L136
 2222              	.L140:
 2223 0076 C046     		nop
 2224              	.L136:
 2225 0078 114B     		ldr	r3, .L141+8
 2226 007a 1A78     		ldrb	r2, [r3]
 2227 007c 114B     		ldr	r3, .L141+12
 2228 007e 1B78     		ldrb	r3, [r3]
 2229 0080 9A42     		cmp	r2, r3
 2230 0082 0CD1     		bne	.L138
 2231 0084 0F4B     		ldr	r3, .L141+12
 2232 0086 1B78     		ldrb	r3, [r3]
 2233 0088 0133     		adds	r3, r3, #1
 2234 008a DAB2     		uxtb	r2, r3
 2235 008c 0D4B     		ldr	r3, .L141+12
 2236 008e 1A70     		strb	r2, [r3]
 2237 0090 0C4B     		ldr	r3, .L141+12
 2238 0092 1B78     		ldrb	r3, [r3]
 2239 0094 022B     		cmp	r3, #2
 2240 0096 02D1     		bne	.L138
 2241 0098 0A4B     		ldr	r3, .L141+12
 2242 009a 0022     		movs	r2, #0
 2243 009c 1A70     		strb	r2, [r3]
 2244              	.L138:
 2245 009e 094B     		ldr	r3, .L141+12
 2246 00a0 1B78     		ldrb	r3, [r3]
 2247 00a2 1A00     		movs	r2, r3
 2248 00a4 084B     		ldr	r3, .L141+16
 2249 00a6 9200     		lsls	r2, r2, #2
 2250 00a8 7968     		ldr	r1, [r7, #4]
 2251 00aa D150     		str	r1, [r2, r3]
 2252 00ac FFF7FEFF 		bl	timer_list_handler_sched
 2253              	.L139:
 2254 00b0 C046     		nop
 2255 00b2 BD46     		mov	sp, r7
 2256 00b4 04B0     		add	sp, sp, #16
 2257              		@ sp needed
 2258 00b6 80BD     		pop	{r7, pc}
 2259              	.L142:
 2260              		.align	2
 2261              	.L141:
 2262 00b8 00000000 		.word	mp_timer_id_head
 2263 00bc 00000000 		.word	m_ticks_latest
 2264 00c0 00000000 		.word	m_ticks_elapsed_q_read_ind
 2265 00c4 00000000 		.word	m_ticks_elapsed_q_write_ind
 2266 00c8 00000000 		.word	m_ticks_elapsed
 2268              		.section	.text.elapsed_ticks_acquire,"ax",%progbits
 2269              		.align	1
 2270              		.syntax unified
ARM GAS  C:\Users\SONG_J~1\AppData\Local\Temp\ccI21FnK.s 			page 38


 2271              		.code	16
 2272              		.thumb_func
 2273              		.fpu softvfp
 2275              	elapsed_ticks_acquire:
 2276              		@ args = 0, pretend = 0, frame = 8
 2277              		@ frame_needed = 1, uses_anonymous_args = 0
 2278 0000 80B5     		push	{r7, lr}
 2279 0002 82B0     		sub	sp, sp, #8
 2280 0004 00AF     		add	r7, sp, #0
 2281 0006 7860     		str	r0, [r7, #4]
 2282 0008 184B     		ldr	r3, .L147
 2283 000a 1A78     		ldrb	r2, [r3]
 2284 000c 184B     		ldr	r3, .L147+4
 2285 000e 1B78     		ldrb	r3, [r3]
 2286 0010 9A42     		cmp	r2, r3
 2287 0012 23D0     		beq	.L144
 2288 0014 154B     		ldr	r3, .L147
 2289 0016 1B78     		ldrb	r3, [r3]
 2290 0018 0133     		adds	r3, r3, #1
 2291 001a DAB2     		uxtb	r2, r3
 2292 001c 134B     		ldr	r3, .L147
 2293 001e 1A70     		strb	r2, [r3]
 2294 0020 124B     		ldr	r3, .L147
 2295 0022 1B78     		ldrb	r3, [r3]
 2296 0024 022B     		cmp	r3, #2
 2297 0026 02D1     		bne	.L145
 2298 0028 104B     		ldr	r3, .L147
 2299 002a 0022     		movs	r2, #0
 2300 002c 1A70     		strb	r2, [r3]
 2301              	.L145:
 2302 002e 0F4B     		ldr	r3, .L147
 2303 0030 1B78     		ldrb	r3, [r3]
 2304 0032 1A00     		movs	r2, r3
 2305 0034 0F4B     		ldr	r3, .L147+8
 2306 0036 9200     		lsls	r2, r2, #2
 2307 0038 D258     		ldr	r2, [r2, r3]
 2308 003a 7B68     		ldr	r3, [r7, #4]
 2309 003c 1A60     		str	r2, [r3]
 2310 003e 7B68     		ldr	r3, [r7, #4]
 2311 0040 1A68     		ldr	r2, [r3]
 2312 0042 0D4B     		ldr	r3, .L147+12
 2313 0044 1B68     		ldr	r3, [r3]
 2314 0046 D218     		adds	r2, r2, r3
 2315 0048 0B4B     		ldr	r3, .L147+12
 2316 004a 1A60     		str	r2, [r3]
 2317 004c 0A4B     		ldr	r3, .L147+12
 2318 004e 1B68     		ldr	r3, [r3]
 2319 0050 1B02     		lsls	r3, r3, #8
 2320 0052 1A0A     		lsrs	r2, r3, #8
 2321 0054 084B     		ldr	r3, .L147+12
 2322 0056 1A60     		str	r2, [r3]
 2323 0058 0123     		movs	r3, #1
 2324 005a 03E0     		b	.L146
 2325              	.L144:
 2326 005c 7B68     		ldr	r3, [r7, #4]
 2327 005e 0022     		movs	r2, #0
 2328 0060 1A60     		str	r2, [r3]
ARM GAS  C:\Users\SONG_J~1\AppData\Local\Temp\ccI21FnK.s 			page 39


 2329 0062 0023     		movs	r3, #0
 2330              	.L146:
 2331 0064 1800     		movs	r0, r3
 2332 0066 BD46     		mov	sp, r7
 2333 0068 02B0     		add	sp, sp, #8
 2334              		@ sp needed
 2335 006a 80BD     		pop	{r7, pc}
 2336              	.L148:
 2337              		.align	2
 2338              	.L147:
 2339 006c 00000000 		.word	m_ticks_elapsed_q_read_ind
 2340 0070 00000000 		.word	m_ticks_elapsed_q_write_ind
 2341 0074 00000000 		.word	m_ticks_elapsed
 2342 0078 00000000 		.word	m_ticks_latest
 2344              		.section	.text.list_deletions_handler,"ax",%progbits
 2345              		.align	1
 2346              		.syntax unified
 2347              		.code	16
 2348              		.thumb_func
 2349              		.fpu softvfp
 2351              	list_deletions_handler:
 2352              		@ args = 0, pretend = 0, frame = 24
 2353              		@ frame_needed = 1, uses_anonymous_args = 0
 2354 0000 80B5     		push	{r7, lr}
 2355 0002 86B0     		sub	sp, sp, #24
 2356 0004 00AF     		add	r7, sp, #0
 2357 0006 344B     		ldr	r3, .L162
 2358 0008 1B68     		ldr	r3, [r3]
 2359 000a 3B61     		str	r3, [r7, #16]
 2360 000c 1723     		movs	r3, #23
 2361 000e FB18     		adds	r3, r7, r3
 2362 0010 324A     		ldr	r2, .L162+4
 2363 0012 1278     		ldrb	r2, [r2]
 2364 0014 1A70     		strb	r2, [r3]
 2365 0016 4BE0     		b	.L150
 2366              	.L159:
 2367 0018 314B     		ldr	r3, .L162+8
 2368 001a 1A68     		ldr	r2, [r3]
 2369 001c 1723     		movs	r3, #23
 2370 001e FB18     		adds	r3, r7, r3
 2371 0020 1B78     		ldrb	r3, [r3]
 2372 0022 DB00     		lsls	r3, r3, #3
 2373 0024 D318     		adds	r3, r2, r3
 2374 0026 FB60     		str	r3, [r7, #12]
 2375 0028 1623     		movs	r3, #22
 2376 002a FB18     		adds	r3, r7, r3
 2377 002c FA68     		ldr	r2, [r7, #12]
 2378 002e 1278     		ldrb	r2, [r2]
 2379 0030 1A70     		strb	r2, [r3]
 2380 0032 36E0     		b	.L151
 2381              	.L158:
 2382 0034 FB68     		ldr	r3, [r7, #12]
 2383 0036 5968     		ldr	r1, [r3, #4]
 2384 0038 1620     		movs	r0, #22
 2385 003a 3B18     		adds	r3, r7, r0
 2386 003c 1A78     		ldrb	r2, [r3]
 2387 003e 1300     		movs	r3, r2
ARM GAS  C:\Users\SONG_J~1\AppData\Local\Temp\ccI21FnK.s 			page 40


 2388 0040 5B00     		lsls	r3, r3, #1
 2389 0042 9B18     		adds	r3, r3, r2
 2390 0044 DB00     		lsls	r3, r3, #3
 2391 0046 CB18     		adds	r3, r1, r3
 2392 0048 BB60     		str	r3, [r7, #8]
 2393 004a 3B18     		adds	r3, r7, r0
 2394 004c 1A78     		ldrb	r2, [r3]
 2395 004e 3B18     		adds	r3, r7, r0
 2396 0050 0132     		adds	r2, r2, #1
 2397 0052 1A70     		strb	r2, [r3]
 2398 0054 FB68     		ldr	r3, [r7, #12]
 2399 0056 9B78     		ldrb	r3, [r3, #2]
 2400 0058 3A18     		adds	r2, r7, r0
 2401 005a 1278     		ldrb	r2, [r2]
 2402 005c 9A42     		cmp	r2, r3
 2403 005e 03D1     		bne	.L152
 2404 0060 1623     		movs	r3, #22
 2405 0062 FB18     		adds	r3, r7, r3
 2406 0064 0022     		movs	r2, #0
 2407 0066 1A70     		strb	r2, [r3]
 2408              	.L152:
 2409 0068 BB68     		ldr	r3, [r7, #8]
 2410 006a 1B78     		ldrb	r3, [r3]
 2411 006c 022B     		cmp	r3, #2
 2412 006e 02D0     		beq	.L154
 2413 0070 032B     		cmp	r3, #3
 2414 0072 10D0     		beq	.L156
 2415 0074 14E0     		b	.L161
 2416              	.L154:
 2417 0076 BB68     		ldr	r3, [r7, #8]
 2418 0078 5B68     		ldr	r3, [r3, #4]
 2419 007a 1800     		movs	r0, r3
 2420 007c FFF7FEFF 		bl	timer_list_remove
 2421 0080 0FE0     		b	.L151
 2422              	.L157:
 2423 0082 154B     		ldr	r3, .L162
 2424 0084 1B68     		ldr	r3, [r3]
 2425 0086 7B60     		str	r3, [r7, #4]
 2426 0088 7B68     		ldr	r3, [r7, #4]
 2427 008a 0022     		movs	r2, #0
 2428 008c 1A74     		strb	r2, [r3, #16]
 2429 008e 7B68     		ldr	r3, [r7, #4]
 2430 0090 DA69     		ldr	r2, [r3, #28]
 2431 0092 114B     		ldr	r3, .L162
 2432 0094 1A60     		str	r2, [r3]
 2433              	.L156:
 2434 0096 104B     		ldr	r3, .L162
 2435 0098 1B68     		ldr	r3, [r3]
 2436 009a 002B     		cmp	r3, #0
 2437 009c F1D1     		bne	.L157
 2438 009e 00E0     		b	.L151
 2439              	.L161:
 2440 00a0 C046     		nop
 2441              	.L151:
 2442 00a2 FB68     		ldr	r3, [r7, #12]
 2443 00a4 5B78     		ldrb	r3, [r3, #1]
 2444 00a6 1622     		movs	r2, #22
ARM GAS  C:\Users\SONG_J~1\AppData\Local\Temp\ccI21FnK.s 			page 41


 2445 00a8 BA18     		adds	r2, r7, r2
 2446 00aa 1278     		ldrb	r2, [r2]
 2447 00ac 9A42     		cmp	r2, r3
 2448 00ae C1D1     		bne	.L158
 2449              	.L150:
 2450 00b0 1722     		movs	r2, #23
 2451 00b2 BB18     		adds	r3, r7, r2
 2452 00b4 1B78     		ldrb	r3, [r3]
 2453 00b6 BA18     		adds	r2, r7, r2
 2454 00b8 591E     		subs	r1, r3, #1
 2455 00ba 1170     		strb	r1, [r2]
 2456 00bc 002B     		cmp	r3, #0
 2457 00be ABD1     		bne	.L159
 2458 00c0 054B     		ldr	r3, .L162
 2459 00c2 1B68     		ldr	r3, [r3]
 2460 00c4 3A69     		ldr	r2, [r7, #16]
 2461 00c6 D31A     		subs	r3, r2, r3
 2462 00c8 5A1E     		subs	r2, r3, #1
 2463 00ca 9341     		sbcs	r3, r3, r2
 2464 00cc DBB2     		uxtb	r3, r3
 2465 00ce 1800     		movs	r0, r3
 2466 00d0 BD46     		mov	sp, r7
 2467 00d2 06B0     		add	sp, sp, #24
 2468              		@ sp needed
 2469 00d4 80BD     		pop	{r7, pc}
 2470              	.L163:
 2471 00d6 C046     		.align	2
 2472              	.L162:
 2473 00d8 00000000 		.word	mp_timer_id_head
 2474 00dc 00000000 		.word	m_user_array_size
 2475 00e0 00000000 		.word	mp_users
 2477              		.section	.text.expired_timers_handler,"ax",%progbits
 2478              		.align	1
 2479              		.syntax unified
 2480              		.code	16
 2481              		.thumb_func
 2482              		.fpu softvfp
 2484              	expired_timers_handler:
 2485              		@ args = 0, pretend = 0, frame = 32
 2486              		@ frame_needed = 1, uses_anonymous_args = 0
 2487 0000 80B5     		push	{r7, lr}
 2488 0002 88B0     		sub	sp, sp, #32
 2489 0004 00AF     		add	r7, sp, #0
 2490 0006 F860     		str	r0, [r7, #12]
 2491 0008 B960     		str	r1, [r7, #8]
 2492 000a 7A60     		str	r2, [r7, #4]
 2493 000c 0023     		movs	r3, #0
 2494 000e FB61     		str	r3, [r7, #28]
 2495 0010 38E0     		b	.L165
 2496              	.L168:
 2497 0012 204B     		ldr	r3, .L169
 2498 0014 1B68     		ldr	r3, [r3]
 2499 0016 BB61     		str	r3, [r7, #24]
 2500 0018 BB69     		ldr	r3, [r7, #24]
 2501 001a 1B68     		ldr	r3, [r3]
 2502 001c FA68     		ldr	r2, [r7, #12]
 2503 001e 9A42     		cmp	r2, r3
ARM GAS  C:\Users\SONG_J~1\AppData\Local\Temp\ccI21FnK.s 			page 42


 2504 0020 06D2     		bcs	.L166
 2505 0022 BB69     		ldr	r3, [r7, #24]
 2506 0024 1A68     		ldr	r2, [r3]
 2507 0026 FB68     		ldr	r3, [r7, #12]
 2508 0028 D21A     		subs	r2, r2, r3
 2509 002a BB69     		ldr	r3, [r7, #24]
 2510 002c 1A60     		str	r2, [r3]
 2511 002e 2DE0     		b	.L167
 2512              	.L166:
 2513 0030 BB69     		ldr	r3, [r7, #24]
 2514 0032 1B68     		ldr	r3, [r3]
 2515 0034 FA68     		ldr	r2, [r7, #12]
 2516 0036 D31A     		subs	r3, r2, r3
 2517 0038 FB60     		str	r3, [r7, #12]
 2518 003a BB69     		ldr	r3, [r7, #24]
 2519 003c 1B68     		ldr	r3, [r3]
 2520 003e FA69     		ldr	r2, [r7, #28]
 2521 0040 D318     		adds	r3, r2, r3
 2522 0042 FB61     		str	r3, [r7, #28]
 2523 0044 BB69     		ldr	r3, [r7, #24]
 2524 0046 0022     		movs	r2, #0
 2525 0048 1A60     		str	r2, [r3]
 2526 004a 124B     		ldr	r3, .L169
 2527 004c 1B68     		ldr	r3, [r3]
 2528 004e 7B61     		str	r3, [r7, #20]
 2529 0050 BB69     		ldr	r3, [r7, #24]
 2530 0052 DA69     		ldr	r2, [r3, #28]
 2531 0054 0F4B     		ldr	r3, .L169
 2532 0056 1A60     		str	r2, [r3]
 2533 0058 BB69     		ldr	r3, [r7, #24]
 2534 005a DB68     		ldr	r3, [r3, #12]
 2535 005c 002B     		cmp	r3, #0
 2536 005e 11D0     		beq	.L165
 2537 0060 BA68     		ldr	r2, [r7, #8]
 2538 0062 FB69     		ldr	r3, [r7, #28]
 2539 0064 D318     		adds	r3, r2, r3
 2540 0066 1B02     		lsls	r3, r3, #8
 2541 0068 1A0A     		lsrs	r2, r3, #8
 2542 006a BB69     		ldr	r3, [r7, #24]
 2543 006c 5A60     		str	r2, [r3, #4]
 2544 006e BB69     		ldr	r3, [r7, #24]
 2545 0070 DA68     		ldr	r2, [r3, #12]
 2546 0072 BB69     		ldr	r3, [r7, #24]
 2547 0074 9A60     		str	r2, [r3, #8]
 2548 0076 7B68     		ldr	r3, [r7, #4]
 2549 0078 1A68     		ldr	r2, [r3]
 2550 007a BB69     		ldr	r3, [r7, #24]
 2551 007c DA61     		str	r2, [r3, #28]
 2552 007e 7B68     		ldr	r3, [r7, #4]
 2553 0080 7A69     		ldr	r2, [r7, #20]
 2554 0082 1A60     		str	r2, [r3]
 2555              	.L165:
 2556 0084 034B     		ldr	r3, .L169
 2557 0086 1B68     		ldr	r3, [r3]
 2558 0088 002B     		cmp	r3, #0
 2559 008a C2D1     		bne	.L168
 2560              	.L167:
ARM GAS  C:\Users\SONG_J~1\AppData\Local\Temp\ccI21FnK.s 			page 43


 2561 008c C046     		nop
 2562 008e BD46     		mov	sp, r7
 2563 0090 08B0     		add	sp, sp, #32
 2564              		@ sp needed
 2565 0092 80BD     		pop	{r7, pc}
 2566              	.L170:
 2567              		.align	2
 2568              	.L169:
 2569 0094 00000000 		.word	mp_timer_id_head
 2571              		.section	.text.list_insertions_handler,"ax",%progbits
 2572              		.align	1
 2573              		.syntax unified
 2574              		.code	16
 2575              		.thumb_func
 2576              		.fpu softvfp
 2578              	list_insertions_handler:
 2579              		@ args = 0, pretend = 0, frame = 32
 2580              		@ frame_needed = 1, uses_anonymous_args = 0
 2581 0000 80B5     		push	{r7, lr}
 2582 0002 88B0     		sub	sp, sp, #32
 2583 0004 00AF     		add	r7, sp, #0
 2584 0006 7860     		str	r0, [r7, #4]
 2585 0008 5C4B     		ldr	r3, .L185
 2586 000a 1B68     		ldr	r3, [r3]
 2587 000c 7B61     		str	r3, [r7, #20]
 2588 000e 1F23     		movs	r3, #31
 2589 0010 FB18     		adds	r3, r7, r3
 2590 0012 5B4A     		ldr	r2, .L185+4
 2591 0014 1278     		ldrb	r2, [r2]
 2592 0016 1A70     		strb	r2, [r3]
 2593 0018 9BE0     		b	.L172
 2594              	.L183:
 2595 001a 5A4B     		ldr	r3, .L185+8
 2596 001c 1A68     		ldr	r2, [r3]
 2597 001e 1F23     		movs	r3, #31
 2598 0020 FB18     		adds	r3, r7, r3
 2599 0022 1B78     		ldrb	r3, [r3]
 2600 0024 DB00     		lsls	r3, r3, #3
 2601 0026 D318     		adds	r3, r2, r3
 2602 0028 3B61     		str	r3, [r7, #16]
 2603 002a 87E0     		b	.L173
 2604              	.L182:
 2605 002c 7B68     		ldr	r3, [r7, #4]
 2606 002e 002B     		cmp	r3, #0
 2607 0030 05D0     		beq	.L174
 2608 0032 7B68     		ldr	r3, [r7, #4]
 2609 0034 BB61     		str	r3, [r7, #24]
 2610 0036 BB69     		ldr	r3, [r7, #24]
 2611 0038 DB69     		ldr	r3, [r3, #28]
 2612 003a 7B60     		str	r3, [r7, #4]
 2613 003c 3CE0     		b	.L175
 2614              	.L174:
 2615 003e 3B69     		ldr	r3, [r7, #16]
 2616 0040 5A68     		ldr	r2, [r3, #4]
 2617 0042 3B69     		ldr	r3, [r7, #16]
 2618 0044 1B78     		ldrb	r3, [r3]
 2619 0046 1900     		movs	r1, r3
ARM GAS  C:\Users\SONG_J~1\AppData\Local\Temp\ccI21FnK.s 			page 44


 2620 0048 0B00     		movs	r3, r1
 2621 004a 5B00     		lsls	r3, r3, #1
 2622 004c 5B18     		adds	r3, r3, r1
 2623 004e DB00     		lsls	r3, r3, #3
 2624 0050 D318     		adds	r3, r2, r3
 2625 0052 FB60     		str	r3, [r7, #12]
 2626 0054 3B69     		ldr	r3, [r7, #16]
 2627 0056 1B78     		ldrb	r3, [r3]
 2628 0058 0133     		adds	r3, r3, #1
 2629 005a DAB2     		uxtb	r2, r3
 2630 005c 3B69     		ldr	r3, [r7, #16]
 2631 005e 1A70     		strb	r2, [r3]
 2632 0060 3B69     		ldr	r3, [r7, #16]
 2633 0062 1A78     		ldrb	r2, [r3]
 2634 0064 3B69     		ldr	r3, [r7, #16]
 2635 0066 9B78     		ldrb	r3, [r3, #2]
 2636 0068 9A42     		cmp	r2, r3
 2637 006a 02D1     		bne	.L176
 2638 006c 3B69     		ldr	r3, [r7, #16]
 2639 006e 0022     		movs	r2, #0
 2640 0070 1A70     		strb	r2, [r3]
 2641              	.L176:
 2642 0072 FB68     		ldr	r3, [r7, #12]
 2643 0074 5B68     		ldr	r3, [r3, #4]
 2644 0076 BB61     		str	r3, [r7, #24]
 2645 0078 FB68     		ldr	r3, [r7, #12]
 2646 007a 1B78     		ldrb	r3, [r3]
 2647 007c 012B     		cmp	r3, #1
 2648 007e 5DD1     		bne	.L173
 2649 0080 BB69     		ldr	r3, [r7, #24]
 2650 0082 1B7C     		ldrb	r3, [r3, #16]
 2651 0084 002B     		cmp	r3, #0
 2652 0086 00D0     		beq	.L178
 2653 0088 58E0     		b	.L173
 2654              	.L178:
 2655 008a FB68     		ldr	r3, [r7, #12]
 2656 008c 9A68     		ldr	r2, [r3, #8]
 2657 008e BB69     		ldr	r3, [r7, #24]
 2658 0090 5A60     		str	r2, [r3, #4]
 2659 0092 FB68     		ldr	r3, [r7, #12]
 2660 0094 DA68     		ldr	r2, [r3, #12]
 2661 0096 BB69     		ldr	r3, [r7, #24]
 2662 0098 9A60     		str	r2, [r3, #8]
 2663 009a FB68     		ldr	r3, [r7, #12]
 2664 009c 1A69     		ldr	r2, [r3, #16]
 2665 009e BB69     		ldr	r3, [r7, #24]
 2666 00a0 DA60     		str	r2, [r3, #12]
 2667 00a2 FB68     		ldr	r3, [r7, #12]
 2668 00a4 5A69     		ldr	r2, [r3, #20]
 2669 00a6 BB69     		ldr	r3, [r7, #24]
 2670 00a8 9A61     		str	r2, [r3, #24]
 2671 00aa 374B     		ldr	r3, .L185+12
 2672 00ac 1B78     		ldrb	r3, [r3]
 2673 00ae 002B     		cmp	r3, #0
 2674 00b0 02D0     		beq	.L175
 2675 00b2 BB69     		ldr	r3, [r7, #24]
 2676 00b4 0022     		movs	r2, #0
ARM GAS  C:\Users\SONG_J~1\AppData\Local\Temp\ccI21FnK.s 			page 45


 2677 00b6 5A60     		str	r2, [r3, #4]
 2678              	.L175:
 2679 00b8 BB69     		ldr	r3, [r7, #24]
 2680 00ba 5A68     		ldr	r2, [r3, #4]
 2681 00bc 334B     		ldr	r3, .L185+16
 2682 00be 1B68     		ldr	r3, [r3]
 2683 00c0 D31A     		subs	r3, r2, r3
 2684 00c2 1B02     		lsls	r3, r3, #8
 2685 00c4 1B0A     		lsrs	r3, r3, #8
 2686 00c6 324A     		ldr	r2, .L185+20
 2687 00c8 9342     		cmp	r3, r2
 2688 00ca 0ED8     		bhi	.L179
 2689 00cc BB69     		ldr	r3, [r7, #24]
 2690 00ce 5A68     		ldr	r2, [r3, #4]
 2691 00d0 2E4B     		ldr	r3, .L185+16
 2692 00d2 1B68     		ldr	r3, [r3]
 2693 00d4 1900     		movs	r1, r3
 2694 00d6 1000     		movs	r0, r2
 2695 00d8 FFF7FEFF 		bl	ticks_diff_get
 2696 00dc 0200     		movs	r2, r0
 2697 00de BB69     		ldr	r3, [r7, #24]
 2698 00e0 9B68     		ldr	r3, [r3, #8]
 2699 00e2 D218     		adds	r2, r2, r3
 2700 00e4 BB69     		ldr	r3, [r7, #24]
 2701 00e6 1A60     		str	r2, [r3]
 2702 00e8 18E0     		b	.L180
 2703              	.L179:
 2704 00ea 284B     		ldr	r3, .L185+16
 2705 00ec 1A68     		ldr	r2, [r3]
 2706 00ee BB69     		ldr	r3, [r7, #24]
 2707 00f0 5B68     		ldr	r3, [r3, #4]
 2708 00f2 1900     		movs	r1, r3
 2709 00f4 1000     		movs	r0, r2
 2710 00f6 FFF7FEFF 		bl	ticks_diff_get
 2711 00fa 0300     		movs	r3, r0
 2712 00fc BB60     		str	r3, [r7, #8]
 2713 00fe BB69     		ldr	r3, [r7, #24]
 2714 0100 9B68     		ldr	r3, [r3, #8]
 2715 0102 BA68     		ldr	r2, [r7, #8]
 2716 0104 9A42     		cmp	r2, r3
 2717 0106 06D2     		bcs	.L181
 2718 0108 BB69     		ldr	r3, [r7, #24]
 2719 010a 9A68     		ldr	r2, [r3, #8]
 2720 010c BB68     		ldr	r3, [r7, #8]
 2721 010e D21A     		subs	r2, r2, r3
 2722 0110 BB69     		ldr	r3, [r7, #24]
 2723 0112 1A60     		str	r2, [r3]
 2724 0114 02E0     		b	.L180
 2725              	.L181:
 2726 0116 BB69     		ldr	r3, [r7, #24]
 2727 0118 0022     		movs	r2, #0
 2728 011a 1A60     		str	r2, [r3]
 2729              	.L180:
 2730 011c BB69     		ldr	r3, [r7, #24]
 2731 011e 0022     		movs	r2, #0
 2732 0120 5A60     		str	r2, [r3, #4]
 2733 0122 BB69     		ldr	r3, [r7, #24]
ARM GAS  C:\Users\SONG_J~1\AppData\Local\Temp\ccI21FnK.s 			page 46


 2734 0124 0022     		movs	r2, #0
 2735 0126 9A60     		str	r2, [r3, #8]
 2736 0128 BB69     		ldr	r3, [r7, #24]
 2737 012a 0122     		movs	r2, #1
 2738 012c 1A74     		strb	r2, [r3, #16]
 2739 012e BB69     		ldr	r3, [r7, #24]
 2740 0130 0022     		movs	r2, #0
 2741 0132 DA61     		str	r2, [r3, #28]
 2742 0134 BB69     		ldr	r3, [r7, #24]
 2743 0136 1800     		movs	r0, r3
 2744 0138 FFF7FEFF 		bl	timer_list_insert
 2745              	.L173:
 2746 013c 7B68     		ldr	r3, [r7, #4]
 2747 013e 002B     		cmp	r3, #0
 2748 0140 00D0     		beq	.LCB2342
 2749 0142 73E7     		b	.L182	@long jump
 2750              	.LCB2342:
 2751 0144 3B69     		ldr	r3, [r7, #16]
 2752 0146 1A78     		ldrb	r2, [r3]
 2753 0148 3B69     		ldr	r3, [r7, #16]
 2754 014a 5B78     		ldrb	r3, [r3, #1]
 2755 014c 9A42     		cmp	r2, r3
 2756 014e 00D0     		beq	.LCB2348
 2757 0150 6CE7     		b	.L182	@long jump
 2758              	.LCB2348:
 2759              	.L172:
 2760 0152 1F22     		movs	r2, #31
 2761 0154 BB18     		adds	r3, r7, r2
 2762 0156 1B78     		ldrb	r3, [r3]
 2763 0158 BA18     		adds	r2, r7, r2
 2764 015a 591E     		subs	r1, r3, #1
 2765 015c 1170     		strb	r1, [r2]
 2766 015e 002B     		cmp	r3, #0
 2767 0160 00D0     		beq	.LCB2358
 2768 0162 5AE7     		b	.L183	@long jump
 2769              	.LCB2358:
 2770 0164 054B     		ldr	r3, .L185
 2771 0166 1B68     		ldr	r3, [r3]
 2772 0168 7A69     		ldr	r2, [r7, #20]
 2773 016a D31A     		subs	r3, r2, r3
 2774 016c 5A1E     		subs	r2, r3, #1
 2775 016e 9341     		sbcs	r3, r3, r2
 2776 0170 DBB2     		uxtb	r3, r3
 2777 0172 1800     		movs	r0, r3
 2778 0174 BD46     		mov	sp, r7
 2779 0176 08B0     		add	sp, sp, #32
 2780              		@ sp needed
 2781 0178 80BD     		pop	{r7, pc}
 2782              	.L186:
 2783 017a C046     		.align	2
 2784              	.L185:
 2785 017c 00000000 		.word	mp_timer_id_head
 2786 0180 00000000 		.word	m_user_array_size
 2787 0184 00000000 		.word	mp_users
 2788 0188 00000000 		.word	m_rtc1_reset
 2789 018c 00000000 		.word	m_ticks_latest
 2790 0190 FEFF7F00 		.word	8388606
ARM GAS  C:\Users\SONG_J~1\AppData\Local\Temp\ccI21FnK.s 			page 47


 2792              		.section	.text.compare_reg_update,"ax",%progbits
 2793              		.align	1
 2794              		.syntax unified
 2795              		.code	16
 2796              		.thumb_func
 2797              		.fpu softvfp
 2799              	compare_reg_update:
 2800              		@ args = 0, pretend = 0, frame = 32
 2801              		@ frame_needed = 1, uses_anonymous_args = 0
 2802 0000 90B5     		push	{r4, r7, lr}
 2803 0002 89B0     		sub	sp, sp, #36
 2804 0004 00AF     		add	r7, sp, #0
 2805 0006 7860     		str	r0, [r7, #4]
 2806 0008 334B     		ldr	r3, .L194
 2807 000a 1B68     		ldr	r3, [r3]
 2808 000c 002B     		cmp	r3, #0
 2809 000e 5CD0     		beq	.L188
 2810 0010 314B     		ldr	r3, .L194
 2811 0012 1B68     		ldr	r3, [r3]
 2812 0014 1B68     		ldr	r3, [r3]
 2813 0016 FB61     		str	r3, [r7, #28]
 2814 0018 FFF7FEFF 		bl	rtc1_counter_get
 2815 001c 0300     		movs	r3, r0
 2816 001e BB61     		str	r3, [r7, #24]
 2817 0020 2E4B     		ldr	r3, .L194+4
 2818 0022 1B68     		ldr	r3, [r3]
 2819 0024 7B61     		str	r3, [r7, #20]
 2820 0026 7A69     		ldr	r2, [r7, #20]
 2821 0028 BB69     		ldr	r3, [r7, #24]
 2822 002a 1100     		movs	r1, r2
 2823 002c 1800     		movs	r0, r3
 2824 002e FFF7FEFF 		bl	ticks_diff_get
 2825 0032 0300     		movs	r3, r0
 2826 0034 0333     		adds	r3, r3, #3
 2827 0036 3B61     		str	r3, [r7, #16]
 2828 0038 294B     		ldr	r3, .L194+8
 2829 003a 1B78     		ldrb	r3, [r3]
 2830 003c 0122     		movs	r2, #1
 2831 003e 5340     		eors	r3, r2
 2832 0040 DBB2     		uxtb	r3, r3
 2833 0042 002B     		cmp	r3, #0
 2834 0044 01D0     		beq	.L189
 2835 0046 FFF7FEFF 		bl	rtc1_start
 2836              	.L189:
 2837 004a FA69     		ldr	r2, [r7, #28]
 2838 004c 3B69     		ldr	r3, [r7, #16]
 2839 004e 9342     		cmp	r3, r2
 2840 0050 00D2     		bcs	.L190
 2841 0052 1300     		movs	r3, r2
 2842              	.L190:
 2843 0054 7A69     		ldr	r2, [r7, #20]
 2844 0056 D318     		adds	r3, r2, r3
 2845 0058 7B61     		str	r3, [r7, #20]
 2846 005a 7B69     		ldr	r3, [r7, #20]
 2847 005c 1B02     		lsls	r3, r3, #8
 2848 005e 1B0A     		lsrs	r3, r3, #8
 2849 0060 7B61     		str	r3, [r7, #20]
ARM GAS  C:\Users\SONG_J~1\AppData\Local\Temp\ccI21FnK.s 			page 48


 2850 0062 7B69     		ldr	r3, [r7, #20]
 2851 0064 1800     		movs	r0, r3
 2852 0066 FFF7FEFF 		bl	rtc1_compare0_set
 2853 006a FFF7FEFF 		bl	rtc1_counter_get
 2854 006e 0300     		movs	r3, r0
 2855 0070 FB60     		str	r3, [r7, #12]
 2856 0072 BA69     		ldr	r2, [r7, #24]
 2857 0074 FB68     		ldr	r3, [r7, #12]
 2858 0076 1100     		movs	r1, r2
 2859 0078 1800     		movs	r0, r3
 2860 007a FFF7FEFF 		bl	ticks_diff_get
 2861 007e 0300     		movs	r3, r0
 2862 0080 DC1C     		adds	r4, r3, #3
 2863 0082 BA69     		ldr	r2, [r7, #24]
 2864 0084 7B69     		ldr	r3, [r7, #20]
 2865 0086 1100     		movs	r1, r2
 2866 0088 1800     		movs	r0, r3
 2867 008a FFF7FEFF 		bl	ticks_diff_get
 2868 008e 0300     		movs	r3, r0
 2869 0090 9C42     		cmp	r4, r3
 2870 0092 1CD9     		bls	.L193
 2871 0094 FFF7FEFF 		bl	rtc1_counter_get
 2872 0098 0300     		movs	r3, r0
 2873 009a 1800     		movs	r0, r3
 2874 009c FFF7FEFF 		bl	rtc1_compare0_set
 2875 00a0 2F23     		movs	r3, #47
 2876 00a2 BB60     		str	r3, [r7, #8]
 2877 00a4 BB68     		ldr	r3, [r7, #8]
 2878 00a6 1800     		movs	r0, r3
 2879              		.syntax divided
 2880              	@ 166 "../components/drivers_nrf/delay/nrf_delay.h" 1
 2881              		.syntax unified
 2882              	1:
 2883 00a8 0138     	 SUBS r0, r0, #1
 2884 00aa C046     	 NOP
 2885 00ac C046     	 NOP
 2886 00ae C046     	 NOP
 2887 00b0 C046     	 NOP
 2888 00b2 C046     	 NOP
 2889 00b4 C046     	 NOP
 2890 00b6 C046     	 NOP
 2891 00b8 C046     	 NOP
 2892 00ba C046     	 NOP
 2893 00bc C046     	 NOP
 2894 00be C046     	 NOP
 2895 00c0 C046     	 NOP
 2896 00c2 F1D1     	 BNE 1b
 2897              	.syntax divided
 2898              	
 2899              	@ 0 "" 2
 2900              		.thumb
 2901              		.syntax unified
 2902 00c4 FFF7FEFF 		bl	timer_timeouts_check_sched
 2903 00c8 01E0     		b	.L193
 2904              	.L188:
 2905 00ca FFF7FEFF 		bl	rtc1_stop
 2906              	.L193:
ARM GAS  C:\Users\SONG_J~1\AppData\Local\Temp\ccI21FnK.s 			page 49


 2907 00ce C046     		nop
 2908 00d0 BD46     		mov	sp, r7
 2909 00d2 09B0     		add	sp, sp, #36
 2910              		@ sp needed
 2911 00d4 90BD     		pop	{r4, r7, pc}
 2912              	.L195:
 2913 00d6 C046     		.align	2
 2914              	.L194:
 2915 00d8 00000000 		.word	mp_timer_id_head
 2916 00dc 00000000 		.word	m_ticks_latest
 2917 00e0 00000000 		.word	m_rtc1_running
 2919              		.section	.text.timer_list_handler,"ax",%progbits
 2920              		.align	1
 2921              		.syntax unified
 2922              		.code	16
 2923              		.thumb_func
 2924              		.fpu softvfp
 2926              	timer_list_handler:
 2927              		@ args = 0, pretend = 0, frame = 24
 2928              		@ frame_needed = 1, uses_anonymous_args = 0
 2929 0000 B0B5     		push	{r4, r5, r7, lr}
 2930 0002 86B0     		sub	sp, sp, #24
 2931 0004 00AF     		add	r7, sp, #0
 2932 0006 0023     		movs	r3, #0
 2933 0008 7B60     		str	r3, [r7, #4]
 2934 000a 1E4B     		ldr	r3, .L200
 2935 000c 1B68     		ldr	r3, [r3]
 2936 000e 3B61     		str	r3, [r7, #16]
 2937 0010 1D4B     		ldr	r3, .L200+4
 2938 0012 1B68     		ldr	r3, [r3]
 2939 0014 FB60     		str	r3, [r7, #12]
 2940 0016 0B25     		movs	r5, #11
 2941 0018 7C19     		adds	r4, r7, r5
 2942 001a 3B00     		movs	r3, r7
 2943 001c 1800     		movs	r0, r3
 2944 001e FFF7FEFF 		bl	elapsed_ticks_acquire
 2945 0022 0300     		movs	r3, r0
 2946 0024 2370     		strb	r3, [r4]
 2947 0026 1723     		movs	r3, #23
 2948 0028 FC18     		adds	r4, r7, r3
 2949 002a FFF7FEFF 		bl	list_deletions_handler
 2950 002e 0300     		movs	r3, r0
 2951 0030 2370     		strb	r3, [r4]
 2952 0032 7B19     		adds	r3, r7, r5
 2953 0034 1B78     		ldrb	r3, [r3]
 2954 0036 002B     		cmp	r3, #0
 2955 0038 09D0     		beq	.L197
 2956 003a 3B68     		ldr	r3, [r7]
 2957 003c 3A1D     		adds	r2, r7, #4
 2958 003e 3969     		ldr	r1, [r7, #16]
 2959 0040 1800     		movs	r0, r3
 2960 0042 FFF7FEFF 		bl	expired_timers_handler
 2961 0046 1723     		movs	r3, #23
 2962 0048 FB18     		adds	r3, r7, r3
 2963 004a 0122     		movs	r2, #1
 2964 004c 1A70     		strb	r2, [r3]
 2965              	.L197:
ARM GAS  C:\Users\SONG_J~1\AppData\Local\Temp\ccI21FnK.s 			page 50


 2966 004e 7B68     		ldr	r3, [r7, #4]
 2967 0050 1800     		movs	r0, r3
 2968 0052 FFF7FEFF 		bl	list_insertions_handler
 2969 0056 031E     		subs	r3, r0, #0
 2970 0058 03D0     		beq	.L198
 2971 005a 1723     		movs	r3, #23
 2972 005c FB18     		adds	r3, r7, r3
 2973 005e 0122     		movs	r2, #1
 2974 0060 1A70     		strb	r2, [r3]
 2975              	.L198:
 2976 0062 1723     		movs	r3, #23
 2977 0064 FB18     		adds	r3, r7, r3
 2978 0066 1B78     		ldrb	r3, [r3]
 2979 0068 002B     		cmp	r3, #0
 2980 006a 03D0     		beq	.L199
 2981 006c FB68     		ldr	r3, [r7, #12]
 2982 006e 1800     		movs	r0, r3
 2983 0070 FFF7FEFF 		bl	compare_reg_update
 2984              	.L199:
 2985 0074 054B     		ldr	r3, .L200+8
 2986 0076 0022     		movs	r2, #0
 2987 0078 1A70     		strb	r2, [r3]
 2988 007a C046     		nop
 2989 007c BD46     		mov	sp, r7
 2990 007e 06B0     		add	sp, sp, #24
 2991              		@ sp needed
 2992 0080 B0BD     		pop	{r4, r5, r7, pc}
 2993              	.L201:
 2994 0082 C046     		.align	2
 2995              	.L200:
 2996 0084 00000000 		.word	m_ticks_latest
 2997 0088 00000000 		.word	mp_timer_id_head
 2998 008c 00000000 		.word	m_rtc1_reset
 3000              		.section	.text.user_op_enque,"ax",%progbits
 3001              		.align	1
 3002              		.syntax unified
 3003              		.code	16
 3004              		.thumb_func
 3005              		.fpu softvfp
 3007              	user_op_enque:
 3008              		@ args = 0, pretend = 0, frame = 8
 3009              		@ frame_needed = 1, uses_anonymous_args = 0
 3010 0000 80B5     		push	{r7, lr}
 3011 0002 82B0     		sub	sp, sp, #8
 3012 0004 00AF     		add	r7, sp, #0
 3013 0006 7860     		str	r0, [r7, #4]
 3014 0008 0A00     		movs	r2, r1
 3015 000a FB1C     		adds	r3, r7, #3
 3016 000c 1A70     		strb	r2, [r3]
 3017 000e 7B68     		ldr	r3, [r7, #4]
 3018 0010 FA1C     		adds	r2, r7, #3
 3019 0012 1278     		ldrb	r2, [r2]
 3020 0014 5A70     		strb	r2, [r3, #1]
 3021 0016 C046     		nop
 3022 0018 BD46     		mov	sp, r7
 3023 001a 02B0     		add	sp, sp, #8
 3024              		@ sp needed
ARM GAS  C:\Users\SONG_J~1\AppData\Local\Temp\ccI21FnK.s 			page 51


 3025 001c 80BD     		pop	{r7, pc}
 3027              		.section	.text.user_op_alloc,"ax",%progbits
 3028              		.align	1
 3029              		.syntax unified
 3030              		.code	16
 3031              		.thumb_func
 3032              		.fpu softvfp
 3034              	user_op_alloc:
 3035              		@ args = 0, pretend = 0, frame = 16
 3036              		@ frame_needed = 1, uses_anonymous_args = 0
 3037 0000 80B5     		push	{r7, lr}
 3038 0002 84B0     		sub	sp, sp, #16
 3039 0004 00AF     		add	r7, sp, #0
 3040 0006 7860     		str	r0, [r7, #4]
 3041 0008 3960     		str	r1, [r7]
 3042 000a 7B68     		ldr	r3, [r7, #4]
 3043 000c 5A78     		ldrb	r2, [r3, #1]
 3044 000e 0F21     		movs	r1, #15
 3045 0010 7B18     		adds	r3, r7, r1
 3046 0012 0132     		adds	r2, r2, #1
 3047 0014 1A70     		strb	r2, [r3]
 3048 0016 7B68     		ldr	r3, [r7, #4]
 3049 0018 9B78     		ldrb	r3, [r3, #2]
 3050 001a 7A18     		adds	r2, r7, r1
 3051 001c 1278     		ldrb	r2, [r2]
 3052 001e 9A42     		cmp	r2, r3
 3053 0020 03D1     		bne	.L204
 3054 0022 0F23     		movs	r3, #15
 3055 0024 FB18     		adds	r3, r7, r3
 3056 0026 0022     		movs	r2, #0
 3057 0028 1A70     		strb	r2, [r3]
 3058              	.L204:
 3059 002a 7B68     		ldr	r3, [r7, #4]
 3060 002c 1B78     		ldrb	r3, [r3]
 3061 002e 0F22     		movs	r2, #15
 3062 0030 BA18     		adds	r2, r7, r2
 3063 0032 1278     		ldrb	r2, [r2]
 3064 0034 9A42     		cmp	r2, r3
 3065 0036 01D1     		bne	.L205
 3066 0038 0023     		movs	r3, #0
 3067 003a 10E0     		b	.L206
 3068              	.L205:
 3069 003c 3B68     		ldr	r3, [r7]
 3070 003e 0F22     		movs	r2, #15
 3071 0040 BA18     		adds	r2, r7, r2
 3072 0042 1278     		ldrb	r2, [r2]
 3073 0044 1A70     		strb	r2, [r3]
 3074 0046 7B68     		ldr	r3, [r7, #4]
 3075 0048 5A68     		ldr	r2, [r3, #4]
 3076 004a 7B68     		ldr	r3, [r7, #4]
 3077 004c 5B78     		ldrb	r3, [r3, #1]
 3078 004e 1900     		movs	r1, r3
 3079 0050 0B00     		movs	r3, r1
 3080 0052 5B00     		lsls	r3, r3, #1
 3081 0054 5B18     		adds	r3, r3, r1
 3082 0056 DB00     		lsls	r3, r3, #3
 3083 0058 D318     		adds	r3, r2, r3
ARM GAS  C:\Users\SONG_J~1\AppData\Local\Temp\ccI21FnK.s 			page 52


 3084 005a BB60     		str	r3, [r7, #8]
 3085 005c BB68     		ldr	r3, [r7, #8]
 3086              	.L206:
 3087 005e 1800     		movs	r0, r3
 3088 0060 BD46     		mov	sp, r7
 3089 0062 04B0     		add	sp, sp, #16
 3090              		@ sp needed
 3091 0064 80BD     		pop	{r7, pc}
 3093              		.section	.text.timer_start_op_schedule,"ax",%progbits
 3094              		.align	1
 3095              		.syntax unified
 3096              		.code	16
 3097              		.thumb_func
 3098              		.fpu softvfp
 3100              	timer_start_op_schedule:
 3101              		@ args = 4, pretend = 0, frame = 24
 3102              		@ frame_needed = 1, uses_anonymous_args = 0
 3103 0000 80B5     		push	{r7, lr}
 3104 0002 86B0     		sub	sp, sp, #24
 3105 0004 00AF     		add	r7, sp, #0
 3106 0006 F860     		str	r0, [r7, #12]
 3107 0008 B960     		str	r1, [r7, #8]
 3108 000a 7A60     		str	r2, [r7, #4]
 3109 000c 3B60     		str	r3, [r7]
 3110 000e 1C4B     		ldr	r3, .L211
 3111 0010 1A68     		ldr	r2, [r3]
 3112 0012 FB68     		ldr	r3, [r7, #12]
 3113 0014 DB00     		lsls	r3, r3, #3
 3114 0016 D318     		adds	r3, r2, r3
 3115 0018 1322     		movs	r2, #19
 3116 001a BA18     		adds	r2, r7, r2
 3117 001c 1100     		movs	r1, r2
 3118 001e 1800     		movs	r0, r3
 3119 0020 FFF7FEFF 		bl	user_op_alloc
 3120 0024 0300     		movs	r3, r0
 3121 0026 7B61     		str	r3, [r7, #20]
 3122 0028 7B69     		ldr	r3, [r7, #20]
 3123 002a 002B     		cmp	r3, #0
 3124 002c 01D1     		bne	.L208
 3125 002e 0423     		movs	r3, #4
 3126 0030 22E0     		b	.L210
 3127              	.L208:
 3128 0032 7B69     		ldr	r3, [r7, #20]
 3129 0034 0122     		movs	r2, #1
 3130 0036 1A70     		strb	r2, [r3]
 3131 0038 7B69     		ldr	r3, [r7, #20]
 3132 003a BA68     		ldr	r2, [r7, #8]
 3133 003c 5A60     		str	r2, [r3, #4]
 3134 003e FFF7FEFF 		bl	rtc1_counter_get
 3135 0042 0200     		movs	r2, r0
 3136 0044 7B69     		ldr	r3, [r7, #20]
 3137 0046 9A60     		str	r2, [r3, #8]
 3138 0048 7B69     		ldr	r3, [r7, #20]
 3139 004a 7A68     		ldr	r2, [r7, #4]
 3140 004c DA60     		str	r2, [r3, #12]
 3141 004e 7B69     		ldr	r3, [r7, #20]
 3142 0050 3A68     		ldr	r2, [r7]
ARM GAS  C:\Users\SONG_J~1\AppData\Local\Temp\ccI21FnK.s 			page 53


 3143 0052 1A61     		str	r2, [r3, #16]
 3144 0054 7B69     		ldr	r3, [r7, #20]
 3145 0056 3A6A     		ldr	r2, [r7, #32]
 3146 0058 5A61     		str	r2, [r3, #20]
 3147 005a 094B     		ldr	r3, .L211
 3148 005c 1A68     		ldr	r2, [r3]
 3149 005e FB68     		ldr	r3, [r7, #12]
 3150 0060 DB00     		lsls	r3, r3, #3
 3151 0062 D218     		adds	r2, r2, r3
 3152 0064 1323     		movs	r3, #19
 3153 0066 FB18     		adds	r3, r7, r3
 3154 0068 1B78     		ldrb	r3, [r3]
 3155 006a 1900     		movs	r1, r3
 3156 006c 1000     		movs	r0, r2
 3157 006e FFF7FEFF 		bl	user_op_enque
 3158 0072 FFF7FEFF 		bl	timer_list_handler_sched
 3159 0076 0023     		movs	r3, #0
 3160              	.L210:
 3161 0078 1800     		movs	r0, r3
 3162 007a BD46     		mov	sp, r7
 3163 007c 06B0     		add	sp, sp, #24
 3164              		@ sp needed
 3165 007e 80BD     		pop	{r7, pc}
 3166              	.L212:
 3167              		.align	2
 3168              	.L211:
 3169 0080 00000000 		.word	mp_users
 3171              		.section	.text.timer_stop_op_schedule,"ax",%progbits
 3172              		.align	1
 3173              		.syntax unified
 3174              		.code	16
 3175              		.thumb_func
 3176              		.fpu softvfp
 3178              	timer_stop_op_schedule:
 3179              		@ args = 0, pretend = 0, frame = 16
 3180              		@ frame_needed = 1, uses_anonymous_args = 0
 3181 0000 80B5     		push	{r7, lr}
 3182 0002 84B0     		sub	sp, sp, #16
 3183 0004 00AF     		add	r7, sp, #0
 3184 0006 7860     		str	r0, [r7, #4]
 3185 0008 3960     		str	r1, [r7]
 3186 000a 154B     		ldr	r3, .L217
 3187 000c 1A68     		ldr	r2, [r3]
 3188 000e 7B68     		ldr	r3, [r7, #4]
 3189 0010 DB00     		lsls	r3, r3, #3
 3190 0012 D318     		adds	r3, r2, r3
 3191 0014 0B22     		movs	r2, #11
 3192 0016 BA18     		adds	r2, r7, r2
 3193 0018 1100     		movs	r1, r2
 3194 001a 1800     		movs	r0, r3
 3195 001c FFF7FEFF 		bl	user_op_alloc
 3196 0020 0300     		movs	r3, r0
 3197 0022 FB60     		str	r3, [r7, #12]
 3198 0024 FB68     		ldr	r3, [r7, #12]
 3199 0026 002B     		cmp	r3, #0
 3200 0028 01D1     		bne	.L214
 3201 002a 0423     		movs	r3, #4
ARM GAS  C:\Users\SONG_J~1\AppData\Local\Temp\ccI21FnK.s 			page 54


 3202 002c 14E0     		b	.L216
 3203              	.L214:
 3204 002e FB68     		ldr	r3, [r7, #12]
 3205 0030 0222     		movs	r2, #2
 3206 0032 1A70     		strb	r2, [r3]
 3207 0034 FB68     		ldr	r3, [r7, #12]
 3208 0036 3A68     		ldr	r2, [r7]
 3209 0038 5A60     		str	r2, [r3, #4]
 3210 003a 094B     		ldr	r3, .L217
 3211 003c 1A68     		ldr	r2, [r3]
 3212 003e 7B68     		ldr	r3, [r7, #4]
 3213 0040 DB00     		lsls	r3, r3, #3
 3214 0042 D218     		adds	r2, r2, r3
 3215 0044 0B23     		movs	r3, #11
 3216 0046 FB18     		adds	r3, r7, r3
 3217 0048 1B78     		ldrb	r3, [r3]
 3218 004a 1900     		movs	r1, r3
 3219 004c 1000     		movs	r0, r2
 3220 004e FFF7FEFF 		bl	user_op_enque
 3221 0052 FFF7FEFF 		bl	timer_list_handler_sched
 3222 0056 0023     		movs	r3, #0
 3223              	.L216:
 3224 0058 1800     		movs	r0, r3
 3225 005a BD46     		mov	sp, r7
 3226 005c 04B0     		add	sp, sp, #16
 3227              		@ sp needed
 3228 005e 80BD     		pop	{r7, pc}
 3229              	.L218:
 3230              		.align	2
 3231              	.L217:
 3232 0060 00000000 		.word	mp_users
 3234              		.section	.text.timer_stop_all_op_schedule,"ax",%progbits
 3235              		.align	1
 3236              		.syntax unified
 3237              		.code	16
 3238              		.thumb_func
 3239              		.fpu softvfp
 3241              	timer_stop_all_op_schedule:
 3242              		@ args = 0, pretend = 0, frame = 16
 3243              		@ frame_needed = 1, uses_anonymous_args = 0
 3244 0000 80B5     		push	{r7, lr}
 3245 0002 84B0     		sub	sp, sp, #16
 3246 0004 00AF     		add	r7, sp, #0
 3247 0006 7860     		str	r0, [r7, #4]
 3248 0008 154B     		ldr	r3, .L223
 3249 000a 1A68     		ldr	r2, [r3]
 3250 000c 7B68     		ldr	r3, [r7, #4]
 3251 000e DB00     		lsls	r3, r3, #3
 3252 0010 D318     		adds	r3, r2, r3
 3253 0012 0B22     		movs	r2, #11
 3254 0014 BA18     		adds	r2, r7, r2
 3255 0016 1100     		movs	r1, r2
 3256 0018 1800     		movs	r0, r3
 3257 001a FFF7FEFF 		bl	user_op_alloc
 3258 001e 0300     		movs	r3, r0
 3259 0020 FB60     		str	r3, [r7, #12]
 3260 0022 FB68     		ldr	r3, [r7, #12]
ARM GAS  C:\Users\SONG_J~1\AppData\Local\Temp\ccI21FnK.s 			page 55


 3261 0024 002B     		cmp	r3, #0
 3262 0026 01D1     		bne	.L220
 3263 0028 0423     		movs	r3, #4
 3264 002a 14E0     		b	.L222
 3265              	.L220:
 3266 002c FB68     		ldr	r3, [r7, #12]
 3267 002e 0322     		movs	r2, #3
 3268 0030 1A70     		strb	r2, [r3]
 3269 0032 FB68     		ldr	r3, [r7, #12]
 3270 0034 0022     		movs	r2, #0
 3271 0036 5A60     		str	r2, [r3, #4]
 3272 0038 094B     		ldr	r3, .L223
 3273 003a 1A68     		ldr	r2, [r3]
 3274 003c 7B68     		ldr	r3, [r7, #4]
 3275 003e DB00     		lsls	r3, r3, #3
 3276 0040 D218     		adds	r2, r2, r3
 3277 0042 0B23     		movs	r3, #11
 3278 0044 FB18     		adds	r3, r7, r3
 3279 0046 1B78     		ldrb	r3, [r3]
 3280 0048 1900     		movs	r1, r3
 3281 004a 1000     		movs	r0, r2
 3282 004c FFF7FEFF 		bl	user_op_enque
 3283 0050 FFF7FEFF 		bl	timer_list_handler_sched
 3284 0054 0023     		movs	r3, #0
 3285              	.L222:
 3286 0056 1800     		movs	r0, r3
 3287 0058 BD46     		mov	sp, r7
 3288 005a 04B0     		add	sp, sp, #16
 3289              		@ sp needed
 3290 005c 80BD     		pop	{r7, pc}
 3291              	.L224:
 3292 005e C046     		.align	2
 3293              	.L223:
 3294 0060 00000000 		.word	mp_users
 3296              		.section	.text.RTC1_IRQHandler,"ax",%progbits
 3297              		.align	1
 3298              		.global	RTC1_IRQHandler
 3299              		.syntax unified
 3300              		.code	16
 3301              		.thumb_func
 3302              		.fpu softvfp
 3304              	RTC1_IRQHandler:
 3305              		@ args = 0, pretend = 0, frame = 0
 3306              		@ frame_needed = 1, uses_anonymous_args = 0
 3307 0000 80B5     		push	{r7, lr}
 3308 0002 00AF     		add	r7, sp, #0
 3309 0004 114A     		ldr	r2, .L226
 3310 0006 A023     		movs	r3, #160
 3311 0008 5B00     		lsls	r3, r3, #1
 3312 000a 0021     		movs	r1, #0
 3313 000c D150     		str	r1, [r2, r3]
 3314 000e 0F4A     		ldr	r2, .L226
 3315 0010 A223     		movs	r3, #162
 3316 0012 5B00     		lsls	r3, r3, #1
 3317 0014 0021     		movs	r1, #0
 3318 0016 D150     		str	r1, [r2, r3]
 3319 0018 0C4A     		ldr	r2, .L226
ARM GAS  C:\Users\SONG_J~1\AppData\Local\Temp\ccI21FnK.s 			page 56


 3320 001a A423     		movs	r3, #164
 3321 001c 5B00     		lsls	r3, r3, #1
 3322 001e 0021     		movs	r1, #0
 3323 0020 D150     		str	r1, [r2, r3]
 3324 0022 0A4A     		ldr	r2, .L226
 3325 0024 A623     		movs	r3, #166
 3326 0026 5B00     		lsls	r3, r3, #1
 3327 0028 0021     		movs	r1, #0
 3328 002a D150     		str	r1, [r2, r3]
 3329 002c 074A     		ldr	r2, .L226
 3330 002e 8023     		movs	r3, #128
 3331 0030 5B00     		lsls	r3, r3, #1
 3332 0032 0021     		movs	r1, #0
 3333 0034 D150     		str	r1, [r2, r3]
 3334 0036 054A     		ldr	r2, .L226
 3335 0038 8223     		movs	r3, #130
 3336 003a 5B00     		lsls	r3, r3, #1
 3337 003c 0021     		movs	r1, #0
 3338 003e D150     		str	r1, [r2, r3]
 3339 0040 FFF7FEFF 		bl	timer_timeouts_check
 3340 0044 C046     		nop
 3341 0046 BD46     		mov	sp, r7
 3342              		@ sp needed
 3343 0048 80BD     		pop	{r7, pc}
 3344              	.L227:
 3345 004a C046     		.align	2
 3346              	.L226:
 3347 004c 00100140 		.word	1073811456
 3349              		.section	.text.SWI0_IRQHandler,"ax",%progbits
 3350              		.align	1
 3351              		.global	SWI0_IRQHandler
 3352              		.syntax unified
 3353              		.code	16
 3354              		.thumb_func
 3355              		.fpu softvfp
 3357              	SWI0_IRQHandler:
 3358              		@ args = 0, pretend = 0, frame = 0
 3359              		@ frame_needed = 1, uses_anonymous_args = 0
 3360 0000 80B5     		push	{r7, lr}
 3361 0002 00AF     		add	r7, sp, #0
 3362 0004 FFF7FEFF 		bl	timer_list_handler
 3363 0008 C046     		nop
 3364 000a BD46     		mov	sp, r7
 3365              		@ sp needed
 3366 000c 80BD     		pop	{r7, pc}
 3368              		.section	.text.app_timer_init,"ax",%progbits
 3369              		.align	1
 3370              		.global	app_timer_init
 3371              		.syntax unified
 3372              		.code	16
 3373              		.thumb_func
 3374              		.fpu softvfp
 3376              	app_timer_init:
 3377              		@ args = 0, pretend = 0, frame = 24
 3378              		@ frame_needed = 1, uses_anonymous_args = 0
 3379 0000 80B5     		push	{r7, lr}
 3380 0002 86B0     		sub	sp, sp, #24
ARM GAS  C:\Users\SONG_J~1\AppData\Local\Temp\ccI21FnK.s 			page 57


 3381 0004 00AF     		add	r7, sp, #0
 3382 0006 F860     		str	r0, [r7, #12]
 3383 0008 7A60     		str	r2, [r7, #4]
 3384 000a 3B60     		str	r3, [r7]
 3385 000c 0B23     		movs	r3, #11
 3386 000e FB18     		adds	r3, r7, r3
 3387 0010 0A1C     		adds	r2, r1, #0
 3388 0012 1A70     		strb	r2, [r3]
 3389 0014 7B68     		ldr	r3, [r7, #4]
 3390 0016 1800     		movs	r0, r3
 3391 0018 FFF7FEFF 		bl	is_word_aligned
 3392 001c 0300     		movs	r3, r0
 3393 001e 1A00     		movs	r2, r3
 3394 0020 0123     		movs	r3, #1
 3395 0022 5340     		eors	r3, r2
 3396 0024 DBB2     		uxtb	r3, r3
 3397 0026 002B     		cmp	r3, #0
 3398 0028 01D0     		beq	.L230
 3399 002a 0723     		movs	r3, #7
 3400 002c 59E0     		b	.L231
 3401              	.L230:
 3402 002e 7B68     		ldr	r3, [r7, #4]
 3403 0030 002B     		cmp	r3, #0
 3404 0032 04D1     		bne	.L232
 3405 0034 2D4B     		ldr	r3, .L235
 3406 0036 0022     		movs	r2, #0
 3407 0038 1A60     		str	r2, [r3]
 3408 003a 0723     		movs	r3, #7
 3409 003c 51E0     		b	.L231
 3410              	.L232:
 3411 003e FFF7FEFF 		bl	rtc1_stop
 3412 0042 2B4B     		ldr	r3, .L235+4
 3413 0044 3A68     		ldr	r2, [r7]
 3414 0046 1A60     		str	r2, [r3]
 3415 0048 2A4B     		ldr	r3, .L235+8
 3416 004a 0322     		movs	r2, #3
 3417 004c 1A70     		strb	r2, [r3]
 3418 004e 274B     		ldr	r3, .L235
 3419 0050 7A68     		ldr	r2, [r7, #4]
 3420 0052 1A60     		str	r2, [r3]
 3421 0054 7B68     		ldr	r3, [r7, #4]
 3422 0056 1833     		adds	r3, r3, #24
 3423 0058 7B60     		str	r3, [r7, #4]
 3424 005a 0023     		movs	r3, #0
 3425 005c 7B61     		str	r3, [r7, #20]
 3426 005e 20E0     		b	.L233
 3427              	.L234:
 3428 0060 224B     		ldr	r3, .L235
 3429 0062 1A68     		ldr	r2, [r3]
 3430 0064 7B69     		ldr	r3, [r7, #20]
 3431 0066 DB00     		lsls	r3, r3, #3
 3432 0068 D318     		adds	r3, r2, r3
 3433 006a 3B61     		str	r3, [r7, #16]
 3434 006c 3B69     		ldr	r3, [r7, #16]
 3435 006e 0022     		movs	r2, #0
 3436 0070 1A70     		strb	r2, [r3]
 3437 0072 3B69     		ldr	r3, [r7, #16]
ARM GAS  C:\Users\SONG_J~1\AppData\Local\Temp\ccI21FnK.s 			page 58


 3438 0074 0022     		movs	r2, #0
 3439 0076 5A70     		strb	r2, [r3, #1]
 3440 0078 3B69     		ldr	r3, [r7, #16]
 3441 007a 0B21     		movs	r1, #11
 3442 007c 7A18     		adds	r2, r7, r1
 3443 007e 1278     		ldrb	r2, [r2]
 3444 0080 9A70     		strb	r2, [r3, #2]
 3445 0082 3B69     		ldr	r3, [r7, #16]
 3446 0084 7A68     		ldr	r2, [r7, #4]
 3447 0086 5A60     		str	r2, [r3, #4]
 3448 0088 7B18     		adds	r3, r7, r1
 3449 008a 1A78     		ldrb	r2, [r3]
 3450 008c 1300     		movs	r3, r2
 3451 008e 5B00     		lsls	r3, r3, #1
 3452 0090 9B18     		adds	r3, r3, r2
 3453 0092 DB00     		lsls	r3, r3, #3
 3454 0094 1A00     		movs	r2, r3
 3455 0096 7B68     		ldr	r3, [r7, #4]
 3456 0098 9B18     		adds	r3, r3, r2
 3457 009a 7B60     		str	r3, [r7, #4]
 3458 009c 7B69     		ldr	r3, [r7, #20]
 3459 009e 0133     		adds	r3, r3, #1
 3460 00a0 7B61     		str	r3, [r7, #20]
 3461              	.L233:
 3462 00a2 7B69     		ldr	r3, [r7, #20]
 3463 00a4 022B     		cmp	r3, #2
 3464 00a6 DBDD     		ble	.L234
 3465 00a8 134B     		ldr	r3, .L235+12
 3466 00aa 0022     		movs	r2, #0
 3467 00ac 1A60     		str	r2, [r3]
 3468 00ae 134B     		ldr	r3, .L235+16
 3469 00b0 0022     		movs	r2, #0
 3470 00b2 1A70     		strb	r2, [r3]
 3471 00b4 124B     		ldr	r3, .L235+20
 3472 00b6 0022     		movs	r2, #0
 3473 00b8 1A70     		strb	r2, [r3]
 3474 00ba 1420     		movs	r0, #20
 3475 00bc FFF7FEFF 		bl	NVIC_ClearPendingIRQ
 3476 00c0 0321     		movs	r1, #3
 3477 00c2 1420     		movs	r0, #20
 3478 00c4 FFF7FEFF 		bl	NVIC_SetPriority
 3479 00c8 1420     		movs	r0, #20
 3480 00ca FFF7FEFF 		bl	NVIC_EnableIRQ
 3481 00ce FB68     		ldr	r3, [r7, #12]
 3482 00d0 1800     		movs	r0, r3
 3483 00d2 FFF7FEFF 		bl	rtc1_init
 3484 00d6 FFF7FEFF 		bl	rtc1_counter_get
 3485 00da 0200     		movs	r2, r0
 3486 00dc 094B     		ldr	r3, .L235+24
 3487 00de 1A60     		str	r2, [r3]
 3488 00e0 0023     		movs	r3, #0
 3489              	.L231:
 3490 00e2 1800     		movs	r0, r3
 3491 00e4 BD46     		mov	sp, r7
 3492 00e6 06B0     		add	sp, sp, #24
 3493              		@ sp needed
 3494 00e8 80BD     		pop	{r7, pc}
ARM GAS  C:\Users\SONG_J~1\AppData\Local\Temp\ccI21FnK.s 			page 59


 3495              	.L236:
 3496 00ea C046     		.align	2
 3497              	.L235:
 3498 00ec 00000000 		.word	mp_users
 3499 00f0 00000000 		.word	m_evt_schedule_func
 3500 00f4 00000000 		.word	m_user_array_size
 3501 00f8 00000000 		.word	mp_timer_id_head
 3502 00fc 00000000 		.word	m_ticks_elapsed_q_read_ind
 3503 0100 00000000 		.word	m_ticks_elapsed_q_write_ind
 3504 0104 00000000 		.word	m_ticks_latest
 3506              		.section	.text.app_timer_create,"ax",%progbits
 3507              		.align	1
 3508              		.global	app_timer_create
 3509              		.syntax unified
 3510              		.code	16
 3511              		.thumb_func
 3512              		.fpu softvfp
 3514              	app_timer_create:
 3515              		@ args = 0, pretend = 0, frame = 24
 3516              		@ frame_needed = 1, uses_anonymous_args = 0
 3517 0000 80B5     		push	{r7, lr}
 3518 0002 86B0     		sub	sp, sp, #24
 3519 0004 00AF     		add	r7, sp, #0
 3520 0006 F860     		str	r0, [r7, #12]
 3521 0008 7A60     		str	r2, [r7, #4]
 3522 000a 0B23     		movs	r3, #11
 3523 000c FB18     		adds	r3, r7, r3
 3524 000e 0A1C     		adds	r2, r1, #0
 3525 0010 1A70     		strb	r2, [r3]
 3526 0012 154B     		ldr	r3, .L243
 3527 0014 1B68     		ldr	r3, [r3]
 3528 0016 002B     		cmp	r3, #0
 3529 0018 01D1     		bne	.L238
 3530 001a 0823     		movs	r3, #8
 3531 001c 1FE0     		b	.L239
 3532              	.L238:
 3533 001e 7B68     		ldr	r3, [r7, #4]
 3534 0020 002B     		cmp	r3, #0
 3535 0022 01D1     		bne	.L240
 3536 0024 0723     		movs	r3, #7
 3537 0026 1AE0     		b	.L239
 3538              	.L240:
 3539 0028 FB68     		ldr	r3, [r7, #12]
 3540 002a 002B     		cmp	r3, #0
 3541 002c 01D1     		bne	.L241
 3542 002e 0723     		movs	r3, #7
 3543 0030 15E0     		b	.L239
 3544              	.L241:
 3545 0032 FB68     		ldr	r3, [r7, #12]
 3546 0034 1B68     		ldr	r3, [r3]
 3547 0036 1B7C     		ldrb	r3, [r3, #16]
 3548 0038 002B     		cmp	r3, #0
 3549 003a 01D0     		beq	.L242
 3550 003c 0823     		movs	r3, #8
 3551 003e 0EE0     		b	.L239
 3552              	.L242:
 3553 0040 FB68     		ldr	r3, [r7, #12]
ARM GAS  C:\Users\SONG_J~1\AppData\Local\Temp\ccI21FnK.s 			page 60


 3554 0042 1B68     		ldr	r3, [r3]
 3555 0044 7B61     		str	r3, [r7, #20]
 3556 0046 7B69     		ldr	r3, [r7, #20]
 3557 0048 0022     		movs	r2, #0
 3558 004a 1A74     		strb	r2, [r3, #16]
 3559 004c 7B69     		ldr	r3, [r7, #20]
 3560 004e 0B22     		movs	r2, #11
 3561 0050 BA18     		adds	r2, r7, r2
 3562 0052 1278     		ldrb	r2, [r2]
 3563 0054 5A74     		strb	r2, [r3, #17]
 3564 0056 7B69     		ldr	r3, [r7, #20]
 3565 0058 7A68     		ldr	r2, [r7, #4]
 3566 005a 5A61     		str	r2, [r3, #20]
 3567 005c 0023     		movs	r3, #0
 3568              	.L239:
 3569 005e 1800     		movs	r0, r3
 3570 0060 BD46     		mov	sp, r7
 3571 0062 06B0     		add	sp, sp, #24
 3572              		@ sp needed
 3573 0064 80BD     		pop	{r7, pc}
 3574              	.L244:
 3575 0066 C046     		.align	2
 3576              	.L243:
 3577 0068 00000000 		.word	mp_users
 3579              		.section	.text.user_id_get,"ax",%progbits
 3580              		.align	1
 3581              		.syntax unified
 3582              		.code	16
 3583              		.thumb_func
 3584              		.fpu softvfp
 3586              	user_id_get:
 3587              		@ args = 0, pretend = 0, frame = 8
 3588              		@ frame_needed = 1, uses_anonymous_args = 0
 3589 0000 80B5     		push	{r7, lr}
 3590 0002 82B0     		sub	sp, sp, #8
 3591 0004 00AF     		add	r7, sp, #0
 3592 0006 FFF7FEFF 		bl	current_int_priority_get
 3593 000a 0300     		movs	r3, r0
 3594 000c 012B     		cmp	r3, #1
 3595 000e 02D0     		beq	.L247
 3596 0010 032B     		cmp	r3, #3
 3597 0012 03D0     		beq	.L248
 3598 0014 05E0     		b	.L251
 3599              	.L247:
 3600 0016 0023     		movs	r3, #0
 3601 0018 7B60     		str	r3, [r7, #4]
 3602 001a 05E0     		b	.L249
 3603              	.L248:
 3604 001c 0123     		movs	r3, #1
 3605 001e 7B60     		str	r3, [r7, #4]
 3606 0020 02E0     		b	.L249
 3607              	.L251:
 3608 0022 0223     		movs	r3, #2
 3609 0024 7B60     		str	r3, [r7, #4]
 3610 0026 C046     		nop
 3611              	.L249:
 3612 0028 7B68     		ldr	r3, [r7, #4]
ARM GAS  C:\Users\SONG_J~1\AppData\Local\Temp\ccI21FnK.s 			page 61


 3613 002a 1800     		movs	r0, r3
 3614 002c BD46     		mov	sp, r7
 3615 002e 02B0     		add	sp, sp, #8
 3616              		@ sp needed
 3617 0030 80BD     		pop	{r7, pc}
 3619              		.section	.text.app_timer_start,"ax",%progbits
 3620              		.align	1
 3621              		.global	app_timer_start
 3622              		.syntax unified
 3623              		.code	16
 3624              		.thumb_func
 3625              		.fpu softvfp
 3627              	app_timer_start:
 3628              		@ args = 0, pretend = 0, frame = 24
 3629              		@ frame_needed = 1, uses_anonymous_args = 0
 3630 0000 90B5     		push	{r4, r7, lr}
 3631 0002 89B0     		sub	sp, sp, #36
 3632 0004 02AF     		add	r7, sp, #8
 3633 0006 F860     		str	r0, [r7, #12]
 3634 0008 B960     		str	r1, [r7, #8]
 3635 000a 7A60     		str	r2, [r7, #4]
 3636 000c FB68     		ldr	r3, [r7, #12]
 3637 000e 7B61     		str	r3, [r7, #20]
 3638 0010 174B     		ldr	r3, .L260
 3639 0012 1B68     		ldr	r3, [r3]
 3640 0014 002B     		cmp	r3, #0
 3641 0016 01D1     		bne	.L253
 3642 0018 0823     		movs	r3, #8
 3643 001a 24E0     		b	.L254
 3644              	.L253:
 3645 001c FB68     		ldr	r3, [r7, #12]
 3646 001e 002B     		cmp	r3, #0
 3647 0020 01D1     		bne	.L255
 3648 0022 0823     		movs	r3, #8
 3649 0024 1FE0     		b	.L254
 3650              	.L255:
 3651 0026 BB68     		ldr	r3, [r7, #8]
 3652 0028 042B     		cmp	r3, #4
 3653 002a 01D8     		bhi	.L256
 3654 002c 0723     		movs	r3, #7
 3655 002e 1AE0     		b	.L254
 3656              	.L256:
 3657 0030 7B69     		ldr	r3, [r7, #20]
 3658 0032 5B69     		ldr	r3, [r3, #20]
 3659 0034 002B     		cmp	r3, #0
 3660 0036 01D1     		bne	.L257
 3661 0038 0823     		movs	r3, #8
 3662 003a 14E0     		b	.L254
 3663              	.L257:
 3664 003c 7B69     		ldr	r3, [r7, #20]
 3665 003e 5B7C     		ldrb	r3, [r3, #17]
 3666 0040 012B     		cmp	r3, #1
 3667 0042 01D1     		bne	.L258
 3668 0044 BB68     		ldr	r3, [r7, #8]
 3669 0046 00E0     		b	.L259
 3670              	.L258:
 3671 0048 0023     		movs	r3, #0
ARM GAS  C:\Users\SONG_J~1\AppData\Local\Temp\ccI21FnK.s 			page 62


 3672              	.L259:
 3673 004a 3B61     		str	r3, [r7, #16]
 3674 004c FFF7FEFF 		bl	user_id_get
 3675 0050 0400     		movs	r4, r0
 3676 0052 3869     		ldr	r0, [r7, #16]
 3677 0054 BA68     		ldr	r2, [r7, #8]
 3678 0056 7969     		ldr	r1, [r7, #20]
 3679 0058 7B68     		ldr	r3, [r7, #4]
 3680 005a 0093     		str	r3, [sp]
 3681 005c 0300     		movs	r3, r0
 3682 005e 2000     		movs	r0, r4
 3683 0060 FFF7FEFF 		bl	timer_start_op_schedule
 3684 0064 0300     		movs	r3, r0
 3685              	.L254:
 3686 0066 1800     		movs	r0, r3
 3687 0068 BD46     		mov	sp, r7
 3688 006a 07B0     		add	sp, sp, #28
 3689              		@ sp needed
 3690 006c 90BD     		pop	{r4, r7, pc}
 3691              	.L261:
 3692 006e C046     		.align	2
 3693              	.L260:
 3694 0070 00000000 		.word	mp_users
 3696              		.section	.text.app_timer_stop,"ax",%progbits
 3697              		.align	1
 3698              		.global	app_timer_stop
 3699              		.syntax unified
 3700              		.code	16
 3701              		.thumb_func
 3702              		.fpu softvfp
 3704              	app_timer_stop:
 3705              		@ args = 0, pretend = 0, frame = 16
 3706              		@ frame_needed = 1, uses_anonymous_args = 0
 3707 0000 80B5     		push	{r7, lr}
 3708 0002 84B0     		sub	sp, sp, #16
 3709 0004 00AF     		add	r7, sp, #0
 3710 0006 7860     		str	r0, [r7, #4]
 3711 0008 7B68     		ldr	r3, [r7, #4]
 3712 000a FB60     		str	r3, [r7, #12]
 3713 000c 0F4B     		ldr	r3, .L267
 3714 000e 1B68     		ldr	r3, [r3]
 3715 0010 002B     		cmp	r3, #0
 3716 0012 01D1     		bne	.L263
 3717 0014 0823     		movs	r3, #8
 3718 0016 14E0     		b	.L264
 3719              	.L263:
 3720 0018 7B68     		ldr	r3, [r7, #4]
 3721 001a 002B     		cmp	r3, #0
 3722 001c 03D0     		beq	.L265
 3723 001e FB68     		ldr	r3, [r7, #12]
 3724 0020 5B69     		ldr	r3, [r3, #20]
 3725 0022 002B     		cmp	r3, #0
 3726 0024 01D1     		bne	.L266
 3727              	.L265:
 3728 0026 0823     		movs	r3, #8
 3729 0028 0BE0     		b	.L264
 3730              	.L266:
ARM GAS  C:\Users\SONG_J~1\AppData\Local\Temp\ccI21FnK.s 			page 63


 3731 002a FB68     		ldr	r3, [r7, #12]
 3732 002c 0022     		movs	r2, #0
 3733 002e 1A74     		strb	r2, [r3, #16]
 3734 0030 FFF7FEFF 		bl	user_id_get
 3735 0034 0200     		movs	r2, r0
 3736 0036 FB68     		ldr	r3, [r7, #12]
 3737 0038 1900     		movs	r1, r3
 3738 003a 1000     		movs	r0, r2
 3739 003c FFF7FEFF 		bl	timer_stop_op_schedule
 3740 0040 0300     		movs	r3, r0
 3741              	.L264:
 3742 0042 1800     		movs	r0, r3
 3743 0044 BD46     		mov	sp, r7
 3744 0046 04B0     		add	sp, sp, #16
 3745              		@ sp needed
 3746 0048 80BD     		pop	{r7, pc}
 3747              	.L268:
 3748 004a C046     		.align	2
 3749              	.L267:
 3750 004c 00000000 		.word	mp_users
 3752              		.section	.text.app_timer_stop_all,"ax",%progbits
 3753              		.align	1
 3754              		.global	app_timer_stop_all
 3755              		.syntax unified
 3756              		.code	16
 3757              		.thumb_func
 3758              		.fpu softvfp
 3760              	app_timer_stop_all:
 3761              		@ args = 0, pretend = 0, frame = 0
 3762              		@ frame_needed = 1, uses_anonymous_args = 0
 3763 0000 80B5     		push	{r7, lr}
 3764 0002 00AF     		add	r7, sp, #0
 3765 0004 074B     		ldr	r3, .L272
 3766 0006 1B68     		ldr	r3, [r3]
 3767 0008 002B     		cmp	r3, #0
 3768 000a 01D1     		bne	.L270
 3769 000c 0823     		movs	r3, #8
 3770 000e 06E0     		b	.L271
 3771              	.L270:
 3772 0010 FFF7FEFF 		bl	user_id_get
 3773 0014 0300     		movs	r3, r0
 3774 0016 1800     		movs	r0, r3
 3775 0018 FFF7FEFF 		bl	timer_stop_all_op_schedule
 3776 001c 0300     		movs	r3, r0
 3777              	.L271:
 3778 001e 1800     		movs	r0, r3
 3779 0020 BD46     		mov	sp, r7
 3780              		@ sp needed
 3781 0022 80BD     		pop	{r7, pc}
 3782              	.L273:
 3783              		.align	2
 3784              	.L272:
 3785 0024 00000000 		.word	mp_users
 3787              		.section	.text.app_timer_cnt_get,"ax",%progbits
 3788              		.align	1
 3789              		.global	app_timer_cnt_get
 3790              		.syntax unified
ARM GAS  C:\Users\SONG_J~1\AppData\Local\Temp\ccI21FnK.s 			page 64


 3791              		.code	16
 3792              		.thumb_func
 3793              		.fpu softvfp
 3795              	app_timer_cnt_get:
 3796              		@ args = 0, pretend = 0, frame = 8
 3797              		@ frame_needed = 1, uses_anonymous_args = 0
 3798 0000 80B5     		push	{r7, lr}
 3799 0002 82B0     		sub	sp, sp, #8
 3800 0004 00AF     		add	r7, sp, #0
 3801 0006 7860     		str	r0, [r7, #4]
 3802 0008 FFF7FEFF 		bl	rtc1_counter_get
 3803 000c 0200     		movs	r2, r0
 3804 000e 7B68     		ldr	r3, [r7, #4]
 3805 0010 1A60     		str	r2, [r3]
 3806 0012 0023     		movs	r3, #0
 3807 0014 1800     		movs	r0, r3
 3808 0016 BD46     		mov	sp, r7
 3809 0018 02B0     		add	sp, sp, #8
 3810              		@ sp needed
 3811 001a 80BD     		pop	{r7, pc}
 3813              		.section	.text.app_timer_cnt_diff_compute,"ax",%progbits
 3814              		.align	1
 3815              		.global	app_timer_cnt_diff_compute
 3816              		.syntax unified
 3817              		.code	16
 3818              		.thumb_func
 3819              		.fpu softvfp
 3821              	app_timer_cnt_diff_compute:
 3822              		@ args = 0, pretend = 0, frame = 16
 3823              		@ frame_needed = 1, uses_anonymous_args = 0
 3824 0000 80B5     		push	{r7, lr}
 3825 0002 84B0     		sub	sp, sp, #16
 3826 0004 00AF     		add	r7, sp, #0
 3827 0006 F860     		str	r0, [r7, #12]
 3828 0008 B960     		str	r1, [r7, #8]
 3829 000a 7A60     		str	r2, [r7, #4]
 3830 000c BA68     		ldr	r2, [r7, #8]
 3831 000e FB68     		ldr	r3, [r7, #12]
 3832 0010 1100     		movs	r1, r2
 3833 0012 1800     		movs	r0, r3
 3834 0014 FFF7FEFF 		bl	ticks_diff_get
 3835 0018 0200     		movs	r2, r0
 3836 001a 7B68     		ldr	r3, [r7, #4]
 3837 001c 1A60     		str	r2, [r3]
 3838 001e 0023     		movs	r3, #0
 3839 0020 1800     		movs	r0, r3
 3840 0022 BD46     		mov	sp, r7
 3841 0024 04B0     		add	sp, sp, #16
 3842              		@ sp needed
 3843 0026 80BD     		pop	{r7, pc}
 3845              		.ident	"GCC: (GNU Tools for Arm Embedded Processors 7-2017-q4-major) 7.2.1 20170904 (release) [ARM
ARM GAS  C:\Users\SONG_J~1\AppData\Local\Temp\ccI21FnK.s 			page 65

