ARM GAS  C:\Users\SONG_J~1\AppData\Local\Temp\ccTtJEUj.s 			page 1


   1              		.cpu cortex-m0
   2              		.eabi_attribute 20, 1
   3              		.eabi_attribute 21, 1
   4              		.eabi_attribute 23, 3
   5              		.eabi_attribute 24, 1
   6              		.eabi_attribute 25, 1
   7              		.eabi_attribute 26, 1
   8              		.eabi_attribute 30, 6
   9              		.eabi_attribute 34, 0
  10              		.eabi_attribute 18, 4
  11              		.file	"block1.c"
  12              		.section	.text.coap_block1_handler,"ax",%progbits
  13              		.align	1
  14              		.global	coap_block1_handler
  15              		.syntax unified
  16              		.code	16
  17              		.thumb_func
  18              		.fpu softvfp
  20              	coap_block1_handler:
  21              		@ args = 20, pretend = 0, frame = 32
  22              		@ frame_needed = 1, uses_anonymous_args = 0
  23 0000 80B5     		push	{r7, lr}
  24 0002 88B0     		sub	sp, sp, #32
  25 0004 00AF     		add	r7, sp, #0
  26 0006 F860     		str	r0, [r7, #12]
  27 0008 7A60     		str	r2, [r7, #4]
  28 000a 3B60     		str	r3, [r7]
  29 000c 0A23     		movs	r3, #10
  30 000e FB18     		adds	r3, r7, r3
  31 0010 0A1C     		adds	r2, r1, #0
  32 0012 1A80     		strh	r2, [r3]
  33 0014 FB68     		ldr	r3, [r7, #12]
  34 0016 1B68     		ldr	r3, [r3]
  35 0018 FB61     		str	r3, [r7, #28]
  36 001a FB6A     		ldr	r3, [r7, #44]
  37 001c 002B     		cmp	r3, #0
  38 001e 32D1     		bne	.L2
  39 0020 FB69     		ldr	r3, [r7, #28]
  40 0022 002B     		cmp	r3, #0
  41 0024 05D0     		beq	.L3
  42 0026 FB69     		ldr	r3, [r7, #28]
  43 0028 1B68     		ldr	r3, [r3]
  44 002a 1800     		movs	r0, r3
  45 002c FFF7FEFF 		bl	lwm2m_free
  46 0030 0CE0     		b	.L4
  47              	.L3:
  48 0032 0C20     		movs	r0, #12
  49 0034 FFF7FEFF 		bl	lwm2m_malloc
  50 0038 0300     		movs	r3, r0
  51 003a FB61     		str	r3, [r7, #28]
  52 003c FB68     		ldr	r3, [r7, #12]
  53 003e FA69     		ldr	r2, [r7, #28]
  54 0040 1A60     		str	r2, [r3]
  55 0042 FB69     		ldr	r3, [r7, #28]
  56 0044 002B     		cmp	r3, #0
  57 0046 01D1     		bne	.L4
  58 0048 A023     		movs	r3, #160
ARM GAS  C:\Users\SONG_J~1\AppData\Local\Temp\ccTtJEUj.s 			page 2


  59 004a 82E0     		b	.L5
  60              	.L4:
  61 004c 3B68     		ldr	r3, [r7]
  62 004e 1800     		movs	r0, r3
  63 0050 FFF7FEFF 		bl	lwm2m_malloc
  64 0054 0200     		movs	r2, r0
  65 0056 FB69     		ldr	r3, [r7, #28]
  66 0058 1A60     		str	r2, [r3]
  67 005a FB69     		ldr	r3, [r7, #28]
  68 005c 3A68     		ldr	r2, [r7]
  69 005e 5A60     		str	r2, [r3, #4]
  70 0060 FB69     		ldr	r3, [r7, #28]
  71 0062 1B68     		ldr	r3, [r3]
  72 0064 002B     		cmp	r3, #0
  73 0066 01D1     		bne	.L6
  74 0068 A023     		movs	r3, #160
  75 006a 72E0     		b	.L5
  76              	.L6:
  77 006c FB69     		ldr	r3, [r7, #28]
  78 006e 1B68     		ldr	r3, [r3]
  79 0070 3A68     		ldr	r2, [r7]
  80 0072 7968     		ldr	r1, [r7, #4]
  81 0074 1800     		movs	r0, r3
  82 0076 FFF7FEFF 		bl	memcpy
  83 007a FB69     		ldr	r3, [r7, #28]
  84 007c 0A22     		movs	r2, #10
  85 007e BA18     		adds	r2, r7, r2
  86 0080 1288     		ldrh	r2, [r2]
  87 0082 1A81     		strh	r2, [r3, #8]
  88 0084 51E0     		b	.L7
  89              	.L2:
  90 0086 FB69     		ldr	r3, [r7, #28]
  91 0088 002B     		cmp	r3, #0
  92 008a 01D1     		bne	.L8
  93 008c 8823     		movs	r3, #136
  94 008e 60E0     		b	.L5
  95              	.L8:
  96 0090 FB69     		ldr	r3, [r7, #28]
  97 0092 1B89     		ldrh	r3, [r3, #8]
  98 0094 0A22     		movs	r2, #10
  99 0096 BA18     		adds	r2, r7, r2
 100 0098 1288     		ldrh	r2, [r2]
 101 009a 9A42     		cmp	r2, r3
 102 009c 45D0     		beq	.L7
 103 009e FB69     		ldr	r3, [r7, #28]
 104 00a0 1B68     		ldr	r3, [r3]
 105 00a2 BB61     		str	r3, [r7, #24]
 106 00a4 FB69     		ldr	r3, [r7, #28]
 107 00a6 5B68     		ldr	r3, [r3, #4]
 108 00a8 7B61     		str	r3, [r7, #20]
 109 00aa FB69     		ldr	r3, [r7, #28]
 110 00ac 5A68     		ldr	r2, [r3, #4]
 111 00ae 2823     		movs	r3, #40
 112 00b0 FB18     		adds	r3, r7, r3
 113 00b2 1B88     		ldrh	r3, [r3]
 114 00b4 F96A     		ldr	r1, [r7, #44]
 115 00b6 4B43     		muls	r3, r1
ARM GAS  C:\Users\SONG_J~1\AppData\Local\Temp\ccTtJEUj.s 			page 3


 116 00b8 9A42     		cmp	r2, r3
 117 00ba 01D0     		beq	.L9
 118 00bc 8823     		movs	r3, #136
 119 00be 48E0     		b	.L5
 120              	.L9:
 121 00c0 FB69     		ldr	r3, [r7, #28]
 122 00c2 5A68     		ldr	r2, [r3, #4]
 123 00c4 3B68     		ldr	r3, [r7]
 124 00c6 D318     		adds	r3, r2, r3
 125 00c8 244A     		ldr	r2, .L13
 126 00ca 9342     		cmp	r3, r2
 127 00cc 01D9     		bls	.L10
 128 00ce 8D23     		movs	r3, #141
 129 00d0 3FE0     		b	.L5
 130              	.L10:
 131 00d2 7A69     		ldr	r2, [r7, #20]
 132 00d4 3B68     		ldr	r3, [r7]
 133 00d6 D218     		adds	r2, r2, r3
 134 00d8 FB69     		ldr	r3, [r7, #28]
 135 00da 5A60     		str	r2, [r3, #4]
 136 00dc FB69     		ldr	r3, [r7, #28]
 137 00de 5B68     		ldr	r3, [r3, #4]
 138 00e0 1800     		movs	r0, r3
 139 00e2 FFF7FEFF 		bl	lwm2m_malloc
 140 00e6 0200     		movs	r2, r0
 141 00e8 FB69     		ldr	r3, [r7, #28]
 142 00ea 1A60     		str	r2, [r3]
 143 00ec FB69     		ldr	r3, [r7, #28]
 144 00ee 1B68     		ldr	r3, [r3]
 145 00f0 002B     		cmp	r3, #0
 146 00f2 01D1     		bne	.L11
 147 00f4 A023     		movs	r3, #160
 148 00f6 2CE0     		b	.L5
 149              	.L11:
 150 00f8 FB69     		ldr	r3, [r7, #28]
 151 00fa 1B68     		ldr	r3, [r3]
 152 00fc 7A69     		ldr	r2, [r7, #20]
 153 00fe B969     		ldr	r1, [r7, #24]
 154 0100 1800     		movs	r0, r3
 155 0102 FFF7FEFF 		bl	memcpy
 156 0106 BB69     		ldr	r3, [r7, #24]
 157 0108 1800     		movs	r0, r3
 158 010a FFF7FEFF 		bl	lwm2m_free
 159 010e FB69     		ldr	r3, [r7, #28]
 160 0110 1A68     		ldr	r2, [r3]
 161 0112 7B69     		ldr	r3, [r7, #20]
 162 0114 D318     		adds	r3, r2, r3
 163 0116 3A68     		ldr	r2, [r7]
 164 0118 7968     		ldr	r1, [r7, #4]
 165 011a 1800     		movs	r0, r3
 166 011c FFF7FEFF 		bl	memcpy
 167 0120 FB69     		ldr	r3, [r7, #28]
 168 0122 0A22     		movs	r2, #10
 169 0124 BA18     		adds	r2, r7, r2
 170 0126 1288     		ldrh	r2, [r2]
 171 0128 1A81     		strh	r2, [r3, #8]
 172              	.L7:
ARM GAS  C:\Users\SONG_J~1\AppData\Local\Temp\ccTtJEUj.s 			page 4


 173 012a 3023     		movs	r3, #48
 174 012c FB18     		adds	r3, r7, r3
 175 012e 1B78     		ldrb	r3, [r3]
 176 0130 002B     		cmp	r3, #0
 177 0132 05D0     		beq	.L12
 178 0134 BB6B     		ldr	r3, [r7, #56]
 179 0136 0122     		movs	r2, #1
 180 0138 5242     		rsbs	r2, r2, #0
 181 013a 1A60     		str	r2, [r3]
 182 013c 5F23     		movs	r3, #95
 183 013e 08E0     		b	.L5
 184              	.L12:
 185 0140 FB69     		ldr	r3, [r7, #28]
 186 0142 5A68     		ldr	r2, [r3, #4]
 187 0144 BB6B     		ldr	r3, [r7, #56]
 188 0146 1A60     		str	r2, [r3]
 189 0148 FB69     		ldr	r3, [r7, #28]
 190 014a 1A68     		ldr	r2, [r3]
 191 014c 7B6B     		ldr	r3, [r7, #52]
 192 014e 1A60     		str	r2, [r3]
 193 0150 0023     		movs	r3, #0
 194              	.L5:
 195 0152 1800     		movs	r0, r3
 196 0154 BD46     		mov	sp, r7
 197 0156 08B0     		add	sp, sp, #32
 198              		@ sp needed
 199 0158 80BD     		pop	{r7, pc}
 200              	.L14:
 201 015a C046     		.align	2
 202              	.L13:
 203 015c FF0F0000 		.word	4095
 205              		.section	.text.free_block1_buffer,"ax",%progbits
 206              		.align	1
 207              		.global	free_block1_buffer
 208              		.syntax unified
 209              		.code	16
 210              		.thumb_func
 211              		.fpu softvfp
 213              	free_block1_buffer:
 214              		@ args = 0, pretend = 0, frame = 8
 215              		@ frame_needed = 1, uses_anonymous_args = 0
 216 0000 80B5     		push	{r7, lr}
 217 0002 82B0     		sub	sp, sp, #8
 218 0004 00AF     		add	r7, sp, #0
 219 0006 7860     		str	r0, [r7, #4]
 220 0008 7B68     		ldr	r3, [r7, #4]
 221 000a 002B     		cmp	r3, #0
 222 000c 0BD0     		beq	.L17
 223 000e 7B68     		ldr	r3, [r7, #4]
 224 0010 1B68     		ldr	r3, [r3]
 225 0012 1800     		movs	r0, r3
 226 0014 FFF7FEFF 		bl	lwm2m_free
 227 0018 7B68     		ldr	r3, [r7, #4]
 228 001a 0022     		movs	r2, #0
 229 001c 5A60     		str	r2, [r3, #4]
 230 001e 7B68     		ldr	r3, [r7, #4]
 231 0020 1800     		movs	r0, r3
ARM GAS  C:\Users\SONG_J~1\AppData\Local\Temp\ccTtJEUj.s 			page 5


 232 0022 FFF7FEFF 		bl	lwm2m_free
 233              	.L17:
 234 0026 C046     		nop
 235 0028 BD46     		mov	sp, r7
 236 002a 02B0     		add	sp, sp, #8
 237              		@ sp needed
 238 002c 80BD     		pop	{r7, pc}
 240              		.ident	"GCC: (GNU Tools for Arm Embedded Processors 7-2017-q4-major) 7.2.1 20170904 (release) [ARM
ARM GAS  C:\Users\SONG_J~1\AppData\Local\Temp\ccTtJEUj.s 			page 6


DEFINED SYMBOLS
                            *ABS*:00000000 block1.c
C:\Users\SONG_J~1\AppData\Local\Temp\ccTtJEUj.s:13     .text.coap_block1_handler:00000000 $t
C:\Users\SONG_J~1\AppData\Local\Temp\ccTtJEUj.s:20     .text.coap_block1_handler:00000000 coap_block1_handler
C:\Users\SONG_J~1\AppData\Local\Temp\ccTtJEUj.s:203    .text.coap_block1_handler:0000015c $d
C:\Users\SONG_J~1\AppData\Local\Temp\ccTtJEUj.s:206    .text.free_block1_buffer:00000000 $t
C:\Users\SONG_J~1\AppData\Local\Temp\ccTtJEUj.s:213    .text.free_block1_buffer:00000000 free_block1_buffer

UNDEFINED SYMBOLS
lwm2m_free
lwm2m_malloc
memcpy
