ARM GAS  C:\Users\SONG_J~1\AppData\Local\Temp\cciyiCte.s 			page 1


   1              		.cpu cortex-m0
   2              		.eabi_attribute 20, 1
   3              		.eabi_attribute 21, 1
   4              		.eabi_attribute 23, 3
   5              		.eabi_attribute 24, 1
   6              		.eabi_attribute 25, 1
   7              		.eabi_attribute 26, 1
   8              		.eabi_attribute 30, 6
   9              		.eabi_attribute 34, 0
  10              		.eabi_attribute 18, 4
  11              		.file	"discover.c"
  12              		.section	.text.prv_findAttributes,"ax",%progbits
  13              		.align	1
  14              		.syntax unified
  15              		.code	16
  16              		.thumb_func
  17              		.fpu softvfp
  19              	prv_findAttributes:
  20              		@ args = 0, pretend = 0, frame = 32
  21              		@ frame_needed = 1, uses_anonymous_args = 0
  22 0000 80B5     		push	{r7, lr}
  23 0002 88B0     		sub	sp, sp, #32
  24 0004 00AF     		add	r7, sp, #0
  25 0006 F860     		str	r0, [r7, #12]
  26 0008 B960     		str	r1, [r7, #8]
  27 000a 7A60     		str	r2, [r7, #4]
  28 000c 0023     		movs	r3, #0
  29 000e BB61     		str	r3, [r7, #24]
  30 0010 FB68     		ldr	r3, [r7, #12]
  31 0012 002B     		cmp	r3, #0
  32 0014 01D1     		bne	.L2
  33 0016 0023     		movs	r3, #0
  34 0018 28E0     		b	.L3
  35              	.L2:
  36 001a 7B68     		ldr	r3, [r7, #4]
  37 001c 002B     		cmp	r3, #0
  38 001e 01D1     		bne	.L4
  39 0020 0023     		movs	r3, #0
  40 0022 23E0     		b	.L3
  41              	.L4:
  42 0024 BA68     		ldr	r2, [r7, #8]
  43 0026 FB68     		ldr	r3, [r7, #12]
  44 0028 1100     		movs	r1, r2
  45 002a 1800     		movs	r0, r3
  46 002c FFF7FEFF 		bl	observe_findByUri
  47 0030 0300     		movs	r3, r0
  48 0032 7B61     		str	r3, [r7, #20]
  49 0034 7B69     		ldr	r3, [r7, #20]
  50 0036 002B     		cmp	r3, #0
  51 0038 03D0     		beq	.L5
  52 003a 7B69     		ldr	r3, [r7, #20]
  53 003c DB68     		ldr	r3, [r3, #12]
  54 003e 002B     		cmp	r3, #0
  55 0040 01D1     		bne	.L6
  56              	.L5:
  57 0042 0023     		movs	r3, #0
  58 0044 12E0     		b	.L3
ARM GAS  C:\Users\SONG_J~1\AppData\Local\Temp\cciyiCte.s 			page 2


  59              	.L6:
  60 0046 7B69     		ldr	r3, [r7, #20]
  61 0048 DB68     		ldr	r3, [r3, #12]
  62 004a FB61     		str	r3, [r7, #28]
  63 004c 0AE0     		b	.L7
  64              	.L9:
  65 004e FB69     		ldr	r3, [r7, #28]
  66 0050 9B68     		ldr	r3, [r3, #8]
  67 0052 7A68     		ldr	r2, [r7, #4]
  68 0054 9A42     		cmp	r2, r3
  69 0056 02D1     		bne	.L8
  70 0058 FB69     		ldr	r3, [r7, #28]
  71 005a DB68     		ldr	r3, [r3, #12]
  72 005c BB61     		str	r3, [r7, #24]
  73              	.L8:
  74 005e FB69     		ldr	r3, [r7, #28]
  75 0060 1B68     		ldr	r3, [r3]
  76 0062 FB61     		str	r3, [r7, #28]
  77              	.L7:
  78 0064 FB69     		ldr	r3, [r7, #28]
  79 0066 002B     		cmp	r3, #0
  80 0068 F1D1     		bne	.L9
  81 006a BB69     		ldr	r3, [r7, #24]
  82              	.L3:
  83 006c 1800     		movs	r0, r3
  84 006e BD46     		mov	sp, r7
  85 0070 08B0     		add	sp, sp, #32
  86              		@ sp needed
  87 0072 80BD     		pop	{r7, pc}
  89              		.section	.rodata
  90              		.align	2
  91              	.LC0:
  92 0000 3B00     		.ascii	";\000"
  93 0002 0000     		.align	2
  94              	.LC2:
  95 0004 706D696E 		.ascii	"pmin=\000"
  95      3D00
  96 000a 0000     		.align	2
  97              	.LC4:
  98 000c 706D6178 		.ascii	"pmax=\000"
  98      3D00
  99 0012 0000     		.align	2
 100              	.LC6:
 101 0014 67743D00 		.ascii	"gt=\000"
 102              		.align	2
 103              	.LC8:
 104 0018 6C743D00 		.ascii	"lt=\000"
 105              		.align	2
 106              	.LC10:
 107 001c 73743D00 		.ascii	"st=\000"
 108              		.align	2
 109              	.LC12:
 110 0020 2C00     		.ascii	",\000"
 111              		.section	.text.prv_serializeAttributes,"ax",%progbits
 112              		.align	1
 113              		.syntax unified
 114              		.code	16
ARM GAS  C:\Users\SONG_J~1\AppData\Local\Temp\cciyiCte.s 			page 3


 115              		.thumb_func
 116              		.fpu softvfp
 118              	prv_serializeAttributes:
 119              		@ args = 12, pretend = 0, frame = 56
 120              		@ frame_needed = 1, uses_anonymous_args = 0
 121 0000 B0B5     		push	{r4, r5, r7, lr}
 122 0002 8EB0     		sub	sp, sp, #56
 123 0004 00AF     		add	r7, sp, #0
 124 0006 7862     		str	r0, [r7, #36]
 125 0008 3962     		str	r1, [r7, #32]
 126 000a FA61     		str	r2, [r7, #28]
 127 000c BB61     		str	r3, [r7, #24]
 128 000e 0023     		movs	r3, #0
 129 0010 7B63     		str	r3, [r7, #52]
 130 0012 FA69     		ldr	r2, [r7, #28]
 131 0014 396A     		ldr	r1, [r7, #32]
 132 0016 7B6A     		ldr	r3, [r7, #36]
 133 0018 1800     		movs	r0, r3
 134 001a FFF7FEFF 		bl	prv_findAttributes
 135 001e 0300     		movs	r3, r0
 136 0020 3B63     		str	r3, [r7, #48]
 137 0022 3B6B     		ldr	r3, [r7, #48]
 138 0024 002B     		cmp	r3, #0
 139 0026 01D1     		bne	.L11
 140 0028 BB69     		ldr	r3, [r7, #24]
 141 002a 3B63     		str	r3, [r7, #48]
 142              	.L11:
 143 002c 3B6B     		ldr	r3, [r7, #48]
 144 002e 002B     		cmp	r3, #0
 145 0030 00D1     		bne	.LCB116
 146 0032 05E2     		b	.L12	@long jump
 147              	.LCB116:
 148 0034 FB6C     		ldr	r3, [r7, #76]
 149 0036 7B63     		str	r3, [r7, #52]
 150 0038 3B6B     		ldr	r3, [r7, #48]
 151 003a 1B78     		ldrb	r3, [r3]
 152 003c 1A00     		movs	r2, r3
 153 003e 0123     		movs	r3, #1
 154 0040 1340     		ands	r3, r2
 155 0042 41D0     		beq	.L13
 156 0044 7B6B     		ldr	r3, [r7, #52]
 157 0046 3A6D     		ldr	r2, [r7, #80]
 158 0048 9A42     		cmp	r2, r3
 159 004a 02D1     		bne	.L14
 160 004c 0123     		movs	r3, #1
 161 004e 5B42     		rsbs	r3, r3, #0
 162 0050 FFE1     		b	.L15
 163              	.L14:
 164 0052 7B6B     		ldr	r3, [r7, #52]
 165 0054 BA6C     		ldr	r2, [r7, #72]
 166 0056 D318     		adds	r3, r2, r3
 167 0058 D049     		ldr	r1, .L44
 168 005a 0122     		movs	r2, #1
 169 005c 1800     		movs	r0, r3
 170 005e FFF7FEFF 		bl	memcpy
 171 0062 7B6B     		ldr	r3, [r7, #52]
 172 0064 0133     		adds	r3, r3, #1
ARM GAS  C:\Users\SONG_J~1\AppData\Local\Temp\cciyiCte.s 			page 4


 173 0066 7B63     		str	r3, [r7, #52]
 174 0068 7B6B     		ldr	r3, [r7, #52]
 175 006a 3A6D     		ldr	r2, [r7, #80]
 176 006c D31A     		subs	r3, r2, r3
 177 006e 042B     		cmp	r3, #4
 178 0070 02D8     		bhi	.L16
 179 0072 0123     		movs	r3, #1
 180 0074 5B42     		rsbs	r3, r3, #0
 181 0076 ECE1     		b	.L15
 182              	.L16:
 183 0078 7B6B     		ldr	r3, [r7, #52]
 184 007a BA6C     		ldr	r2, [r7, #72]
 185 007c D318     		adds	r3, r2, r3
 186 007e C849     		ldr	r1, .L44+4
 187 0080 0522     		movs	r2, #5
 188 0082 1800     		movs	r0, r3
 189 0084 FFF7FEFF 		bl	memcpy
 190 0088 7B6B     		ldr	r3, [r7, #52]
 191 008a 0533     		adds	r3, r3, #5
 192 008c 7B63     		str	r3, [r7, #52]
 193 008e 3B6B     		ldr	r3, [r7, #48]
 194 0090 5B68     		ldr	r3, [r3, #4]
 195 0092 3B61     		str	r3, [r7, #16]
 196 0094 0023     		movs	r3, #0
 197 0096 7B61     		str	r3, [r7, #20]
 198 0098 7B6B     		ldr	r3, [r7, #52]
 199 009a BA6C     		ldr	r2, [r7, #72]
 200 009c D118     		adds	r1, r2, r3
 201 009e 7B6B     		ldr	r3, [r7, #52]
 202 00a0 3A6D     		ldr	r2, [r7, #80]
 203 00a2 D31A     		subs	r3, r2, r3
 204 00a4 0A00     		movs	r2, r1
 205 00a6 3869     		ldr	r0, [r7, #16]
 206 00a8 7969     		ldr	r1, [r7, #20]
 207 00aa FFF7FEFF 		bl	utils_intToText
 208 00ae 0300     		movs	r3, r0
 209 00b0 FB62     		str	r3, [r7, #44]
 210 00b2 FB6A     		ldr	r3, [r7, #44]
 211 00b4 002B     		cmp	r3, #0
 212 00b6 02DC     		bgt	.L17
 213 00b8 0123     		movs	r3, #1
 214 00ba 5B42     		rsbs	r3, r3, #0
 215 00bc C9E1     		b	.L15
 216              	.L17:
 217 00be 7A6B     		ldr	r2, [r7, #52]
 218 00c0 FB6A     		ldr	r3, [r7, #44]
 219 00c2 D318     		adds	r3, r2, r3
 220 00c4 7B63     		str	r3, [r7, #52]
 221 00c6 46E0     		b	.L18
 222              	.L13:
 223 00c8 BB69     		ldr	r3, [r7, #24]
 224 00ca 1B78     		ldrb	r3, [r3]
 225 00cc 1A00     		movs	r2, r3
 226 00ce 0123     		movs	r3, #1
 227 00d0 1340     		ands	r3, r2
 228 00d2 40D0     		beq	.L18
 229 00d4 7B6B     		ldr	r3, [r7, #52]
ARM GAS  C:\Users\SONG_J~1\AppData\Local\Temp\cciyiCte.s 			page 5


 230 00d6 3A6D     		ldr	r2, [r7, #80]
 231 00d8 9A42     		cmp	r2, r3
 232 00da 02D1     		bne	.L19
 233 00dc 0123     		movs	r3, #1
 234 00de 5B42     		rsbs	r3, r3, #0
 235 00e0 B7E1     		b	.L15
 236              	.L19:
 237 00e2 7B6B     		ldr	r3, [r7, #52]
 238 00e4 BA6C     		ldr	r2, [r7, #72]
 239 00e6 D318     		adds	r3, r2, r3
 240 00e8 AC49     		ldr	r1, .L44
 241 00ea 0122     		movs	r2, #1
 242 00ec 1800     		movs	r0, r3
 243 00ee FFF7FEFF 		bl	memcpy
 244 00f2 7B6B     		ldr	r3, [r7, #52]
 245 00f4 0133     		adds	r3, r3, #1
 246 00f6 7B63     		str	r3, [r7, #52]
 247 00f8 7B6B     		ldr	r3, [r7, #52]
 248 00fa 3A6D     		ldr	r2, [r7, #80]
 249 00fc D31A     		subs	r3, r2, r3
 250 00fe 042B     		cmp	r3, #4
 251 0100 02D8     		bhi	.L20
 252 0102 0123     		movs	r3, #1
 253 0104 5B42     		rsbs	r3, r3, #0
 254 0106 A4E1     		b	.L15
 255              	.L20:
 256 0108 7B6B     		ldr	r3, [r7, #52]
 257 010a BA6C     		ldr	r2, [r7, #72]
 258 010c D318     		adds	r3, r2, r3
 259 010e A449     		ldr	r1, .L44+4
 260 0110 0522     		movs	r2, #5
 261 0112 1800     		movs	r0, r3
 262 0114 FFF7FEFF 		bl	memcpy
 263 0118 7B6B     		ldr	r3, [r7, #52]
 264 011a 0533     		adds	r3, r3, #5
 265 011c 7B63     		str	r3, [r7, #52]
 266 011e BB69     		ldr	r3, [r7, #24]
 267 0120 5B68     		ldr	r3, [r3, #4]
 268 0122 BB60     		str	r3, [r7, #8]
 269 0124 0023     		movs	r3, #0
 270 0126 FB60     		str	r3, [r7, #12]
 271 0128 7B6B     		ldr	r3, [r7, #52]
 272 012a BA6C     		ldr	r2, [r7, #72]
 273 012c D118     		adds	r1, r2, r3
 274 012e 7B6B     		ldr	r3, [r7, #52]
 275 0130 3A6D     		ldr	r2, [r7, #80]
 276 0132 D31A     		subs	r3, r2, r3
 277 0134 0A00     		movs	r2, r1
 278 0136 B868     		ldr	r0, [r7, #8]
 279 0138 F968     		ldr	r1, [r7, #12]
 280 013a FFF7FEFF 		bl	utils_intToText
 281 013e 0300     		movs	r3, r0
 282 0140 FB62     		str	r3, [r7, #44]
 283 0142 FB6A     		ldr	r3, [r7, #44]
 284 0144 002B     		cmp	r3, #0
 285 0146 02DC     		bgt	.L21
 286 0148 0123     		movs	r3, #1
ARM GAS  C:\Users\SONG_J~1\AppData\Local\Temp\cciyiCte.s 			page 6


 287 014a 5B42     		rsbs	r3, r3, #0
 288 014c 81E1     		b	.L15
 289              	.L21:
 290 014e 7A6B     		ldr	r2, [r7, #52]
 291 0150 FB6A     		ldr	r3, [r7, #44]
 292 0152 D318     		adds	r3, r2, r3
 293 0154 7B63     		str	r3, [r7, #52]
 294              	.L18:
 295 0156 3B6B     		ldr	r3, [r7, #48]
 296 0158 1B78     		ldrb	r3, [r3]
 297 015a 1A00     		movs	r2, r3
 298 015c 0223     		movs	r3, #2
 299 015e 1340     		ands	r3, r2
 300 0160 41D0     		beq	.L22
 301 0162 7B6B     		ldr	r3, [r7, #52]
 302 0164 3A6D     		ldr	r2, [r7, #80]
 303 0166 9A42     		cmp	r2, r3
 304 0168 02D1     		bne	.L23
 305 016a 0123     		movs	r3, #1
 306 016c 5B42     		rsbs	r3, r3, #0
 307 016e 70E1     		b	.L15
 308              	.L23:
 309 0170 7B6B     		ldr	r3, [r7, #52]
 310 0172 BA6C     		ldr	r2, [r7, #72]
 311 0174 D318     		adds	r3, r2, r3
 312 0176 8949     		ldr	r1, .L44
 313 0178 0122     		movs	r2, #1
 314 017a 1800     		movs	r0, r3
 315 017c FFF7FEFF 		bl	memcpy
 316 0180 7B6B     		ldr	r3, [r7, #52]
 317 0182 0133     		adds	r3, r3, #1
 318 0184 7B63     		str	r3, [r7, #52]
 319 0186 7B6B     		ldr	r3, [r7, #52]
 320 0188 3A6D     		ldr	r2, [r7, #80]
 321 018a D31A     		subs	r3, r2, r3
 322 018c 042B     		cmp	r3, #4
 323 018e 02D8     		bhi	.L24
 324 0190 0123     		movs	r3, #1
 325 0192 5B42     		rsbs	r3, r3, #0
 326 0194 5DE1     		b	.L15
 327              	.L24:
 328 0196 7B6B     		ldr	r3, [r7, #52]
 329 0198 BA6C     		ldr	r2, [r7, #72]
 330 019a D318     		adds	r3, r2, r3
 331 019c 8149     		ldr	r1, .L44+8
 332 019e 0522     		movs	r2, #5
 333 01a0 1800     		movs	r0, r3
 334 01a2 FFF7FEFF 		bl	memcpy
 335 01a6 7B6B     		ldr	r3, [r7, #52]
 336 01a8 0533     		adds	r3, r3, #5
 337 01aa 7B63     		str	r3, [r7, #52]
 338 01ac 3B6B     		ldr	r3, [r7, #48]
 339 01ae 9B68     		ldr	r3, [r3, #8]
 340 01b0 3B60     		str	r3, [r7]
 341 01b2 0023     		movs	r3, #0
 342 01b4 7B60     		str	r3, [r7, #4]
 343 01b6 7B6B     		ldr	r3, [r7, #52]
ARM GAS  C:\Users\SONG_J~1\AppData\Local\Temp\cciyiCte.s 			page 7


 344 01b8 BA6C     		ldr	r2, [r7, #72]
 345 01ba D118     		adds	r1, r2, r3
 346 01bc 7B6B     		ldr	r3, [r7, #52]
 347 01be 3A6D     		ldr	r2, [r7, #80]
 348 01c0 D31A     		subs	r3, r2, r3
 349 01c2 0A00     		movs	r2, r1
 350 01c4 3868     		ldr	r0, [r7]
 351 01c6 7968     		ldr	r1, [r7, #4]
 352 01c8 FFF7FEFF 		bl	utils_intToText
 353 01cc 0300     		movs	r3, r0
 354 01ce FB62     		str	r3, [r7, #44]
 355 01d0 FB6A     		ldr	r3, [r7, #44]
 356 01d2 002B     		cmp	r3, #0
 357 01d4 02DC     		bgt	.L25
 358 01d6 0123     		movs	r3, #1
 359 01d8 5B42     		rsbs	r3, r3, #0
 360 01da 3AE1     		b	.L15
 361              	.L25:
 362 01dc 7A6B     		ldr	r2, [r7, #52]
 363 01de FB6A     		ldr	r3, [r7, #44]
 364 01e0 D318     		adds	r3, r2, r3
 365 01e2 7B63     		str	r3, [r7, #52]
 366 01e4 46E0     		b	.L26
 367              	.L22:
 368 01e6 BB69     		ldr	r3, [r7, #24]
 369 01e8 1B78     		ldrb	r3, [r3]
 370 01ea 1A00     		movs	r2, r3
 371 01ec 0223     		movs	r3, #2
 372 01ee 1340     		ands	r3, r2
 373 01f0 40D0     		beq	.L26
 374 01f2 7B6B     		ldr	r3, [r7, #52]
 375 01f4 3A6D     		ldr	r2, [r7, #80]
 376 01f6 9A42     		cmp	r2, r3
 377 01f8 02D1     		bne	.L27
 378 01fa 0123     		movs	r3, #1
 379 01fc 5B42     		rsbs	r3, r3, #0
 380 01fe 28E1     		b	.L15
 381              	.L27:
 382 0200 7B6B     		ldr	r3, [r7, #52]
 383 0202 BA6C     		ldr	r2, [r7, #72]
 384 0204 D318     		adds	r3, r2, r3
 385 0206 6549     		ldr	r1, .L44
 386 0208 0122     		movs	r2, #1
 387 020a 1800     		movs	r0, r3
 388 020c FFF7FEFF 		bl	memcpy
 389 0210 7B6B     		ldr	r3, [r7, #52]
 390 0212 0133     		adds	r3, r3, #1
 391 0214 7B63     		str	r3, [r7, #52]
 392 0216 7B6B     		ldr	r3, [r7, #52]
 393 0218 3A6D     		ldr	r2, [r7, #80]
 394 021a D31A     		subs	r3, r2, r3
 395 021c 042B     		cmp	r3, #4
 396 021e 02D8     		bhi	.L28
 397 0220 0123     		movs	r3, #1
 398 0222 5B42     		rsbs	r3, r3, #0
 399 0224 15E1     		b	.L15
 400              	.L28:
ARM GAS  C:\Users\SONG_J~1\AppData\Local\Temp\cciyiCte.s 			page 8


 401 0226 7B6B     		ldr	r3, [r7, #52]
 402 0228 BA6C     		ldr	r2, [r7, #72]
 403 022a D318     		adds	r3, r2, r3
 404 022c 5D49     		ldr	r1, .L44+8
 405 022e 0522     		movs	r2, #5
 406 0230 1800     		movs	r0, r3
 407 0232 FFF7FEFF 		bl	memcpy
 408 0236 7B6B     		ldr	r3, [r7, #52]
 409 0238 0533     		adds	r3, r3, #5
 410 023a 7B63     		str	r3, [r7, #52]
 411 023c BB69     		ldr	r3, [r7, #24]
 412 023e 9B68     		ldr	r3, [r3, #8]
 413 0240 1C00     		movs	r4, r3
 414 0242 0023     		movs	r3, #0
 415 0244 1D00     		movs	r5, r3
 416 0246 7B6B     		ldr	r3, [r7, #52]
 417 0248 BA6C     		ldr	r2, [r7, #72]
 418 024a D118     		adds	r1, r2, r3
 419 024c 7B6B     		ldr	r3, [r7, #52]
 420 024e 3A6D     		ldr	r2, [r7, #80]
 421 0250 D31A     		subs	r3, r2, r3
 422 0252 0A00     		movs	r2, r1
 423 0254 2000     		movs	r0, r4
 424 0256 2900     		movs	r1, r5
 425 0258 FFF7FEFF 		bl	utils_intToText
 426 025c 0300     		movs	r3, r0
 427 025e FB62     		str	r3, [r7, #44]
 428 0260 FB6A     		ldr	r3, [r7, #44]
 429 0262 002B     		cmp	r3, #0
 430 0264 02DC     		bgt	.L29
 431 0266 0123     		movs	r3, #1
 432 0268 5B42     		rsbs	r3, r3, #0
 433 026a F2E0     		b	.L15
 434              	.L29:
 435 026c 7A6B     		ldr	r2, [r7, #52]
 436 026e FB6A     		ldr	r3, [r7, #44]
 437 0270 D318     		adds	r3, r2, r3
 438 0272 7B63     		str	r3, [r7, #52]
 439              	.L26:
 440 0274 3B6B     		ldr	r3, [r7, #48]
 441 0276 1B78     		ldrb	r3, [r3]
 442 0278 1A00     		movs	r2, r3
 443 027a 0423     		movs	r3, #4
 444 027c 1340     		ands	r3, r2
 445 027e 3CD0     		beq	.L30
 446 0280 7B6B     		ldr	r3, [r7, #52]
 447 0282 3A6D     		ldr	r2, [r7, #80]
 448 0284 9A42     		cmp	r2, r3
 449 0286 02D1     		bne	.L31
 450 0288 0123     		movs	r3, #1
 451 028a 5B42     		rsbs	r3, r3, #0
 452 028c E1E0     		b	.L15
 453              	.L31:
 454 028e 7B6B     		ldr	r3, [r7, #52]
 455 0290 BA6C     		ldr	r2, [r7, #72]
 456 0292 D318     		adds	r3, r2, r3
 457 0294 4149     		ldr	r1, .L44
ARM GAS  C:\Users\SONG_J~1\AppData\Local\Temp\cciyiCte.s 			page 9


 458 0296 0122     		movs	r2, #1
 459 0298 1800     		movs	r0, r3
 460 029a FFF7FEFF 		bl	memcpy
 461 029e 7B6B     		ldr	r3, [r7, #52]
 462 02a0 0133     		adds	r3, r3, #1
 463 02a2 7B63     		str	r3, [r7, #52]
 464 02a4 7B6B     		ldr	r3, [r7, #52]
 465 02a6 3A6D     		ldr	r2, [r7, #80]
 466 02a8 D31A     		subs	r3, r2, r3
 467 02aa 022B     		cmp	r3, #2
 468 02ac 02D8     		bhi	.L32
 469 02ae 0123     		movs	r3, #1
 470 02b0 5B42     		rsbs	r3, r3, #0
 471 02b2 CEE0     		b	.L15
 472              	.L32:
 473 02b4 7B6B     		ldr	r3, [r7, #52]
 474 02b6 BA6C     		ldr	r2, [r7, #72]
 475 02b8 D318     		adds	r3, r2, r3
 476 02ba 3B49     		ldr	r1, .L44+12
 477 02bc 0322     		movs	r2, #3
 478 02be 1800     		movs	r0, r3
 479 02c0 FFF7FEFF 		bl	memcpy
 480 02c4 7B6B     		ldr	r3, [r7, #52]
 481 02c6 0333     		adds	r3, r3, #3
 482 02c8 7B63     		str	r3, [r7, #52]
 483 02ca 3B6B     		ldr	r3, [r7, #48]
 484 02cc 1869     		ldr	r0, [r3, #16]
 485 02ce 5969     		ldr	r1, [r3, #20]
 486 02d0 7B6B     		ldr	r3, [r7, #52]
 487 02d2 BA6C     		ldr	r2, [r7, #72]
 488 02d4 D418     		adds	r4, r2, r3
 489 02d6 7B6B     		ldr	r3, [r7, #52]
 490 02d8 3A6D     		ldr	r2, [r7, #80]
 491 02da D31A     		subs	r3, r2, r3
 492 02dc 2200     		movs	r2, r4
 493 02de FFF7FEFF 		bl	utils_floatToText
 494 02e2 0300     		movs	r3, r0
 495 02e4 FB62     		str	r3, [r7, #44]
 496 02e6 FB6A     		ldr	r3, [r7, #44]
 497 02e8 002B     		cmp	r3, #0
 498 02ea 02DC     		bgt	.L33
 499 02ec 0123     		movs	r3, #1
 500 02ee 5B42     		rsbs	r3, r3, #0
 501 02f0 AFE0     		b	.L15
 502              	.L33:
 503 02f2 7A6B     		ldr	r2, [r7, #52]
 504 02f4 FB6A     		ldr	r3, [r7, #44]
 505 02f6 D318     		adds	r3, r2, r3
 506 02f8 7B63     		str	r3, [r7, #52]
 507              	.L30:
 508 02fa 3B6B     		ldr	r3, [r7, #48]
 509 02fc 1B78     		ldrb	r3, [r3]
 510 02fe 1A00     		movs	r2, r3
 511 0300 0823     		movs	r3, #8
 512 0302 1340     		ands	r3, r2
 513 0304 3CD0     		beq	.L34
 514 0306 7B6B     		ldr	r3, [r7, #52]
ARM GAS  C:\Users\SONG_J~1\AppData\Local\Temp\cciyiCte.s 			page 10


 515 0308 3A6D     		ldr	r2, [r7, #80]
 516 030a 9A42     		cmp	r2, r3
 517 030c 02D1     		bne	.L35
 518 030e 0123     		movs	r3, #1
 519 0310 5B42     		rsbs	r3, r3, #0
 520 0312 9EE0     		b	.L15
 521              	.L35:
 522 0314 7B6B     		ldr	r3, [r7, #52]
 523 0316 BA6C     		ldr	r2, [r7, #72]
 524 0318 D318     		adds	r3, r2, r3
 525 031a 2049     		ldr	r1, .L44
 526 031c 0122     		movs	r2, #1
 527 031e 1800     		movs	r0, r3
 528 0320 FFF7FEFF 		bl	memcpy
 529 0324 7B6B     		ldr	r3, [r7, #52]
 530 0326 0133     		adds	r3, r3, #1
 531 0328 7B63     		str	r3, [r7, #52]
 532 032a 7B6B     		ldr	r3, [r7, #52]
 533 032c 3A6D     		ldr	r2, [r7, #80]
 534 032e D31A     		subs	r3, r2, r3
 535 0330 022B     		cmp	r3, #2
 536 0332 02D8     		bhi	.L36
 537 0334 0123     		movs	r3, #1
 538 0336 5B42     		rsbs	r3, r3, #0
 539 0338 8BE0     		b	.L15
 540              	.L36:
 541 033a 7B6B     		ldr	r3, [r7, #52]
 542 033c BA6C     		ldr	r2, [r7, #72]
 543 033e D318     		adds	r3, r2, r3
 544 0340 1A49     		ldr	r1, .L44+16
 545 0342 0322     		movs	r2, #3
 546 0344 1800     		movs	r0, r3
 547 0346 FFF7FEFF 		bl	memcpy
 548 034a 7B6B     		ldr	r3, [r7, #52]
 549 034c 0333     		adds	r3, r3, #3
 550 034e 7B63     		str	r3, [r7, #52]
 551 0350 3B6B     		ldr	r3, [r7, #48]
 552 0352 9869     		ldr	r0, [r3, #24]
 553 0354 D969     		ldr	r1, [r3, #28]
 554 0356 7B6B     		ldr	r3, [r7, #52]
 555 0358 BA6C     		ldr	r2, [r7, #72]
 556 035a D418     		adds	r4, r2, r3
 557 035c 7B6B     		ldr	r3, [r7, #52]
 558 035e 3A6D     		ldr	r2, [r7, #80]
 559 0360 D31A     		subs	r3, r2, r3
 560 0362 2200     		movs	r2, r4
 561 0364 FFF7FEFF 		bl	utils_floatToText
 562 0368 0300     		movs	r3, r0
 563 036a FB62     		str	r3, [r7, #44]
 564 036c FB6A     		ldr	r3, [r7, #44]
 565 036e 002B     		cmp	r3, #0
 566 0370 02DC     		bgt	.L37
 567 0372 0123     		movs	r3, #1
 568 0374 5B42     		rsbs	r3, r3, #0
 569 0376 6CE0     		b	.L15
 570              	.L37:
 571 0378 7A6B     		ldr	r2, [r7, #52]
ARM GAS  C:\Users\SONG_J~1\AppData\Local\Temp\cciyiCte.s 			page 11


 572 037a FB6A     		ldr	r3, [r7, #44]
 573 037c D318     		adds	r3, r2, r3
 574 037e 7B63     		str	r3, [r7, #52]
 575              	.L34:
 576 0380 3B6B     		ldr	r3, [r7, #48]
 577 0382 1B78     		ldrb	r3, [r3]
 578 0384 1A00     		movs	r2, r3
 579 0386 1023     		movs	r3, #16
 580 0388 1340     		ands	r3, r2
 581 038a 47D0     		beq	.L38
 582 038c 7B6B     		ldr	r3, [r7, #52]
 583 038e 3A6D     		ldr	r2, [r7, #80]
 584 0390 9A42     		cmp	r2, r3
 585 0392 0DD1     		bne	.L39
 586 0394 0123     		movs	r3, #1
 587 0396 5B42     		rsbs	r3, r3, #0
 588 0398 5BE0     		b	.L15
 589              	.L45:
 590 039a C046     		.align	2
 591              	.L44:
 592 039c 00000000 		.word	.LC0
 593 03a0 04000000 		.word	.LC2
 594 03a4 0C000000 		.word	.LC4
 595 03a8 14000000 		.word	.LC6
 596 03ac 18000000 		.word	.LC8
 597              	.L39:
 598 03b0 7B6B     		ldr	r3, [r7, #52]
 599 03b2 BA6C     		ldr	r2, [r7, #72]
 600 03b4 D318     		adds	r3, r2, r3
 601 03b6 2949     		ldr	r1, .L46
 602 03b8 0122     		movs	r2, #1
 603 03ba 1800     		movs	r0, r3
 604 03bc FFF7FEFF 		bl	memcpy
 605 03c0 7B6B     		ldr	r3, [r7, #52]
 606 03c2 0133     		adds	r3, r3, #1
 607 03c4 7B63     		str	r3, [r7, #52]
 608 03c6 7B6B     		ldr	r3, [r7, #52]
 609 03c8 3A6D     		ldr	r2, [r7, #80]
 610 03ca D31A     		subs	r3, r2, r3
 611 03cc 022B     		cmp	r3, #2
 612 03ce 02D8     		bhi	.L40
 613 03d0 0123     		movs	r3, #1
 614 03d2 5B42     		rsbs	r3, r3, #0
 615 03d4 3DE0     		b	.L15
 616              	.L40:
 617 03d6 7B6B     		ldr	r3, [r7, #52]
 618 03d8 BA6C     		ldr	r2, [r7, #72]
 619 03da D318     		adds	r3, r2, r3
 620 03dc 2049     		ldr	r1, .L46+4
 621 03de 0322     		movs	r2, #3
 622 03e0 1800     		movs	r0, r3
 623 03e2 FFF7FEFF 		bl	memcpy
 624 03e6 7B6B     		ldr	r3, [r7, #52]
 625 03e8 0333     		adds	r3, r3, #3
 626 03ea 7B63     		str	r3, [r7, #52]
 627 03ec 3B6B     		ldr	r3, [r7, #48]
 628 03ee 186A     		ldr	r0, [r3, #32]
ARM GAS  C:\Users\SONG_J~1\AppData\Local\Temp\cciyiCte.s 			page 12


 629 03f0 596A     		ldr	r1, [r3, #36]
 630 03f2 7B6B     		ldr	r3, [r7, #52]
 631 03f4 BA6C     		ldr	r2, [r7, #72]
 632 03f6 D418     		adds	r4, r2, r3
 633 03f8 7B6B     		ldr	r3, [r7, #52]
 634 03fa 3A6D     		ldr	r2, [r7, #80]
 635 03fc D31A     		subs	r3, r2, r3
 636 03fe 2200     		movs	r2, r4
 637 0400 FFF7FEFF 		bl	utils_floatToText
 638 0404 0300     		movs	r3, r0
 639 0406 FB62     		str	r3, [r7, #44]
 640 0408 FB6A     		ldr	r3, [r7, #44]
 641 040a 002B     		cmp	r3, #0
 642 040c 02DC     		bgt	.L41
 643 040e 0123     		movs	r3, #1
 644 0410 5B42     		rsbs	r3, r3, #0
 645 0412 1EE0     		b	.L15
 646              	.L41:
 647 0414 7A6B     		ldr	r2, [r7, #52]
 648 0416 FB6A     		ldr	r3, [r7, #44]
 649 0418 D318     		adds	r3, r2, r3
 650 041a 7B63     		str	r3, [r7, #52]
 651              	.L38:
 652 041c 7B6B     		ldr	r3, [r7, #52]
 653 041e 3A6D     		ldr	r2, [r7, #80]
 654 0420 9A42     		cmp	r2, r3
 655 0422 02D1     		bne	.L42
 656 0424 0123     		movs	r3, #1
 657 0426 5B42     		rsbs	r3, r3, #0
 658 0428 13E0     		b	.L15
 659              	.L42:
 660 042a 7B6B     		ldr	r3, [r7, #52]
 661 042c BA6C     		ldr	r2, [r7, #72]
 662 042e D318     		adds	r3, r2, r3
 663 0430 0C49     		ldr	r1, .L46+8
 664 0432 0122     		movs	r2, #1
 665 0434 1800     		movs	r0, r3
 666 0436 FFF7FEFF 		bl	memcpy
 667 043a 7B6B     		ldr	r3, [r7, #52]
 668 043c 0133     		adds	r3, r3, #1
 669 043e 7B63     		str	r3, [r7, #52]
 670              	.L12:
 671 0440 7B6B     		ldr	r3, [r7, #52]
 672 0442 002B     		cmp	r3, #0
 673 0444 04DD     		ble	.L43
 674 0446 7A6B     		ldr	r2, [r7, #52]
 675 0448 FB6C     		ldr	r3, [r7, #76]
 676 044a D31A     		subs	r3, r2, r3
 677 044c 013B     		subs	r3, r3, #1
 678 044e 7B63     		str	r3, [r7, #52]
 679              	.L43:
 680 0450 7B6B     		ldr	r3, [r7, #52]
 681              	.L15:
 682 0452 1800     		movs	r0, r3
 683 0454 BD46     		mov	sp, r7
 684 0456 0EB0     		add	sp, sp, #56
 685              		@ sp needed
ARM GAS  C:\Users\SONG_J~1\AppData\Local\Temp\cciyiCte.s 			page 13


 686 0458 B0BD     		pop	{r4, r5, r7, pc}
 687              	.L47:
 688 045a C046     		.align	2
 689              	.L46:
 690 045c 00000000 		.word	.LC0
 691 0460 1C000000 		.word	.LC10
 692 0464 20000000 		.word	.LC12
 694              		.section	.rodata
 695 0022 0000     		.align	2
 696              	.LC14:
 697 0024 3C00     		.ascii	"<\000"
 698 0026 0000     		.align	2
 699              	.LC16:
 700 0028 2F00     		.ascii	"/\000"
 701 002a 0000     		.align	2
 702              	.LC18:
 703 002c 3E3B6469 		.ascii	">;dim=\000"
 703      6D3D00
 704 0033 00       		.align	2
 705              	.LC21:
 706 0034 3E2C00   		.ascii	">,\000"
 707              		.section	.text.prv_serializeLinkData,"ax",%progbits
 708              		.align	1
 709              		.syntax unified
 710              		.code	16
 711              		.thumb_func
 712              		.fpu softvfp
 714              	prv_serializeLinkData:
 715              		@ args = 20, pretend = 0, frame = 80
 716              		@ frame_needed = 1, uses_anonymous_args = 0
 717 0000 F0B5     		push	{r4, r5, r6, r7, lr}
 718 0002 9BB0     		sub	sp, sp, #108
 719 0004 06AF     		add	r7, sp, #24
 720 0006 F861     		str	r0, [r7, #28]
 721 0008 B961     		str	r1, [r7, #24]
 722 000a 7A61     		str	r2, [r7, #20]
 723 000c 3B61     		str	r3, [r7, #16]
 724 000e 0023     		movs	r3, #0
 725 0010 FB64     		str	r3, [r7, #76]
 726 0012 BB69     		ldr	r3, [r7, #24]
 727 0014 1B78     		ldrb	r3, [r3]
 728 0016 022B     		cmp	r3, #2
 729 0018 00D1     		bne	.LCB747
 730 001a F6E0     		b	.L50	@long jump
 731              	.LCB747:
 732 001c 02DC     		bgt	.L51
 733 001e 002B     		cmp	r3, #0
 734 0020 03D0     		beq	.L52
 735 0022 01E2     		b	.L49
 736              	.L51:
 737 0024 092B     		cmp	r3, #9
 738 0026 00DD     		ble	.LCB757
 739 0028 FEE1     		b	.L49	@long jump
 740              	.LCB757:
 741              	.L52:
 742 002a BB6F     		ldr	r3, [r7, #120]
 743 002c 002B     		cmp	r3, #0
ARM GAS  C:\Users\SONG_J~1\AppData\Local\Temp\cciyiCte.s 			page 14


 744 002e 02D1     		bne	.L53
 745 0030 0123     		movs	r3, #1
 746 0032 5B42     		rsbs	r3, r3, #0
 747 0034 FDE1     		b	.L83
 748              	.L53:
 749 0036 FB6C     		ldr	r3, [r7, #76]
 750 0038 7A6F     		ldr	r2, [r7, #116]
 751 003a D318     		adds	r3, r2, r3
 752 003c D949     		ldr	r1, .L85
 753 003e 0122     		movs	r2, #1
 754 0040 1800     		movs	r0, r3
 755 0042 FFF7FEFF 		bl	memcpy
 756 0046 0123     		movs	r3, #1
 757 0048 FB64     		str	r3, [r7, #76]
 758 004a 3B6F     		ldr	r3, [r7, #112]
 759 004c 002B     		cmp	r3, #0
 760 004e 14D0     		beq	.L55
 761 0050 FB6C     		ldr	r3, [r7, #76]
 762 0052 BA6F     		ldr	r2, [r7, #120]
 763 0054 D31A     		subs	r3, r2, r3
 764 0056 3A6F     		ldr	r2, [r7, #112]
 765 0058 9A42     		cmp	r2, r3
 766 005a 02D9     		bls	.L56
 767 005c 0123     		movs	r3, #1
 768 005e 5B42     		rsbs	r3, r3, #0
 769 0060 E7E1     		b	.L83
 770              	.L56:
 771 0062 FB6C     		ldr	r3, [r7, #76]
 772 0064 7A6F     		ldr	r2, [r7, #116]
 773 0066 D318     		adds	r3, r2, r3
 774 0068 3A6F     		ldr	r2, [r7, #112]
 775 006a F96E     		ldr	r1, [r7, #108]
 776 006c 1800     		movs	r0, r3
 777 006e FFF7FEFF 		bl	memcpy
 778 0072 FA6C     		ldr	r2, [r7, #76]
 779 0074 3B6F     		ldr	r3, [r7, #112]
 780 0076 D318     		adds	r3, r2, r3
 781 0078 FB64     		str	r3, [r7, #76]
 782              	.L55:
 783 007a FB6C     		ldr	r3, [r7, #76]
 784 007c BA6F     		ldr	r2, [r7, #120]
 785 007e 9A42     		cmp	r2, r3
 786 0080 02D1     		bne	.L57
 787 0082 0123     		movs	r3, #1
 788 0084 5B42     		rsbs	r3, r3, #0
 789 0086 D4E1     		b	.L83
 790              	.L57:
 791 0088 FB6C     		ldr	r3, [r7, #76]
 792 008a 7A6F     		ldr	r2, [r7, #116]
 793 008c D318     		adds	r3, r2, r3
 794 008e C649     		ldr	r1, .L85+4
 795 0090 0122     		movs	r2, #1
 796 0092 1800     		movs	r0, r3
 797 0094 FFF7FEFF 		bl	memcpy
 798 0098 FB6C     		ldr	r3, [r7, #76]
 799 009a 0133     		adds	r3, r3, #1
 800 009c FB64     		str	r3, [r7, #76]
ARM GAS  C:\Users\SONG_J~1\AppData\Local\Temp\cciyiCte.s 			page 15


 801 009e BB69     		ldr	r3, [r7, #24]
 802 00a0 5B88     		ldrh	r3, [r3, #2]
 803 00a2 BB60     		str	r3, [r7, #8]
 804 00a4 0023     		movs	r3, #0
 805 00a6 FB60     		str	r3, [r7, #12]
 806 00a8 FB6C     		ldr	r3, [r7, #76]
 807 00aa 7A6F     		ldr	r2, [r7, #116]
 808 00ac D118     		adds	r1, r2, r3
 809 00ae FB6C     		ldr	r3, [r7, #76]
 810 00b0 BA6F     		ldr	r2, [r7, #120]
 811 00b2 D31A     		subs	r3, r2, r3
 812 00b4 0A00     		movs	r2, r1
 813 00b6 B868     		ldr	r0, [r7, #8]
 814 00b8 F968     		ldr	r1, [r7, #12]
 815 00ba FFF7FEFF 		bl	utils_intToText
 816 00be 0300     		movs	r3, r0
 817 00c0 3B64     		str	r3, [r7, #64]
 818 00c2 3B6C     		ldr	r3, [r7, #64]
 819 00c4 002B     		cmp	r3, #0
 820 00c6 02DC     		bgt	.L58
 821 00c8 0123     		movs	r3, #1
 822 00ca 5B42     		rsbs	r3, r3, #0
 823 00cc B1E1     		b	.L83
 824              	.L58:
 825 00ce FA6C     		ldr	r2, [r7, #76]
 826 00d0 3B6C     		ldr	r3, [r7, #64]
 827 00d2 D318     		adds	r3, r2, r3
 828 00d4 FB64     		str	r3, [r7, #76]
 829 00d6 BB69     		ldr	r3, [r7, #24]
 830 00d8 1B78     		ldrb	r3, [r3]
 831 00da 032B     		cmp	r3, #3
 832 00dc 41D1     		bne	.L59
 833 00de FB6C     		ldr	r3, [r7, #76]
 834 00e0 BA6F     		ldr	r2, [r7, #120]
 835 00e2 D31A     		subs	r3, r2, r3
 836 00e4 052B     		cmp	r3, #5
 837 00e6 02D8     		bhi	.L60
 838 00e8 0123     		movs	r3, #1
 839 00ea 5B42     		rsbs	r3, r3, #0
 840 00ec A1E1     		b	.L83
 841              	.L60:
 842 00ee FB6C     		ldr	r3, [r7, #76]
 843 00f0 7A6F     		ldr	r2, [r7, #116]
 844 00f2 D318     		adds	r3, r2, r3
 845 00f4 AD49     		ldr	r1, .L85+8
 846 00f6 0622     		movs	r2, #6
 847 00f8 1800     		movs	r0, r3
 848 00fa FFF7FEFF 		bl	memcpy
 849 00fe FB6C     		ldr	r3, [r7, #76]
 850 0100 0633     		adds	r3, r3, #6
 851 0102 FB64     		str	r3, [r7, #76]
 852 0104 BB69     		ldr	r3, [r7, #24]
 853 0106 9B68     		ldr	r3, [r3, #8]
 854 0108 3B60     		str	r3, [r7]
 855 010a 0023     		movs	r3, #0
 856 010c 7B60     		str	r3, [r7, #4]
 857 010e FB6C     		ldr	r3, [r7, #76]
ARM GAS  C:\Users\SONG_J~1\AppData\Local\Temp\cciyiCte.s 			page 16


 858 0110 7A6F     		ldr	r2, [r7, #116]
 859 0112 D118     		adds	r1, r2, r3
 860 0114 FB6C     		ldr	r3, [r7, #76]
 861 0116 BA6F     		ldr	r2, [r7, #120]
 862 0118 D31A     		subs	r3, r2, r3
 863 011a 0A00     		movs	r2, r1
 864 011c 3868     		ldr	r0, [r7]
 865 011e 7968     		ldr	r1, [r7, #4]
 866 0120 FFF7FEFF 		bl	utils_intToText
 867 0124 0300     		movs	r3, r0
 868 0126 3B64     		str	r3, [r7, #64]
 869 0128 3B6C     		ldr	r3, [r7, #64]
 870 012a 002B     		cmp	r3, #0
 871 012c 02DC     		bgt	.L61
 872 012e 0123     		movs	r3, #1
 873 0130 5B42     		rsbs	r3, r3, #0
 874 0132 7EE1     		b	.L83
 875              	.L61:
 876 0134 FA6C     		ldr	r2, [r7, #76]
 877 0136 3B6C     		ldr	r3, [r7, #64]
 878 0138 D318     		adds	r3, r2, r3
 879 013a FB64     		str	r3, [r7, #76]
 880 013c FB6C     		ldr	r3, [r7, #76]
 881 013e BA6F     		ldr	r2, [r7, #120]
 882 0140 9A42     		cmp	r2, r3
 883 0142 02D1     		bne	.L62
 884 0144 0123     		movs	r3, #1
 885 0146 5B42     		rsbs	r3, r3, #0
 886 0148 73E1     		b	.L83
 887              	.L62:
 888 014a FB6C     		ldr	r3, [r7, #76]
 889 014c 7A6F     		ldr	r2, [r7, #116]
 890 014e D318     		adds	r3, r2, r3
 891 0150 9749     		ldr	r1, .L85+12
 892 0152 0122     		movs	r2, #1
 893 0154 1800     		movs	r0, r3
 894 0156 FFF7FEFF 		bl	memcpy
 895 015a FB6C     		ldr	r3, [r7, #76]
 896 015c 0133     		adds	r3, r3, #1
 897 015e FB64     		str	r3, [r7, #76]
 898 0160 12E0     		b	.L63
 899              	.L59:
 900 0162 FB6C     		ldr	r3, [r7, #76]
 901 0164 BA6F     		ldr	r2, [r7, #120]
 902 0166 D31A     		subs	r3, r2, r3
 903 0168 012B     		cmp	r3, #1
 904 016a 02D8     		bhi	.L64
 905 016c 0123     		movs	r3, #1
 906 016e 5B42     		rsbs	r3, r3, #0
 907 0170 5FE1     		b	.L83
 908              	.L64:
 909 0172 FB6C     		ldr	r3, [r7, #76]
 910 0174 7A6F     		ldr	r2, [r7, #116]
 911 0176 D318     		adds	r3, r2, r3
 912 0178 8E49     		ldr	r1, .L85+16
 913 017a 0222     		movs	r2, #2
 914 017c 1800     		movs	r0, r3
ARM GAS  C:\Users\SONG_J~1\AppData\Local\Temp\cciyiCte.s 			page 17


 915 017e FFF7FEFF 		bl	memcpy
 916 0182 FB6C     		ldr	r3, [r7, #76]
 917 0184 0233     		adds	r3, r3, #2
 918 0186 FB64     		str	r3, [r7, #76]
 919              	.L63:
 920 0188 7B69     		ldr	r3, [r7, #20]
 921 018a 002B     		cmp	r3, #0
 922 018c 00D1     		bne	.LCB957
 923 018e 4EE1     		b	.L84	@long jump
 924              	.LCB957:
 925 0190 B96E     		ldr	r1, [r7, #104]
 926 0192 2824     		movs	r4, #40
 927 0194 1020     		movs	r0, #16
 928 0196 0500     		movs	r5, r0
 929 0198 3B18     		adds	r3, r7, r0
 930 019a 1B19     		adds	r3, r3, r4
 931 019c 0822     		movs	r2, #8
 932 019e 1800     		movs	r0, r3
 933 01a0 FFF7FEFF 		bl	memcpy
 934 01a4 BB69     		ldr	r3, [r7, #24]
 935 01a6 5A88     		ldrh	r2, [r3, #2]
 936 01a8 2100     		movs	r1, r4
 937 01aa 2800     		movs	r0, r5
 938 01ac 3B18     		adds	r3, r7, r0
 939 01ae 5B18     		adds	r3, r3, r1
 940 01b0 DA80     		strh	r2, [r3, #6]
 941 01b2 3B18     		adds	r3, r7, r0
 942 01b4 5B18     		adds	r3, r3, r1
 943 01b6 1B78     		ldrb	r3, [r3]
 944 01b8 0122     		movs	r2, #1
 945 01ba 1343     		orrs	r3, r2
 946 01bc DAB2     		uxtb	r2, r3
 947 01be 3B18     		adds	r3, r7, r0
 948 01c0 5B18     		adds	r3, r3, r1
 949 01c2 1A70     		strb	r2, [r3]
 950 01c4 FB6C     		ldr	r3, [r7, #76]
 951 01c6 013B     		subs	r3, r3, #1
 952 01c8 1D00     		movs	r5, r3
 953 01ca 3C69     		ldr	r4, [r7, #16]
 954 01cc 7A69     		ldr	r2, [r7, #20]
 955 01ce 1023     		movs	r3, #16
 956 01d0 9C46     		mov	ip, r3
 957 01d2 BC44     		add	ip, ip, r7
 958 01d4 6144     		add	r1, r1, ip
 959 01d6 F869     		ldr	r0, [r7, #28]
 960 01d8 BB6F     		ldr	r3, [r7, #120]
 961 01da 0293     		str	r3, [sp, #8]
 962 01dc 0195     		str	r5, [sp, #4]
 963 01de 7B6F     		ldr	r3, [r7, #116]
 964 01e0 0093     		str	r3, [sp]
 965 01e2 2300     		movs	r3, r4
 966 01e4 FFF7FEFF 		bl	prv_serializeAttributes
 967 01e8 0300     		movs	r3, r0
 968 01ea 3B64     		str	r3, [r7, #64]
 969 01ec 3B6C     		ldr	r3, [r7, #64]
 970 01ee 002B     		cmp	r3, #0
 971 01f0 02DA     		bge	.L66
ARM GAS  C:\Users\SONG_J~1\AppData\Local\Temp\cciyiCte.s 			page 18


 972 01f2 0123     		movs	r3, #1
 973 01f4 5B42     		rsbs	r3, r3, #0
 974 01f6 1CE1     		b	.L83
 975              	.L66:
 976 01f8 3B6C     		ldr	r3, [r7, #64]
 977 01fa 002B     		cmp	r3, #0
 978 01fc 00DC     		bgt	.LCB1020
 979 01fe 16E1     		b	.L84	@long jump
 980              	.LCB1020:
 981 0200 FA6C     		ldr	r2, [r7, #76]
 982 0202 3B6C     		ldr	r3, [r7, #64]
 983 0204 D318     		adds	r3, r2, r3
 984 0206 FB64     		str	r3, [r7, #76]
 985 0208 11E1     		b	.L84
 986              	.L50:
 987 020a 3B6F     		ldr	r3, [r7, #112]
 988 020c 002B     		cmp	r3, #0
 989 020e 12D0     		beq	.L68
 990 0210 3B6F     		ldr	r3, [r7, #112]
 991 0212 122B     		cmp	r3, #18
 992 0214 02D9     		bls	.L69
 993 0216 0123     		movs	r3, #1
 994 0218 5B42     		rsbs	r3, r3, #0
 995 021a 0AE1     		b	.L83
 996              	.L69:
 997 021c 3A6F     		ldr	r2, [r7, #112]
 998 021e F96E     		ldr	r1, [r7, #108]
 999 0220 1423     		movs	r3, #20
 1000 0222 1020     		movs	r0, #16
 1001 0224 8446     		mov	ip, r0
 1002 0226 BC44     		add	ip, ip, r7
 1003 0228 6344     		add	r3, r3, ip
 1004 022a 1800     		movs	r0, r3
 1005 022c FFF7FEFF 		bl	memcpy
 1006 0230 3B6F     		ldr	r3, [r7, #112]
 1007 0232 BB64     		str	r3, [r7, #72]
 1008 0234 01E0     		b	.L71
 1009              	.L68:
 1010 0236 0023     		movs	r3, #0
 1011 0238 BB64     		str	r3, [r7, #72]
 1012              	.L71:
 1013 023a BB6C     		ldr	r3, [r7, #72]
 1014 023c 122B     		cmp	r3, #18
 1015 023e 02D1     		bne	.L72
 1016 0240 0123     		movs	r3, #1
 1017 0242 5B42     		rsbs	r3, r3, #0
 1018 0244 F5E0     		b	.L83
 1019              	.L72:
 1020 0246 1426     		movs	r6, #20
 1021 0248 1023     		movs	r3, #16
 1022 024a FA18     		adds	r2, r7, r3
 1023 024c 9219     		adds	r2, r2, r6
 1024 024e BB6C     		ldr	r3, [r7, #72]
 1025 0250 D318     		adds	r3, r2, r3
 1026 0252 5549     		ldr	r1, .L85+4
 1027 0254 0122     		movs	r2, #1
 1028 0256 1800     		movs	r0, r3
ARM GAS  C:\Users\SONG_J~1\AppData\Local\Temp\cciyiCte.s 			page 19


 1029 0258 FFF7FEFF 		bl	memcpy
 1030 025c BB6C     		ldr	r3, [r7, #72]
 1031 025e 0133     		adds	r3, r3, #1
 1032 0260 BB64     		str	r3, [r7, #72]
 1033 0262 BB69     		ldr	r3, [r7, #24]
 1034 0264 5B88     		ldrh	r3, [r3, #2]
 1035 0266 1C00     		movs	r4, r3
 1036 0268 0023     		movs	r3, #0
 1037 026a 1D00     		movs	r5, r3
 1038 026c 1023     		movs	r3, #16
 1039 026e FB18     		adds	r3, r7, r3
 1040 0270 9A19     		adds	r2, r3, r6
 1041 0272 BB6C     		ldr	r3, [r7, #72]
 1042 0274 D118     		adds	r1, r2, r3
 1043 0276 BB6C     		ldr	r3, [r7, #72]
 1044 0278 1222     		movs	r2, #18
 1045 027a D31A     		subs	r3, r2, r3
 1046 027c 0A00     		movs	r2, r1
 1047 027e 2000     		movs	r0, r4
 1048 0280 2900     		movs	r1, r5
 1049 0282 FFF7FEFF 		bl	utils_intToText
 1050 0286 0300     		movs	r3, r0
 1051 0288 3B64     		str	r3, [r7, #64]
 1052 028a 3B6C     		ldr	r3, [r7, #64]
 1053 028c 002B     		cmp	r3, #0
 1054 028e 02DC     		bgt	.L73
 1055 0290 0123     		movs	r3, #1
 1056 0292 5B42     		rsbs	r3, r3, #0
 1057 0294 CDE0     		b	.L83
 1058              	.L73:
 1059 0296 3B6C     		ldr	r3, [r7, #64]
 1060 0298 BA6C     		ldr	r2, [r7, #72]
 1061 029a D318     		adds	r3, r2, r3
 1062 029c BB64     		str	r3, [r7, #72]
 1063 029e B96E     		ldr	r1, [r7, #104]
 1064 02a0 2824     		movs	r4, #40
 1065 02a2 1020     		movs	r0, #16
 1066 02a4 0500     		movs	r5, r0
 1067 02a6 3B18     		adds	r3, r7, r0
 1068 02a8 1B19     		adds	r3, r3, r4
 1069 02aa 0822     		movs	r2, #8
 1070 02ac 1800     		movs	r0, r3
 1071 02ae FFF7FEFF 		bl	memcpy
 1072 02b2 BB69     		ldr	r3, [r7, #24]
 1073 02b4 5A88     		ldrh	r2, [r3, #2]
 1074 02b6 2100     		movs	r1, r4
 1075 02b8 2800     		movs	r0, r5
 1076 02ba 3B18     		adds	r3, r7, r0
 1077 02bc 5B18     		adds	r3, r3, r1
 1078 02be 9A80     		strh	r2, [r3, #4]
 1079 02c0 3B18     		adds	r3, r7, r0
 1080 02c2 5B18     		adds	r3, r3, r1
 1081 02c4 1B78     		ldrb	r3, [r3]
 1082 02c6 0222     		movs	r2, #2
 1083 02c8 1343     		orrs	r3, r2
 1084 02ca DAB2     		uxtb	r2, r3
 1085 02cc 3B18     		adds	r3, r7, r0
ARM GAS  C:\Users\SONG_J~1\AppData\Local\Temp\cciyiCte.s 			page 20


 1086 02ce 5B18     		adds	r3, r3, r1
 1087 02d0 1A70     		strb	r2, [r3]
 1088 02d2 0023     		movs	r3, #0
 1089 02d4 FB64     		str	r3, [r7, #76]
 1090 02d6 FB6C     		ldr	r3, [r7, #76]
 1091 02d8 BA6F     		ldr	r2, [r7, #120]
 1092 02da 9A42     		cmp	r2, r3
 1093 02dc 02D1     		bne	.L74
 1094 02de 0123     		movs	r3, #1
 1095 02e0 5B42     		rsbs	r3, r3, #0
 1096 02e2 A6E0     		b	.L83
 1097              	.L74:
 1098 02e4 FB6C     		ldr	r3, [r7, #76]
 1099 02e6 7A6F     		ldr	r2, [r7, #116]
 1100 02e8 D318     		adds	r3, r2, r3
 1101 02ea 2E49     		ldr	r1, .L85
 1102 02ec 0122     		movs	r2, #1
 1103 02ee 1800     		movs	r0, r3
 1104 02f0 FFF7FEFF 		bl	memcpy
 1105 02f4 FB6C     		ldr	r3, [r7, #76]
 1106 02f6 0133     		adds	r3, r3, #1
 1107 02f8 FB64     		str	r3, [r7, #76]
 1108 02fa FB6C     		ldr	r3, [r7, #76]
 1109 02fc BA6F     		ldr	r2, [r7, #120]
 1110 02fe D31A     		subs	r3, r2, r3
 1111 0300 BA6C     		ldr	r2, [r7, #72]
 1112 0302 9A42     		cmp	r2, r3
 1113 0304 02D9     		bls	.L75
 1114 0306 0123     		movs	r3, #1
 1115 0308 5B42     		rsbs	r3, r3, #0
 1116 030a 92E0     		b	.L83
 1117              	.L75:
 1118 030c FB6C     		ldr	r3, [r7, #76]
 1119 030e 7A6F     		ldr	r2, [r7, #116]
 1120 0310 D318     		adds	r3, r2, r3
 1121 0312 BA6C     		ldr	r2, [r7, #72]
 1122 0314 1421     		movs	r1, #20
 1123 0316 1020     		movs	r0, #16
 1124 0318 8446     		mov	ip, r0
 1125 031a BC44     		add	ip, ip, r7
 1126 031c 6144     		add	r1, r1, ip
 1127 031e 1800     		movs	r0, r3
 1128 0320 FFF7FEFF 		bl	memcpy
 1129 0324 FA6C     		ldr	r2, [r7, #76]
 1130 0326 BB6C     		ldr	r3, [r7, #72]
 1131 0328 D318     		adds	r3, r2, r3
 1132 032a FB64     		str	r3, [r7, #76]
 1133 032c FB6C     		ldr	r3, [r7, #76]
 1134 032e BA6F     		ldr	r2, [r7, #120]
 1135 0330 D31A     		subs	r3, r2, r3
 1136 0332 012B     		cmp	r3, #1
 1137 0334 02D8     		bhi	.L76
 1138 0336 0123     		movs	r3, #1
 1139 0338 5B42     		rsbs	r3, r3, #0
 1140 033a 7AE0     		b	.L83
 1141              	.L76:
 1142 033c FB6C     		ldr	r3, [r7, #76]
ARM GAS  C:\Users\SONG_J~1\AppData\Local\Temp\cciyiCte.s 			page 21


 1143 033e 7A6F     		ldr	r2, [r7, #116]
 1144 0340 D318     		adds	r3, r2, r3
 1145 0342 1C49     		ldr	r1, .L85+16
 1146 0344 0222     		movs	r2, #2
 1147 0346 1800     		movs	r0, r3
 1148 0348 FFF7FEFF 		bl	memcpy
 1149 034c FB6C     		ldr	r3, [r7, #76]
 1150 034e 0233     		adds	r3, r3, #2
 1151 0350 FB64     		str	r3, [r7, #76]
 1152 0352 7B69     		ldr	r3, [r7, #20]
 1153 0354 002B     		cmp	r3, #0
 1154 0356 22D0     		beq	.L77
 1155 0358 FB6C     		ldr	r3, [r7, #76]
 1156 035a 013B     		subs	r3, r3, #1
 1157 035c 1C00     		movs	r4, r3
 1158 035e 7A69     		ldr	r2, [r7, #20]
 1159 0360 2823     		movs	r3, #40
 1160 0362 1021     		movs	r1, #16
 1161 0364 7918     		adds	r1, r7, r1
 1162 0366 C918     		adds	r1, r1, r3
 1163 0368 F869     		ldr	r0, [r7, #28]
 1164 036a BB6F     		ldr	r3, [r7, #120]
 1165 036c 0293     		str	r3, [sp, #8]
 1166 036e 0194     		str	r4, [sp, #4]
 1167 0370 7B6F     		ldr	r3, [r7, #116]
 1168 0372 0093     		str	r3, [sp]
 1169 0374 0023     		movs	r3, #0
 1170 0376 FFF7FEFF 		bl	prv_serializeAttributes
 1171 037a 0300     		movs	r3, r0
 1172 037c 3B64     		str	r3, [r7, #64]
 1173 037e 3B6C     		ldr	r3, [r7, #64]
 1174 0380 002B     		cmp	r3, #0
 1175 0382 02DA     		bge	.L78
 1176 0384 0123     		movs	r3, #1
 1177 0386 5B42     		rsbs	r3, r3, #0
 1178 0388 53E0     		b	.L83
 1179              	.L78:
 1180 038a 3B6C     		ldr	r3, [r7, #64]
 1181 038c 002B     		cmp	r3, #0
 1182 038e 02D1     		bne	.L79
 1183 0390 0023     		movs	r3, #0
 1184 0392 FB64     		str	r3, [r7, #76]
 1185 0394 03E0     		b	.L77
 1186              	.L79:
 1187 0396 FA6C     		ldr	r2, [r7, #76]
 1188 0398 3B6C     		ldr	r3, [r7, #64]
 1189 039a D318     		adds	r3, r2, r3
 1190 039c FB64     		str	r3, [r7, #76]
 1191              	.L77:
 1192 039e 0023     		movs	r3, #0
 1193 03a0 7B64     		str	r3, [r7, #68]
 1194 03a2 3BE0     		b	.L80
 1195              	.L86:
 1196              		.align	2
 1197              	.L85:
 1198 03a4 24000000 		.word	.LC14
 1199 03a8 28000000 		.word	.LC16
ARM GAS  C:\Users\SONG_J~1\AppData\Local\Temp\cciyiCte.s 			page 22


 1200 03ac 2C000000 		.word	.LC18
 1201 03b0 20000000 		.word	.LC12
 1202 03b4 34000000 		.word	.LC21
 1203              	.L82:
 1204 03b8 BB69     		ldr	r3, [r7, #24]
 1205 03ba DA68     		ldr	r2, [r3, #12]
 1206 03bc 7B6C     		ldr	r3, [r7, #68]
 1207 03be 1B01     		lsls	r3, r3, #4
 1208 03c0 D418     		adds	r4, r2, r3
 1209 03c2 FB6C     		ldr	r3, [r7, #76]
 1210 03c4 7A6F     		ldr	r2, [r7, #116]
 1211 03c6 D318     		adds	r3, r2, r3
 1212 03c8 FA6C     		ldr	r2, [r7, #76]
 1213 03ca B96F     		ldr	r1, [r7, #120]
 1214 03cc 8A1A     		subs	r2, r1, r2
 1215 03ce 3D69     		ldr	r5, [r7, #16]
 1216 03d0 7969     		ldr	r1, [r7, #20]
 1217 03d2 F869     		ldr	r0, [r7, #28]
 1218 03d4 0492     		str	r2, [sp, #16]
 1219 03d6 0393     		str	r3, [sp, #12]
 1220 03d8 BB6C     		ldr	r3, [r7, #72]
 1221 03da 0293     		str	r3, [sp, #8]
 1222 03dc 1423     		movs	r3, #20
 1223 03de 1022     		movs	r2, #16
 1224 03e0 9446     		mov	ip, r2
 1225 03e2 BC44     		add	ip, ip, r7
 1226 03e4 6344     		add	r3, r3, ip
 1227 03e6 0193     		str	r3, [sp, #4]
 1228 03e8 2823     		movs	r3, #40
 1229 03ea 1022     		movs	r2, #16
 1230 03ec 9446     		mov	ip, r2
 1231 03ee BC44     		add	ip, ip, r7
 1232 03f0 6344     		add	r3, r3, ip
 1233 03f2 0093     		str	r3, [sp]
 1234 03f4 2B00     		movs	r3, r5
 1235 03f6 0A00     		movs	r2, r1
 1236 03f8 2100     		movs	r1, r4
 1237 03fa FFF701FE 		bl	prv_serializeLinkData
 1238 03fe 0300     		movs	r3, r0
 1239 0400 3B64     		str	r3, [r7, #64]
 1240 0402 3B6C     		ldr	r3, [r7, #64]
 1241 0404 002B     		cmp	r3, #0
 1242 0406 02DA     		bge	.L81
 1243 0408 0123     		movs	r3, #1
 1244 040a 5B42     		rsbs	r3, r3, #0
 1245 040c 11E0     		b	.L83
 1246              	.L81:
 1247 040e FA6C     		ldr	r2, [r7, #76]
 1248 0410 3B6C     		ldr	r3, [r7, #64]
 1249 0412 D318     		adds	r3, r2, r3
 1250 0414 FB64     		str	r3, [r7, #76]
 1251 0416 7B6C     		ldr	r3, [r7, #68]
 1252 0418 0133     		adds	r3, r3, #1
 1253 041a 7B64     		str	r3, [r7, #68]
 1254              	.L80:
 1255 041c BB69     		ldr	r3, [r7, #24]
 1256 041e 9B68     		ldr	r3, [r3, #8]
ARM GAS  C:\Users\SONG_J~1\AppData\Local\Temp\cciyiCte.s 			page 23


 1257 0420 7A6C     		ldr	r2, [r7, #68]
 1258 0422 9A42     		cmp	r2, r3
 1259 0424 C8D3     		bcc	.L82
 1260 0426 03E0     		b	.L67
 1261              	.L49:
 1262 0428 0123     		movs	r3, #1
 1263 042a 5B42     		rsbs	r3, r3, #0
 1264 042c 01E0     		b	.L83
 1265              	.L84:
 1266 042e C046     		nop
 1267              	.L67:
 1268 0430 FB6C     		ldr	r3, [r7, #76]
 1269              	.L83:
 1270 0432 1800     		movs	r0, r3
 1271 0434 BD46     		mov	sp, r7
 1272 0436 15B0     		add	sp, sp, #84
 1273              		@ sp needed
 1274 0438 F0BD     		pop	{r4, r5, r6, r7, pc}
 1276 043a C046     		.section	.rodata
 1277 0037 00       		.align	2
 1278              	.LC24:
 1279 0038 5B25733A 		.ascii	"[%s:%d] size: %d\015\012\000"
 1279      25645D20 
 1279      73697A65 
 1279      3A202564 
 1279      0D0A00
 1280 004b 00       		.align	2
 1281              	.LC26:
 1282 004c 5B25733A 		.ascii	"[%s:%d] NULL\015\012\000"
 1282      25645D20 
 1282      4E554C4C 
 1282      0D0A00
 1283 005b 00       		.align	2
 1284              	.LC28:
 1285 005c 5B25733A 		.ascii	"[%s:%d] /%d\000"
 1285      25645D20 
 1285      2F256400 
 1286              		.align	2
 1287              	.LC30:
 1288 0068 2F256400 		.ascii	"/%d\000"
 1289              		.align	2
 1290              	.LC32:
 1291 006c 0D0A00   		.ascii	"\015\012\000"
 1292              		.section	.text.discover_serialize,"ax",%progbits
 1293              		.align	1
 1294              		.global	discover_serialize
 1295              		.syntax unified
 1296              		.code	16
 1297              		.thumb_func
 1298              		.fpu softvfp
 1300              	discover_serialize:
 1301              		@ args = 8, pretend = 0, frame = 1160
 1302              		@ frame_needed = 1, uses_anonymous_args = 0
 1303 0000 F0B5     		push	{r4, r5, r6, r7, lr}
 1304 0002 C646     		mov	lr, r8
 1305 0004 00B5     		push	{lr}
 1306 0006 E74C     		ldr	r4, .L125
ARM GAS  C:\Users\SONG_J~1\AppData\Local\Temp\cciyiCte.s 			page 24


 1307 0008 A544     		add	sp, sp, r4
 1308 000a 06AF     		add	r7, sp, #24
 1309 000c F861     		str	r0, [r7, #28]
 1310 000e B961     		str	r1, [r7, #24]
 1311 0010 7A61     		str	r2, [r7, #20]
 1312 0012 3B61     		str	r3, [r7, #16]
 1313 0014 3C69     		ldr	r4, [r7, #16]
 1314 0016 9923     		movs	r3, #153
 1315 0018 5A00     		lsls	r2, r3, #1
 1316 001a E349     		ldr	r1, .L125+4
 1317 001c E348     		ldr	r0, .L125+8
 1318 001e 2300     		movs	r3, r4
 1319 0020 FFF7FEFF 		bl	atiny_printf
 1320 0024 BB69     		ldr	r3, [r7, #24]
 1321 0026 002B     		cmp	r3, #0
 1322 0028 08D1     		bne	.L88
 1323 002a 3423     		movs	r3, #52
 1324 002c FF33     		adds	r3, r3, #255
 1325 002e 1A00     		movs	r2, r3
 1326 0030 DD49     		ldr	r1, .L125+4
 1327 0032 DF4B     		ldr	r3, .L125+12
 1328 0034 1800     		movs	r0, r3
 1329 0036 FFF7FEFF 		bl	atiny_printf
 1330 003a 2AE0     		b	.L89
 1331              	.L88:
 1332 003c BB69     		ldr	r3, [r7, #24]
 1333 003e 5B88     		ldrh	r3, [r3, #2]
 1334 0040 1C00     		movs	r4, r3
 1335 0042 3423     		movs	r3, #52
 1336 0044 FF33     		adds	r3, r3, #255
 1337 0046 1A00     		movs	r2, r3
 1338 0048 D749     		ldr	r1, .L125+4
 1339 004a DA48     		ldr	r0, .L125+16
 1340 004c 2300     		movs	r3, r4
 1341 004e FFF7FEFF 		bl	atiny_printf
 1342 0052 BB69     		ldr	r3, [r7, #24]
 1343 0054 1B78     		ldrb	r3, [r3]
 1344 0056 1A00     		movs	r2, r3
 1345 0058 0223     		movs	r3, #2
 1346 005a 1340     		ands	r3, r2
 1347 005c 07D0     		beq	.L90
 1348 005e BB69     		ldr	r3, [r7, #24]
 1349 0060 9B88     		ldrh	r3, [r3, #4]
 1350 0062 1A00     		movs	r2, r3
 1351 0064 D44B     		ldr	r3, .L125+20
 1352 0066 1100     		movs	r1, r2
 1353 0068 1800     		movs	r0, r3
 1354 006a FFF7FEFF 		bl	atiny_printf
 1355              	.L90:
 1356 006e BB69     		ldr	r3, [r7, #24]
 1357 0070 1B78     		ldrb	r3, [r3]
 1358 0072 1A00     		movs	r2, r3
 1359 0074 0123     		movs	r3, #1
 1360 0076 1340     		ands	r3, r2
 1361 0078 07D0     		beq	.L91
 1362 007a BB69     		ldr	r3, [r7, #24]
 1363 007c DB88     		ldrh	r3, [r3, #6]
ARM GAS  C:\Users\SONG_J~1\AppData\Local\Temp\cciyiCte.s 			page 25


 1364 007e 1A00     		movs	r2, r3
 1365 0080 CD4B     		ldr	r3, .L125+20
 1366 0082 1100     		movs	r1, r2
 1367 0084 1800     		movs	r0, r3
 1368 0086 FFF7FEFF 		bl	atiny_printf
 1369              	.L91:
 1370 008a CC4B     		ldr	r3, .L125+24
 1371 008c 1800     		movs	r0, r3
 1372 008e FFF7FEFF 		bl	atiny_printf
 1373              	.L89:
 1374 0092 0023     		movs	r3, #0
 1375 0094 8E22     		movs	r2, #142
 1376 0096 D200     		lsls	r2, r2, #3
 1377 0098 1021     		movs	r1, #16
 1378 009a 8C46     		mov	ip, r1
 1379 009c BC44     		add	ip, ip, r7
 1380 009e 6244     		add	r2, r2, ip
 1381 00a0 1360     		str	r3, [r2]
 1382 00a2 4023     		movs	r3, #64
 1383 00a4 1022     		movs	r2, #16
 1384 00a6 9446     		mov	ip, r2
 1385 00a8 BC44     		add	ip, ip, r7
 1386 00aa 6344     		add	r3, r3, ip
 1387 00ac 0822     		movs	r2, #8
 1388 00ae 0021     		movs	r1, #0
 1389 00b0 1800     		movs	r0, r3
 1390 00b2 FFF7FEFF 		bl	memset
 1391 00b6 BB69     		ldr	r3, [r7, #24]
 1392 00b8 5A88     		ldrh	r2, [r3, #2]
 1393 00ba C14B     		ldr	r3, .L125+28
 1394 00bc 8F21     		movs	r1, #143
 1395 00be C900     		lsls	r1, r1, #3
 1396 00c0 8C46     		mov	ip, r1
 1397 00c2 1021     		movs	r1, #16
 1398 00c4 8846     		mov	r8, r1
 1399 00c6 B844     		add	r8, r8, r7
 1400 00c8 C444     		add	ip, ip, r8
 1401 00ca 6344     		add	r3, r3, ip
 1402 00cc 5A80     		strh	r2, [r3, #2]
 1403 00ce BC4B     		ldr	r3, .L125+28
 1404 00d0 8F22     		movs	r2, #143
 1405 00d2 D200     		lsls	r2, r2, #3
 1406 00d4 9446     		mov	ip, r2
 1407 00d6 1022     		movs	r2, #16
 1408 00d8 9046     		mov	r8, r2
 1409 00da B844     		add	r8, r8, r7
 1410 00dc C444     		add	ip, ip, r8
 1411 00de 6344     		add	r3, r3, ip
 1412 00e0 0422     		movs	r2, #4
 1413 00e2 1A70     		strb	r2, [r3]
 1414 00e4 BB69     		ldr	r3, [r7, #24]
 1415 00e6 1B78     		ldrb	r3, [r3]
 1416 00e8 1A00     		movs	r2, r3
 1417 00ea 0123     		movs	r3, #1
 1418 00ec 1340     		ands	r3, r2
 1419 00ee 00D1     		bne	.LCB1497
 1420 00f0 3AE1     		b	.L92	@long jump
ARM GAS  C:\Users\SONG_J~1\AppData\Local\Temp\cciyiCte.s 			page 26


 1421              	.LCB1497:
 1422 00f2 4023     		movs	r3, #64
 1423 00f4 1022     		movs	r2, #16
 1424 00f6 9446     		mov	ip, r2
 1425 00f8 BC44     		add	ip, ip, r7
 1426 00fa 6344     		add	r3, r3, ip
 1427 00fc 0822     		movs	r2, #8
 1428 00fe 0021     		movs	r1, #0
 1429 0100 1800     		movs	r0, r3
 1430 0102 FFF7FEFF 		bl	memset
 1431 0106 BB69     		ldr	r3, [r7, #24]
 1432 0108 5A88     		ldrh	r2, [r3, #2]
 1433 010a AE4B     		ldr	r3, .L125+32
 1434 010c 8F21     		movs	r1, #143
 1435 010e C900     		lsls	r1, r1, #3
 1436 0110 8C46     		mov	ip, r1
 1437 0112 1021     		movs	r1, #16
 1438 0114 8846     		mov	r8, r1
 1439 0116 B844     		add	r8, r8, r7
 1440 0118 C444     		add	ip, ip, r8
 1441 011a 6344     		add	r3, r3, ip
 1442 011c 5A80     		strh	r2, [r3, #2]
 1443 011e A94B     		ldr	r3, .L125+32
 1444 0120 8F22     		movs	r2, #143
 1445 0122 D200     		lsls	r2, r2, #3
 1446 0124 9446     		mov	ip, r2
 1447 0126 1022     		movs	r2, #16
 1448 0128 9046     		mov	r8, r2
 1449 012a B844     		add	r8, r8, r7
 1450 012c C444     		add	ip, ip, r8
 1451 012e 6344     		add	r3, r3, ip
 1452 0130 0422     		movs	r2, #4
 1453 0132 1A70     		strb	r2, [r3]
 1454 0134 7A69     		ldr	r2, [r7, #20]
 1455 0136 1024     		movs	r4, #16
 1456 0138 1020     		movs	r0, #16
 1457 013a 0600     		movs	r6, r0
 1458 013c 3B18     		adds	r3, r7, r0
 1459 013e 1919     		adds	r1, r3, r4
 1460 0140 FB69     		ldr	r3, [r7, #28]
 1461 0142 1800     		movs	r0, r3
 1462 0144 FFF7FEFF 		bl	prv_findAttributes
 1463 0148 0300     		movs	r3, r0
 1464 014a 9F4D     		ldr	r5, .L125+36
 1465 014c 3000     		movs	r0, r6
 1466 014e 3A18     		adds	r2, r7, r0
 1467 0150 5219     		adds	r2, r2, r5
 1468 0152 1360     		str	r3, [r2]
 1469 0154 BB69     		ldr	r3, [r7, #24]
 1470 0156 9A88     		ldrh	r2, [r3, #4]
 1471 0158 9A4B     		ldr	r3, .L125+32
 1472 015a 8F21     		movs	r1, #143
 1473 015c C900     		lsls	r1, r1, #3
 1474 015e 8C46     		mov	ip, r1
 1475 0160 1021     		movs	r1, #16
 1476 0162 8846     		mov	r8, r1
 1477 0164 B844     		add	r8, r8, r7
ARM GAS  C:\Users\SONG_J~1\AppData\Local\Temp\cciyiCte.s 			page 27


 1478 0166 C444     		add	ip, ip, r8
 1479 0168 6344     		add	r3, r3, ip
 1480 016a 9A80     		strh	r2, [r3, #4]
 1481 016c 954B     		ldr	r3, .L125+32
 1482 016e 8F22     		movs	r2, #143
 1483 0170 D200     		lsls	r2, r2, #3
 1484 0172 9446     		mov	ip, r2
 1485 0174 1022     		movs	r2, #16
 1486 0176 9046     		mov	r8, r2
 1487 0178 B844     		add	r8, r8, r7
 1488 017a C444     		add	ip, ip, r8
 1489 017c 6344     		add	r3, r3, ip
 1490 017e 0222     		movs	r2, #2
 1491 0180 1A70     		strb	r2, [r3]
 1492 0182 7A69     		ldr	r2, [r7, #20]
 1493 0184 0600     		movs	r6, r0
 1494 0186 3B18     		adds	r3, r7, r0
 1495 0188 1919     		adds	r1, r3, r4
 1496 018a FB69     		ldr	r3, [r7, #28]
 1497 018c 1800     		movs	r0, r3
 1498 018e FFF7FEFF 		bl	prv_findAttributes
 1499 0192 0300     		movs	r3, r0
 1500 0194 8C22     		movs	r2, #140
 1501 0196 D200     		lsls	r2, r2, #3
 1502 0198 1021     		movs	r1, #16
 1503 019a 8C46     		mov	ip, r1
 1504 019c BC44     		add	ip, ip, r7
 1505 019e 6244     		add	r2, r2, ip
 1506 01a0 1360     		str	r3, [r2]
 1507 01a2 3000     		movs	r0, r6
 1508 01a4 3B18     		adds	r3, r7, r0
 1509 01a6 5B19     		adds	r3, r3, r5
 1510 01a8 1B68     		ldr	r3, [r3]
 1511 01aa 002B     		cmp	r3, #0
 1512 01ac 00D1     		bne	.LCB1593
 1513 01ae C5E0     		b	.L93	@long jump
 1514              	.LCB1593:
 1515 01b0 8C23     		movs	r3, #140
 1516 01b2 DB00     		lsls	r3, r3, #3
 1517 01b4 1022     		movs	r2, #16
 1518 01b6 9446     		mov	ip, r2
 1519 01b8 BC44     		add	ip, ip, r7
 1520 01ba 6344     		add	r3, r3, ip
 1521 01bc 1B68     		ldr	r3, [r3]
 1522 01be 002B     		cmp	r3, #0
 1523 01c0 00D1     		bne	.LCB1602
 1524 01c2 ADE0     		b	.L94	@long jump
 1525              	.LCB1602:
 1526 01c4 1823     		movs	r3, #24
 1527 01c6 1022     		movs	r2, #16
 1528 01c8 9446     		mov	ip, r2
 1529 01ca BC44     		add	ip, ip, r7
 1530 01cc 6344     		add	r3, r3, ip
 1531 01ce 2822     		movs	r2, #40
 1532 01d0 0021     		movs	r1, #0
 1533 01d2 1800     		movs	r0, r3
 1534 01d4 FFF7FEFF 		bl	memset
ARM GAS  C:\Users\SONG_J~1\AppData\Local\Temp\cciyiCte.s 			page 28


 1535 01d8 7B4B     		ldr	r3, .L125+36
 1536 01da 1022     		movs	r2, #16
 1537 01dc 9446     		mov	ip, r2
 1538 01de BC44     		add	ip, ip, r7
 1539 01e0 6344     		add	r3, r3, ip
 1540 01e2 1B68     		ldr	r3, [r3]
 1541 01e4 1A78     		ldrb	r2, [r3]
 1542 01e6 8C23     		movs	r3, #140
 1543 01e8 DB00     		lsls	r3, r3, #3
 1544 01ea 1021     		movs	r1, #16
 1545 01ec 8C46     		mov	ip, r1
 1546 01ee BC44     		add	ip, ip, r7
 1547 01f0 6344     		add	r3, r3, ip
 1548 01f2 1B68     		ldr	r3, [r3]
 1549 01f4 1B78     		ldrb	r3, [r3]
 1550 01f6 1343     		orrs	r3, r2
 1551 01f8 DAB2     		uxtb	r2, r3
 1552 01fa 744B     		ldr	r3, .L125+40
 1553 01fc 8F21     		movs	r1, #143
 1554 01fe C900     		lsls	r1, r1, #3
 1555 0200 8C46     		mov	ip, r1
 1556 0202 1021     		movs	r1, #16
 1557 0204 8846     		mov	r8, r1
 1558 0206 B844     		add	r8, r8, r7
 1559 0208 C444     		add	ip, ip, r8
 1560 020a 6344     		add	r3, r3, ip
 1561 020c 1A70     		strb	r2, [r3]
 1562 020e 6F4B     		ldr	r3, .L125+40
 1563 0210 8F22     		movs	r2, #143
 1564 0212 D200     		lsls	r2, r2, #3
 1565 0214 9446     		mov	ip, r2
 1566 0216 1022     		movs	r2, #16
 1567 0218 9046     		mov	r8, r2
 1568 021a B844     		add	r8, r8, r7
 1569 021c C444     		add	ip, ip, r8
 1570 021e 6344     		add	r3, r3, ip
 1571 0220 1B78     		ldrb	r3, [r3]
 1572 0222 1A00     		movs	r2, r3
 1573 0224 0123     		movs	r3, #1
 1574 0226 1340     		ands	r3, r2
 1575 0228 2FD0     		beq	.L95
 1576 022a 8C23     		movs	r3, #140
 1577 022c DB00     		lsls	r3, r3, #3
 1578 022e 1022     		movs	r2, #16
 1579 0230 9446     		mov	ip, r2
 1580 0232 BC44     		add	ip, ip, r7
 1581 0234 6344     		add	r3, r3, ip
 1582 0236 1B68     		ldr	r3, [r3]
 1583 0238 1B78     		ldrb	r3, [r3]
 1584 023a 1A00     		movs	r2, r3
 1585 023c 0123     		movs	r3, #1
 1586 023e 1340     		ands	r3, r2
 1587 0240 12D0     		beq	.L96
 1588 0242 8C23     		movs	r3, #140
 1589 0244 DB00     		lsls	r3, r3, #3
 1590 0246 1022     		movs	r2, #16
 1591 0248 9446     		mov	ip, r2
ARM GAS  C:\Users\SONG_J~1\AppData\Local\Temp\cciyiCte.s 			page 29


 1592 024a BC44     		add	ip, ip, r7
 1593 024c 6344     		add	r3, r3, ip
 1594 024e 1B68     		ldr	r3, [r3]
 1595 0250 5A68     		ldr	r2, [r3, #4]
 1596 0252 5E4B     		ldr	r3, .L125+40
 1597 0254 8F21     		movs	r1, #143
 1598 0256 C900     		lsls	r1, r1, #3
 1599 0258 8C46     		mov	ip, r1
 1600 025a 1021     		movs	r1, #16
 1601 025c 8846     		mov	r8, r1
 1602 025e B844     		add	r8, r8, r7
 1603 0260 C444     		add	ip, ip, r8
 1604 0262 6344     		add	r3, r3, ip
 1605 0264 5A60     		str	r2, [r3, #4]
 1606 0266 10E0     		b	.L95
 1607              	.L96:
 1608 0268 574B     		ldr	r3, .L125+36
 1609 026a 1022     		movs	r2, #16
 1610 026c 9446     		mov	ip, r2
 1611 026e BC44     		add	ip, ip, r7
 1612 0270 6344     		add	r3, r3, ip
 1613 0272 1B68     		ldr	r3, [r3]
 1614 0274 5A68     		ldr	r2, [r3, #4]
 1615 0276 554B     		ldr	r3, .L125+40
 1616 0278 8F21     		movs	r1, #143
 1617 027a C900     		lsls	r1, r1, #3
 1618 027c 8C46     		mov	ip, r1
 1619 027e 1021     		movs	r1, #16
 1620 0280 8846     		mov	r8, r1
 1621 0282 B844     		add	r8, r8, r7
 1622 0284 C444     		add	ip, ip, r8
 1623 0286 6344     		add	r3, r3, ip
 1624 0288 5A60     		str	r2, [r3, #4]
 1625              	.L95:
 1626 028a 504B     		ldr	r3, .L125+40
 1627 028c 8F22     		movs	r2, #143
 1628 028e D200     		lsls	r2, r2, #3
 1629 0290 9446     		mov	ip, r2
 1630 0292 1022     		movs	r2, #16
 1631 0294 9046     		mov	r8, r2
 1632 0296 B844     		add	r8, r8, r7
 1633 0298 C444     		add	ip, ip, r8
 1634 029a 6344     		add	r3, r3, ip
 1635 029c 1B78     		ldrb	r3, [r3]
 1636 029e 1A00     		movs	r2, r3
 1637 02a0 0223     		movs	r3, #2
 1638 02a2 1340     		ands	r3, r2
 1639 02a4 2FD0     		beq	.L97
 1640 02a6 8C23     		movs	r3, #140
 1641 02a8 DB00     		lsls	r3, r3, #3
 1642 02aa 1022     		movs	r2, #16
 1643 02ac 9446     		mov	ip, r2
 1644 02ae BC44     		add	ip, ip, r7
 1645 02b0 6344     		add	r3, r3, ip
 1646 02b2 1B68     		ldr	r3, [r3]
 1647 02b4 1B78     		ldrb	r3, [r3]
 1648 02b6 1A00     		movs	r2, r3
ARM GAS  C:\Users\SONG_J~1\AppData\Local\Temp\cciyiCte.s 			page 30


 1649 02b8 0223     		movs	r3, #2
 1650 02ba 1340     		ands	r3, r2
 1651 02bc 12D0     		beq	.L98
 1652 02be 8C23     		movs	r3, #140
 1653 02c0 DB00     		lsls	r3, r3, #3
 1654 02c2 1022     		movs	r2, #16
 1655 02c4 9446     		mov	ip, r2
 1656 02c6 BC44     		add	ip, ip, r7
 1657 02c8 6344     		add	r3, r3, ip
 1658 02ca 1B68     		ldr	r3, [r3]
 1659 02cc 9A68     		ldr	r2, [r3, #8]
 1660 02ce 3F4B     		ldr	r3, .L125+40
 1661 02d0 8F21     		movs	r1, #143
 1662 02d2 C900     		lsls	r1, r1, #3
 1663 02d4 8C46     		mov	ip, r1
 1664 02d6 1021     		movs	r1, #16
 1665 02d8 8846     		mov	r8, r1
 1666 02da B844     		add	r8, r8, r7
 1667 02dc C444     		add	ip, ip, r8
 1668 02de 6344     		add	r3, r3, ip
 1669 02e0 9A60     		str	r2, [r3, #8]
 1670 02e2 10E0     		b	.L97
 1671              	.L98:
 1672 02e4 384B     		ldr	r3, .L125+36
 1673 02e6 1022     		movs	r2, #16
 1674 02e8 9446     		mov	ip, r2
 1675 02ea BC44     		add	ip, ip, r7
 1676 02ec 6344     		add	r3, r3, ip
 1677 02ee 1B68     		ldr	r3, [r3]
 1678 02f0 9A68     		ldr	r2, [r3, #8]
 1679 02f2 364B     		ldr	r3, .L125+40
 1680 02f4 8F21     		movs	r1, #143
 1681 02f6 C900     		lsls	r1, r1, #3
 1682 02f8 8C46     		mov	ip, r1
 1683 02fa 1021     		movs	r1, #16
 1684 02fc 8846     		mov	r8, r1
 1685 02fe B844     		add	r8, r8, r7
 1686 0300 C444     		add	ip, ip, r8
 1687 0302 6344     		add	r3, r3, ip
 1688 0304 9A60     		str	r2, [r3, #8]
 1689              	.L97:
 1690 0306 1823     		movs	r3, #24
 1691 0308 1022     		movs	r2, #16
 1692 030a 9446     		mov	ip, r2
 1693 030c BC44     		add	ip, ip, r7
 1694 030e 6344     		add	r3, r3, ip
 1695 0310 8D22     		movs	r2, #141
 1696 0312 D200     		lsls	r2, r2, #3
 1697 0314 1021     		movs	r1, #16
 1698 0316 8C46     		mov	ip, r1
 1699 0318 BC44     		add	ip, ip, r7
 1700 031a 6244     		add	r2, r2, ip
 1701 031c 1360     		str	r3, [r2]
 1702 031e 1BE0     		b	.L100
 1703              	.L94:
 1704 0320 294B     		ldr	r3, .L125+36
 1705 0322 1022     		movs	r2, #16
ARM GAS  C:\Users\SONG_J~1\AppData\Local\Temp\cciyiCte.s 			page 31


 1706 0324 9446     		mov	ip, r2
 1707 0326 BC44     		add	ip, ip, r7
 1708 0328 6344     		add	r3, r3, ip
 1709 032a 1B68     		ldr	r3, [r3]
 1710 032c 8D22     		movs	r2, #141
 1711 032e D200     		lsls	r2, r2, #3
 1712 0330 1021     		movs	r1, #16
 1713 0332 8C46     		mov	ip, r1
 1714 0334 BC44     		add	ip, ip, r7
 1715 0336 6244     		add	r2, r2, ip
 1716 0338 1360     		str	r3, [r2]
 1717 033a 0DE0     		b	.L100
 1718              	.L93:
 1719 033c 8C23     		movs	r3, #140
 1720 033e DB00     		lsls	r3, r3, #3
 1721 0340 1022     		movs	r2, #16
 1722 0342 9446     		mov	ip, r2
 1723 0344 BC44     		add	ip, ip, r7
 1724 0346 6344     		add	r3, r3, ip
 1725 0348 1B68     		ldr	r3, [r3]
 1726 034a 8D22     		movs	r2, #141
 1727 034c D200     		lsls	r2, r2, #3
 1728 034e 1021     		movs	r1, #16
 1729 0350 8C46     		mov	ip, r1
 1730 0352 BC44     		add	ip, ip, r7
 1731 0354 6244     		add	r2, r2, ip
 1732 0356 1360     		str	r3, [r2]
 1733              	.L100:
 1734 0358 BB69     		ldr	r3, [r7, #24]
 1735 035a 1B78     		ldrb	r3, [r3]
 1736 035c 0122     		movs	r2, #1
 1737 035e 9343     		bics	r3, r2
 1738 0360 DAB2     		uxtb	r2, r3
 1739 0362 BB69     		ldr	r3, [r7, #24]
 1740 0364 1A70     		strb	r2, [r3]
 1741 0366 68E2     		b	.L101
 1742              	.L92:
 1743 0368 0023     		movs	r3, #0
 1744 036a 8D22     		movs	r2, #141
 1745 036c D200     		lsls	r2, r2, #3
 1746 036e 1021     		movs	r1, #16
 1747 0370 8C46     		mov	ip, r1
 1748 0372 BC44     		add	ip, ip, r7
 1749 0374 6244     		add	r2, r2, ip
 1750 0376 1360     		str	r3, [r2]
 1751 0378 BB69     		ldr	r3, [r7, #24]
 1752 037a 1B78     		ldrb	r3, [r3]
 1753 037c 1A00     		movs	r2, r3
 1754 037e 0223     		movs	r3, #2
 1755 0380 1340     		ands	r3, r2
 1756 0382 00D1     		bne	.LCB1851
 1757 0384 6CE1     		b	.L102	@long jump
 1758              	.LCB1851:
 1759 0386 8E23     		movs	r3, #142
 1760 0388 DB00     		lsls	r3, r3, #3
 1761 038a 1022     		movs	r2, #16
 1762 038c 9446     		mov	ip, r2
ARM GAS  C:\Users\SONG_J~1\AppData\Local\Temp\cciyiCte.s 			page 32


 1763 038e BC44     		add	ip, ip, r7
 1764 0390 6344     		add	r3, r3, ip
 1765 0392 1A68     		ldr	r2, [r3]
 1766 0394 8023     		movs	r3, #128
 1767 0396 DB00     		lsls	r3, r3, #3
 1768 0398 9A42     		cmp	r2, r3
 1769 039a 19D1     		bne	.L103
 1770 039c 0123     		movs	r3, #1
 1771 039e 5B42     		rsbs	r3, r3, #0
 1772 03a0 36E3     		b	.L124
 1773              	.L126:
 1774 03a2 C046     		.align	2
 1775              	.L125:
 1776 03a4 60FBFFFF 		.word	-1184
 1777 03a8 00000000 		.word	__func__.7136
 1778 03ac 38000000 		.word	.LC24
 1779 03b0 4C000000 		.word	.LC26
 1780 03b4 5C000000 		.word	.LC28
 1781 03b8 68000000 		.word	.LC30
 1782 03bc 6C000000 		.word	.LC32
 1783 03c0 C8FBFFFF 		.word	-1080
 1784 03c4 98FBFFFF 		.word	-1128
 1785 03c8 64040000 		.word	1124
 1786 03cc A0FBFFFF 		.word	-1120
 1787              	.L103:
 1788 03d0 5C23     		movs	r3, #92
 1789 03d2 1021     		movs	r1, #16
 1790 03d4 7A18     		adds	r2, r7, r1
 1791 03d6 D218     		adds	r2, r2, r3
 1792 03d8 8E24     		movs	r4, #142
 1793 03da E400     		lsls	r4, r4, #3
 1794 03dc 0D00     		movs	r5, r1
 1795 03de 7B18     		adds	r3, r7, r1
 1796 03e0 1B19     		adds	r3, r3, r4
 1797 03e2 1B68     		ldr	r3, [r3]
 1798 03e4 D318     		adds	r3, r2, r3
 1799 03e6 E549     		ldr	r1, .L127
 1800 03e8 0122     		movs	r2, #1
 1801 03ea 1800     		movs	r0, r3
 1802 03ec FFF7FEFF 		bl	memcpy
 1803 03f0 2200     		movs	r2, r4
 1804 03f2 2900     		movs	r1, r5
 1805 03f4 7B18     		adds	r3, r7, r1
 1806 03f6 9B18     		adds	r3, r3, r2
 1807 03f8 1B68     		ldr	r3, [r3]
 1808 03fa 0133     		adds	r3, r3, #1
 1809 03fc 0800     		movs	r0, r1
 1810 03fe 7918     		adds	r1, r7, r1
 1811 0400 8918     		adds	r1, r1, r2
 1812 0402 0B60     		str	r3, [r1]
 1813 0404 0100     		movs	r1, r0
 1814 0406 7B18     		adds	r3, r7, r1
 1815 0408 9B18     		adds	r3, r3, r2
 1816 040a 1A68     		ldr	r2, [r3]
 1817 040c 8023     		movs	r3, #128
 1818 040e DB00     		lsls	r3, r3, #3
 1819 0410 9A42     		cmp	r2, r3
ARM GAS  C:\Users\SONG_J~1\AppData\Local\Temp\cciyiCte.s 			page 33


 1820 0412 02D1     		bne	.L105
 1821 0414 0123     		movs	r3, #1
 1822 0416 5B42     		rsbs	r3, r3, #0
 1823 0418 FAE2     		b	.L124
 1824              	.L105:
 1825 041a 5C25     		movs	r5, #92
 1826 041c 1026     		movs	r6, #16
 1827 041e BB19     		adds	r3, r7, r6
 1828 0420 5A19     		adds	r2, r3, r5
 1829 0422 8E21     		movs	r1, #142
 1830 0424 C900     		lsls	r1, r1, #3
 1831 0426 0C00     		movs	r4, r1
 1832 0428 BB19     		adds	r3, r7, r6
 1833 042a 5B18     		adds	r3, r3, r1
 1834 042c 1B68     		ldr	r3, [r3]
 1835 042e D318     		adds	r3, r2, r3
 1836 0430 D349     		ldr	r1, .L127+4
 1837 0432 0122     		movs	r2, #1
 1838 0434 1800     		movs	r0, r3
 1839 0436 FFF7FEFF 		bl	memcpy
 1840 043a 2100     		movs	r1, r4
 1841 043c 3400     		movs	r4, r6
 1842 043e 3B19     		adds	r3, r7, r4
 1843 0440 5B18     		adds	r3, r3, r1
 1844 0442 1B68     		ldr	r3, [r3]
 1845 0444 0133     		adds	r3, r3, #1
 1846 0446 3A19     		adds	r2, r7, r4
 1847 0448 5218     		adds	r2, r2, r1
 1848 044a 1360     		str	r3, [r2]
 1849 044c BB69     		ldr	r3, [r7, #24]
 1850 044e 5B88     		ldrh	r3, [r3, #2]
 1851 0450 BB60     		str	r3, [r7, #8]
 1852 0452 0023     		movs	r3, #0
 1853 0454 FB60     		str	r3, [r7, #12]
 1854 0456 3B19     		adds	r3, r7, r4
 1855 0458 5A19     		adds	r2, r3, r5
 1856 045a 0800     		movs	r0, r1
 1857 045c 3B19     		adds	r3, r7, r4
 1858 045e 5B18     		adds	r3, r3, r1
 1859 0460 1B68     		ldr	r3, [r3]
 1860 0462 D118     		adds	r1, r2, r3
 1861 0464 3B19     		adds	r3, r7, r4
 1862 0466 1B18     		adds	r3, r3, r0
 1863 0468 1B68     		ldr	r3, [r3]
 1864 046a 8022     		movs	r2, #128
 1865 046c D200     		lsls	r2, r2, #3
 1866 046e D31A     		subs	r3, r2, r3
 1867 0470 0A00     		movs	r2, r1
 1868 0472 B868     		ldr	r0, [r7, #8]
 1869 0474 F968     		ldr	r1, [r7, #12]
 1870 0476 FFF7FEFF 		bl	utils_intToText
 1871 047a 0300     		movs	r3, r0
 1872 047c C14A     		ldr	r2, .L127+8
 1873 047e 3919     		adds	r1, r7, r4
 1874 0480 8918     		adds	r1, r1, r2
 1875 0482 0B60     		str	r3, [r1]
 1876 0484 3B19     		adds	r3, r7, r4
ARM GAS  C:\Users\SONG_J~1\AppData\Local\Temp\cciyiCte.s 			page 34


 1877 0486 9B18     		adds	r3, r3, r2
 1878 0488 1B68     		ldr	r3, [r3]
 1879 048a 002B     		cmp	r3, #0
 1880 048c 02DC     		bgt	.L106
 1881 048e 0123     		movs	r3, #1
 1882 0490 5B42     		rsbs	r3, r3, #0
 1883 0492 BDE2     		b	.L124
 1884              	.L106:
 1885 0494 BB4B     		ldr	r3, .L127+8
 1886 0496 1022     		movs	r2, #16
 1887 0498 9446     		mov	ip, r2
 1888 049a BC44     		add	ip, ip, r7
 1889 049c 6344     		add	r3, r3, ip
 1890 049e 1B68     		ldr	r3, [r3]
 1891 04a0 8E21     		movs	r1, #142
 1892 04a2 C900     		lsls	r1, r1, #3
 1893 04a4 1020     		movs	r0, #16
 1894 04a6 3A18     		adds	r2, r7, r0
 1895 04a8 5218     		adds	r2, r2, r1
 1896 04aa 1268     		ldr	r2, [r2]
 1897 04ac D318     		adds	r3, r2, r3
 1898 04ae 3A18     		adds	r2, r7, r0
 1899 04b0 5218     		adds	r2, r2, r1
 1900 04b2 1360     		str	r3, [r2]
 1901 04b4 3B18     		adds	r3, r7, r0
 1902 04b6 5B18     		adds	r3, r3, r1
 1903 04b8 1A68     		ldr	r2, [r3]
 1904 04ba 8023     		movs	r3, #128
 1905 04bc DB00     		lsls	r3, r3, #3
 1906 04be 9A42     		cmp	r2, r3
 1907 04c0 02D1     		bne	.L107
 1908 04c2 0123     		movs	r3, #1
 1909 04c4 5B42     		rsbs	r3, r3, #0
 1910 04c6 A3E2     		b	.L124
 1911              	.L107:
 1912 04c8 5C25     		movs	r5, #92
 1913 04ca 1026     		movs	r6, #16
 1914 04cc BB19     		adds	r3, r7, r6
 1915 04ce 5A19     		adds	r2, r3, r5
 1916 04d0 8E21     		movs	r1, #142
 1917 04d2 C900     		lsls	r1, r1, #3
 1918 04d4 0C00     		movs	r4, r1
 1919 04d6 BB19     		adds	r3, r7, r6
 1920 04d8 5B18     		adds	r3, r3, r1
 1921 04da 1B68     		ldr	r3, [r3]
 1922 04dc D318     		adds	r3, r2, r3
 1923 04de A849     		ldr	r1, .L127+4
 1924 04e0 0122     		movs	r2, #1
 1925 04e2 1800     		movs	r0, r3
 1926 04e4 FFF7FEFF 		bl	memcpy
 1927 04e8 2100     		movs	r1, r4
 1928 04ea 3400     		movs	r4, r6
 1929 04ec 3B19     		adds	r3, r7, r4
 1930 04ee 5B18     		adds	r3, r3, r1
 1931 04f0 1B68     		ldr	r3, [r3]
 1932 04f2 0133     		adds	r3, r3, #1
 1933 04f4 3A19     		adds	r2, r7, r4
ARM GAS  C:\Users\SONG_J~1\AppData\Local\Temp\cciyiCte.s 			page 35


 1934 04f6 5218     		adds	r2, r2, r1
 1935 04f8 1360     		str	r3, [r2]
 1936 04fa BB69     		ldr	r3, [r7, #24]
 1937 04fc 9B88     		ldrh	r3, [r3, #4]
 1938 04fe 3B60     		str	r3, [r7]
 1939 0500 0023     		movs	r3, #0
 1940 0502 7B60     		str	r3, [r7, #4]
 1941 0504 3B19     		adds	r3, r7, r4
 1942 0506 5A19     		adds	r2, r3, r5
 1943 0508 0800     		movs	r0, r1
 1944 050a 3B19     		adds	r3, r7, r4
 1945 050c 5B18     		adds	r3, r3, r1
 1946 050e 1B68     		ldr	r3, [r3]
 1947 0510 D118     		adds	r1, r2, r3
 1948 0512 3B19     		adds	r3, r7, r4
 1949 0514 1B18     		adds	r3, r3, r0
 1950 0516 1B68     		ldr	r3, [r3]
 1951 0518 8022     		movs	r2, #128
 1952 051a D200     		lsls	r2, r2, #3
 1953 051c D31A     		subs	r3, r2, r3
 1954 051e 0A00     		movs	r2, r1
 1955 0520 3868     		ldr	r0, [r7]
 1956 0522 7968     		ldr	r1, [r7, #4]
 1957 0524 FFF7FEFF 		bl	utils_intToText
 1958 0528 0300     		movs	r3, r0
 1959 052a 964A     		ldr	r2, .L127+8
 1960 052c 3919     		adds	r1, r7, r4
 1961 052e 8918     		adds	r1, r1, r2
 1962 0530 0B60     		str	r3, [r1]
 1963 0532 3B19     		adds	r3, r7, r4
 1964 0534 9B18     		adds	r3, r3, r2
 1965 0536 1B68     		ldr	r3, [r3]
 1966 0538 002B     		cmp	r3, #0
 1967 053a 02DC     		bgt	.L108
 1968 053c 0123     		movs	r3, #1
 1969 053e 5B42     		rsbs	r3, r3, #0
 1970 0540 66E2     		b	.L124
 1971              	.L108:
 1972 0542 904B     		ldr	r3, .L127+8
 1973 0544 1022     		movs	r2, #16
 1974 0546 9446     		mov	ip, r2
 1975 0548 BC44     		add	ip, ip, r7
 1976 054a 6344     		add	r3, r3, ip
 1977 054c 1B68     		ldr	r3, [r3]
 1978 054e 8E21     		movs	r1, #142
 1979 0550 C900     		lsls	r1, r1, #3
 1980 0552 1020     		movs	r0, #16
 1981 0554 3A18     		adds	r2, r7, r0
 1982 0556 5218     		adds	r2, r2, r1
 1983 0558 1268     		ldr	r2, [r2]
 1984 055a D318     		adds	r3, r2, r3
 1985 055c 3A18     		adds	r2, r7, r0
 1986 055e 5218     		adds	r2, r2, r1
 1987 0560 1360     		str	r3, [r2]
 1988 0562 3B18     		adds	r3, r7, r0
 1989 0564 5B18     		adds	r3, r3, r1
 1990 0566 1B68     		ldr	r3, [r3]
ARM GAS  C:\Users\SONG_J~1\AppData\Local\Temp\cciyiCte.s 			page 36


 1991 0568 8022     		movs	r2, #128
 1992 056a D200     		lsls	r2, r2, #3
 1993 056c D31A     		subs	r3, r2, r3
 1994 056e 012B     		cmp	r3, #1
 1995 0570 02D8     		bhi	.L109
 1996 0572 0123     		movs	r3, #1
 1997 0574 5B42     		rsbs	r3, r3, #0
 1998 0576 4BE2     		b	.L124
 1999              	.L109:
 2000 0578 5C23     		movs	r3, #92
 2001 057a 1025     		movs	r5, #16
 2002 057c 7A19     		adds	r2, r7, r5
 2003 057e D218     		adds	r2, r2, r3
 2004 0580 8E24     		movs	r4, #142
 2005 0582 E400     		lsls	r4, r4, #3
 2006 0584 7B19     		adds	r3, r7, r5
 2007 0586 1B19     		adds	r3, r3, r4
 2008 0588 1B68     		ldr	r3, [r3]
 2009 058a D318     		adds	r3, r2, r3
 2010 058c 7E49     		ldr	r1, .L127+12
 2011 058e 0222     		movs	r2, #2
 2012 0590 1800     		movs	r0, r3
 2013 0592 FFF7FEFF 		bl	memcpy
 2014 0596 2200     		movs	r2, r4
 2015 0598 7B19     		adds	r3, r7, r5
 2016 059a 9B18     		adds	r3, r3, r2
 2017 059c 1B68     		ldr	r3, [r3]
 2018 059e 0233     		adds	r3, r3, #2
 2019 05a0 1021     		movs	r1, #16
 2020 05a2 8C46     		mov	ip, r1
 2021 05a4 BC44     		add	ip, ip, r7
 2022 05a6 6244     		add	r2, r2, ip
 2023 05a8 1360     		str	r3, [r2]
 2024 05aa BB69     		ldr	r3, [r7, #24]
 2025 05ac 9A88     		ldrh	r2, [r3, #4]
 2026 05ae 774B     		ldr	r3, .L127+16
 2027 05b0 8F21     		movs	r1, #143
 2028 05b2 C900     		lsls	r1, r1, #3
 2029 05b4 8C46     		mov	ip, r1
 2030 05b6 1021     		movs	r1, #16
 2031 05b8 8846     		mov	r8, r1
 2032 05ba B844     		add	r8, r8, r7
 2033 05bc C444     		add	ip, ip, r8
 2034 05be 6344     		add	r3, r3, ip
 2035 05c0 9A80     		strh	r2, [r3, #4]
 2036 05c2 724B     		ldr	r3, .L127+16
 2037 05c4 8F22     		movs	r2, #143
 2038 05c6 D200     		lsls	r2, r2, #3
 2039 05c8 9446     		mov	ip, r2
 2040 05ca 1022     		movs	r2, #16
 2041 05cc 9046     		mov	r8, r2
 2042 05ce B844     		add	r8, r8, r7
 2043 05d0 C444     		add	ip, ip, r8
 2044 05d2 6344     		add	r3, r3, ip
 2045 05d4 0222     		movs	r2, #2
 2046 05d6 1A70     		strb	r2, [r3]
 2047 05d8 7B69     		ldr	r3, [r7, #20]
ARM GAS  C:\Users\SONG_J~1\AppData\Local\Temp\cciyiCte.s 			page 37


 2048 05da 002B     		cmp	r3, #0
 2049 05dc 28D0     		beq	.L110
 2050 05de 8E23     		movs	r3, #142
 2051 05e0 DB00     		lsls	r3, r3, #3
 2052 05e2 1022     		movs	r2, #16
 2053 05e4 9446     		mov	ip, r2
 2054 05e6 BC44     		add	ip, ip, r7
 2055 05e8 6344     		add	r3, r3, ip
 2056 05ea 1B68     		ldr	r3, [r3]
 2057 05ec 013B     		subs	r3, r3, #1
 2058 05ee 7C69     		ldr	r4, [r7, #20]
 2059 05f0 4022     		movs	r2, #64
 2060 05f2 1025     		movs	r5, #16
 2061 05f4 7919     		adds	r1, r7, r5
 2062 05f6 8918     		adds	r1, r1, r2
 2063 05f8 F869     		ldr	r0, [r7, #28]
 2064 05fa 8022     		movs	r2, #128
 2065 05fc D200     		lsls	r2, r2, #3
 2066 05fe 0292     		str	r2, [sp, #8]
 2067 0600 0193     		str	r3, [sp, #4]
 2068 0602 5C23     		movs	r3, #92
 2069 0604 1022     		movs	r2, #16
 2070 0606 9446     		mov	ip, r2
 2071 0608 BC44     		add	ip, ip, r7
 2072 060a 6344     		add	r3, r3, ip
 2073 060c 0093     		str	r3, [sp]
 2074 060e 0023     		movs	r3, #0
 2075 0610 2200     		movs	r2, r4
 2076 0612 FFF7FEFF 		bl	prv_serializeAttributes
 2077 0616 0300     		movs	r3, r0
 2078 0618 5A4A     		ldr	r2, .L127+8
 2079 061a 7919     		adds	r1, r7, r5
 2080 061c 8918     		adds	r1, r1, r2
 2081 061e 0B60     		str	r3, [r1]
 2082 0620 7B19     		adds	r3, r7, r5
 2083 0622 9B18     		adds	r3, r3, r2
 2084 0624 1B68     		ldr	r3, [r3]
 2085 0626 002B     		cmp	r3, #0
 2086 0628 09DA     		bge	.L111
 2087 062a 0123     		movs	r3, #1
 2088 062c 5B42     		rsbs	r3, r3, #0
 2089 062e EFE1     		b	.L124
 2090              	.L110:
 2091 0630 0023     		movs	r3, #0
 2092 0632 544A     		ldr	r2, .L127+8
 2093 0634 1021     		movs	r1, #16
 2094 0636 8C46     		mov	ip, r1
 2095 0638 BC44     		add	ip, ip, r7
 2096 063a 6244     		add	r2, r2, ip
 2097 063c 1360     		str	r3, [r2]
 2098              	.L111:
 2099 063e 514B     		ldr	r3, .L127+8
 2100 0640 1022     		movs	r2, #16
 2101 0642 9446     		mov	ip, r2
 2102 0644 BC44     		add	ip, ip, r7
 2103 0646 6344     		add	r3, r3, ip
 2104 0648 1B68     		ldr	r3, [r3]
ARM GAS  C:\Users\SONG_J~1\AppData\Local\Temp\cciyiCte.s 			page 38


 2105 064a 8E21     		movs	r1, #142
 2106 064c C900     		lsls	r1, r1, #3
 2107 064e 1020     		movs	r0, #16
 2108 0650 3A18     		adds	r2, r7, r0
 2109 0652 5218     		adds	r2, r2, r1
 2110 0654 1268     		ldr	r2, [r2]
 2111 0656 D318     		adds	r3, r2, r3
 2112 0658 3A18     		adds	r2, r7, r0
 2113 065a 5218     		adds	r2, r2, r1
 2114 065c 1360     		str	r3, [r2]
 2115 065e ECE0     		b	.L101
 2116              	.L102:
 2117 0660 8E23     		movs	r3, #142
 2118 0662 DB00     		lsls	r3, r3, #3
 2119 0664 1022     		movs	r2, #16
 2120 0666 9446     		mov	ip, r2
 2121 0668 BC44     		add	ip, ip, r7
 2122 066a 6344     		add	r3, r3, ip
 2123 066c 1A68     		ldr	r2, [r3]
 2124 066e 8023     		movs	r3, #128
 2125 0670 DB00     		lsls	r3, r3, #3
 2126 0672 9A42     		cmp	r2, r3
 2127 0674 02D1     		bne	.L112
 2128 0676 0123     		movs	r3, #1
 2129 0678 5B42     		rsbs	r3, r3, #0
 2130 067a C9E1     		b	.L124
 2131              	.L112:
 2132 067c 5C23     		movs	r3, #92
 2133 067e 1021     		movs	r1, #16
 2134 0680 7A18     		adds	r2, r7, r1
 2135 0682 D218     		adds	r2, r2, r3
 2136 0684 8E24     		movs	r4, #142
 2137 0686 E400     		lsls	r4, r4, #3
 2138 0688 7B18     		adds	r3, r7, r1
 2139 068a 1B19     		adds	r3, r3, r4
 2140 068c 1B68     		ldr	r3, [r3]
 2141 068e D318     		adds	r3, r2, r3
 2142 0690 3A49     		ldr	r1, .L127
 2143 0692 0122     		movs	r2, #1
 2144 0694 1800     		movs	r0, r3
 2145 0696 FFF7FEFF 		bl	memcpy
 2146 069a 2200     		movs	r2, r4
 2147 069c 1021     		movs	r1, #16
 2148 069e 7B18     		adds	r3, r7, r1
 2149 06a0 9B18     		adds	r3, r3, r2
 2150 06a2 1B68     		ldr	r3, [r3]
 2151 06a4 0133     		adds	r3, r3, #1
 2152 06a6 0800     		movs	r0, r1
 2153 06a8 7918     		adds	r1, r7, r1
 2154 06aa 8918     		adds	r1, r1, r2
 2155 06ac 0B60     		str	r3, [r1]
 2156 06ae 0100     		movs	r1, r0
 2157 06b0 7B18     		adds	r3, r7, r1
 2158 06b2 9B18     		adds	r3, r3, r2
 2159 06b4 1A68     		ldr	r2, [r3]
 2160 06b6 8023     		movs	r3, #128
 2161 06b8 DB00     		lsls	r3, r3, #3
ARM GAS  C:\Users\SONG_J~1\AppData\Local\Temp\cciyiCte.s 			page 39


 2162 06ba 9A42     		cmp	r2, r3
 2163 06bc 02D1     		bne	.L113
 2164 06be 0123     		movs	r3, #1
 2165 06c0 5B42     		rsbs	r3, r3, #0
 2166 06c2 A5E1     		b	.L124
 2167              	.L113:
 2168 06c4 5C23     		movs	r3, #92
 2169 06c6 1024     		movs	r4, #16
 2170 06c8 3A19     		adds	r2, r7, r4
 2171 06ca D218     		adds	r2, r2, r3
 2172 06cc 8E21     		movs	r1, #142
 2173 06ce C900     		lsls	r1, r1, #3
 2174 06d0 0C00     		movs	r4, r1
 2175 06d2 1023     		movs	r3, #16
 2176 06d4 9C46     		mov	ip, r3
 2177 06d6 BC44     		add	ip, ip, r7
 2178 06d8 6144     		add	r1, r1, ip
 2179 06da 0B68     		ldr	r3, [r1]
 2180 06dc D318     		adds	r3, r2, r3
 2181 06de 2849     		ldr	r1, .L127+4
 2182 06e0 0122     		movs	r2, #1
 2183 06e2 1800     		movs	r0, r3
 2184 06e4 FFF7FEFF 		bl	memcpy
 2185 06e8 2100     		movs	r1, r4
 2186 06ea 1024     		movs	r4, #16
 2187 06ec 3B19     		adds	r3, r7, r4
 2188 06ee 5A18     		adds	r2, r3, r1
 2189 06f0 1368     		ldr	r3, [r2]
 2190 06f2 0133     		adds	r3, r3, #1
 2191 06f4 3A19     		adds	r2, r7, r4
 2192 06f6 5218     		adds	r2, r2, r1
 2193 06f8 1360     		str	r3, [r2]
 2194 06fa BB69     		ldr	r3, [r7, #24]
 2195 06fc 5B88     		ldrh	r3, [r3, #2]
 2196 06fe 1D00     		movs	r5, r3
 2197 0700 0023     		movs	r3, #0
 2198 0702 1E00     		movs	r6, r3
 2199 0704 5C23     		movs	r3, #92
 2200 0706 3A19     		adds	r2, r7, r4
 2201 0708 D218     		adds	r2, r2, r3
 2202 070a 0800     		movs	r0, r1
 2203 070c 3B19     		adds	r3, r7, r4
 2204 070e 5B18     		adds	r3, r3, r1
 2205 0710 1B68     		ldr	r3, [r3]
 2206 0712 D118     		adds	r1, r2, r3
 2207 0714 3B19     		adds	r3, r7, r4
 2208 0716 1B18     		adds	r3, r3, r0
 2209 0718 1B68     		ldr	r3, [r3]
 2210 071a 8022     		movs	r2, #128
 2211 071c D200     		lsls	r2, r2, #3
 2212 071e D31A     		subs	r3, r2, r3
 2213 0720 0A00     		movs	r2, r1
 2214 0722 2800     		movs	r0, r5
 2215 0724 3100     		movs	r1, r6
 2216 0726 FFF7FEFF 		bl	utils_intToText
 2217 072a 0300     		movs	r3, r0
 2218 072c 154A     		ldr	r2, .L127+8
ARM GAS  C:\Users\SONG_J~1\AppData\Local\Temp\cciyiCte.s 			page 40


 2219 072e 3919     		adds	r1, r7, r4
 2220 0730 8918     		adds	r1, r1, r2
 2221 0732 0B60     		str	r3, [r1]
 2222 0734 3B19     		adds	r3, r7, r4
 2223 0736 9B18     		adds	r3, r3, r2
 2224 0738 1B68     		ldr	r3, [r3]
 2225 073a 002B     		cmp	r3, #0
 2226 073c 02DC     		bgt	.L114
 2227 073e 0123     		movs	r3, #1
 2228 0740 5B42     		rsbs	r3, r3, #0
 2229 0742 65E1     		b	.L124
 2230              	.L114:
 2231 0744 0F4B     		ldr	r3, .L127+8
 2232 0746 1022     		movs	r2, #16
 2233 0748 9446     		mov	ip, r2
 2234 074a BC44     		add	ip, ip, r7
 2235 074c 6344     		add	r3, r3, ip
 2236 074e 1B68     		ldr	r3, [r3]
 2237 0750 8E21     		movs	r1, #142
 2238 0752 C900     		lsls	r1, r1, #3
 2239 0754 1020     		movs	r0, #16
 2240 0756 3A18     		adds	r2, r7, r0
 2241 0758 5218     		adds	r2, r2, r1
 2242 075a 1268     		ldr	r2, [r2]
 2243 075c D318     		adds	r3, r2, r3
 2244 075e 3A18     		adds	r2, r7, r0
 2245 0760 5218     		adds	r2, r2, r1
 2246 0762 1360     		str	r3, [r2]
 2247 0764 3B18     		adds	r3, r7, r0
 2248 0766 5B18     		adds	r3, r3, r1
 2249 0768 1B68     		ldr	r3, [r3]
 2250 076a 8022     		movs	r2, #128
 2251 076c D200     		lsls	r2, r2, #3
 2252 076e D31A     		subs	r3, r2, r3
 2253 0770 012B     		cmp	r3, #1
 2254 0772 0DD8     		bhi	.L115
 2255 0774 0123     		movs	r3, #1
 2256 0776 5B42     		rsbs	r3, r3, #0
 2257 0778 4AE1     		b	.L124
 2258              	.L128:
 2259 077a C046     		.align	2
 2260              	.L127:
 2261 077c 24000000 		.word	.LC14
 2262 0780 28000000 		.word	.LC16
 2263 0784 6C040000 		.word	1132
 2264 0788 34000000 		.word	.LC21
 2265 078c C8FBFFFF 		.word	-1080
 2266              	.L115:
 2267 0790 5C23     		movs	r3, #92
 2268 0792 1025     		movs	r5, #16
 2269 0794 7A19     		adds	r2, r7, r5
 2270 0796 D218     		adds	r2, r2, r3
 2271 0798 8E24     		movs	r4, #142
 2272 079a E400     		lsls	r4, r4, #3
 2273 079c 7B19     		adds	r3, r7, r5
 2274 079e 1B19     		adds	r3, r3, r4
 2275 07a0 1B68     		ldr	r3, [r3]
ARM GAS  C:\Users\SONG_J~1\AppData\Local\Temp\cciyiCte.s 			page 41


 2276 07a2 D318     		adds	r3, r2, r3
 2277 07a4 9E49     		ldr	r1, .L129
 2278 07a6 0222     		movs	r2, #2
 2279 07a8 1800     		movs	r0, r3
 2280 07aa FFF7FEFF 		bl	memcpy
 2281 07ae 2200     		movs	r2, r4
 2282 07b0 7B19     		adds	r3, r7, r5
 2283 07b2 9B18     		adds	r3, r3, r2
 2284 07b4 1B68     		ldr	r3, [r3]
 2285 07b6 0233     		adds	r3, r3, #2
 2286 07b8 1021     		movs	r1, #16
 2287 07ba 8C46     		mov	ip, r1
 2288 07bc BC44     		add	ip, ip, r7
 2289 07be 6244     		add	r2, r2, ip
 2290 07c0 1360     		str	r3, [r2]
 2291 07c2 7B69     		ldr	r3, [r7, #20]
 2292 07c4 002B     		cmp	r3, #0
 2293 07c6 38D0     		beq	.L101
 2294 07c8 8E23     		movs	r3, #142
 2295 07ca DB00     		lsls	r3, r3, #3
 2296 07cc 1022     		movs	r2, #16
 2297 07ce 9446     		mov	ip, r2
 2298 07d0 BC44     		add	ip, ip, r7
 2299 07d2 6344     		add	r3, r3, ip
 2300 07d4 1B68     		ldr	r3, [r3]
 2301 07d6 013B     		subs	r3, r3, #1
 2302 07d8 7C69     		ldr	r4, [r7, #20]
 2303 07da 4022     		movs	r2, #64
 2304 07dc 1025     		movs	r5, #16
 2305 07de 7919     		adds	r1, r7, r5
 2306 07e0 8918     		adds	r1, r1, r2
 2307 07e2 F869     		ldr	r0, [r7, #28]
 2308 07e4 8022     		movs	r2, #128
 2309 07e6 D200     		lsls	r2, r2, #3
 2310 07e8 0292     		str	r2, [sp, #8]
 2311 07ea 0193     		str	r3, [sp, #4]
 2312 07ec 5C23     		movs	r3, #92
 2313 07ee 1022     		movs	r2, #16
 2314 07f0 9446     		mov	ip, r2
 2315 07f2 BC44     		add	ip, ip, r7
 2316 07f4 6344     		add	r3, r3, ip
 2317 07f6 0093     		str	r3, [sp]
 2318 07f8 0023     		movs	r3, #0
 2319 07fa 2200     		movs	r2, r4
 2320 07fc FFF7FEFF 		bl	prv_serializeAttributes
 2321 0800 0300     		movs	r3, r0
 2322 0802 884A     		ldr	r2, .L129+4
 2323 0804 7919     		adds	r1, r7, r5
 2324 0806 8918     		adds	r1, r1, r2
 2325 0808 0B60     		str	r3, [r1]
 2326 080a 7B19     		adds	r3, r7, r5
 2327 080c 9B18     		adds	r3, r3, r2
 2328 080e 1B68     		ldr	r3, [r3]
 2329 0810 002B     		cmp	r3, #0
 2330 0812 02DA     		bge	.L116
 2331 0814 0123     		movs	r3, #1
 2332 0816 5B42     		rsbs	r3, r3, #0
ARM GAS  C:\Users\SONG_J~1\AppData\Local\Temp\cciyiCte.s 			page 42


 2333 0818 FAE0     		b	.L124
 2334              	.L116:
 2335 081a 824B     		ldr	r3, .L129+4
 2336 081c 1022     		movs	r2, #16
 2337 081e 9446     		mov	ip, r2
 2338 0820 BC44     		add	ip, ip, r7
 2339 0822 6344     		add	r3, r3, ip
 2340 0824 1B68     		ldr	r3, [r3]
 2341 0826 8E21     		movs	r1, #142
 2342 0828 C900     		lsls	r1, r1, #3
 2343 082a 1020     		movs	r0, #16
 2344 082c 3A18     		adds	r2, r7, r0
 2345 082e 5218     		adds	r2, r2, r1
 2346 0830 1268     		ldr	r2, [r2]
 2347 0832 D318     		adds	r3, r2, r3
 2348 0834 3A18     		adds	r2, r7, r0
 2349 0836 5218     		adds	r2, r2, r1
 2350 0838 1360     		str	r3, [r2]
 2351              	.L101:
 2352 083a 4823     		movs	r3, #72
 2353 083c 1020     		movs	r0, #16
 2354 083e 0400     		movs	r4, r0
 2355 0840 3A18     		adds	r2, r7, r0
 2356 0842 D118     		adds	r1, r2, r3
 2357 0844 B869     		ldr	r0, [r7, #24]
 2358 0846 0023     		movs	r3, #0
 2359 0848 1222     		movs	r2, #18
 2360 084a FFF7FEFF 		bl	uri_toString
 2361 084e 0300     		movs	r3, r0
 2362 0850 754A     		ldr	r2, .L129+8
 2363 0852 2000     		movs	r0, r4
 2364 0854 3918     		adds	r1, r7, r0
 2365 0856 8918     		adds	r1, r1, r2
 2366 0858 0B60     		str	r3, [r1]
 2367 085a 3B18     		adds	r3, r7, r0
 2368 085c 9B18     		adds	r3, r3, r2
 2369 085e 1B68     		ldr	r3, [r3]
 2370 0860 002B     		cmp	r3, #0
 2371 0862 02DA     		bge	.L117
 2372 0864 0123     		movs	r3, #1
 2373 0866 5B42     		rsbs	r3, r3, #0
 2374 0868 D2E0     		b	.L124
 2375              	.L117:
 2376 086a 6F4A     		ldr	r2, .L129+8
 2377 086c 1023     		movs	r3, #16
 2378 086e FB18     		adds	r3, r7, r3
 2379 0870 9B18     		adds	r3, r3, r2
 2380 0872 1B68     		ldr	r3, [r3]
 2381 0874 013B     		subs	r3, r3, #1
 2382 0876 1021     		movs	r1, #16
 2383 0878 8C46     		mov	ip, r1
 2384 087a BC44     		add	ip, ip, r7
 2385 087c 6244     		add	r2, r2, ip
 2386 087e 1360     		str	r3, [r2]
 2387 0880 0023     		movs	r3, #0
 2388 0882 6A4A     		ldr	r2, .L129+12
 2389 0884 1021     		movs	r1, #16
ARM GAS  C:\Users\SONG_J~1\AppData\Local\Temp\cciyiCte.s 			page 43


 2390 0886 8C46     		mov	ip, r1
 2391 0888 BC44     		add	ip, ip, r7
 2392 088a 6244     		add	r2, r2, ip
 2393 088c 1360     		str	r3, [r2]
 2394 088e 65E0     		b	.L118
 2395              	.L121:
 2396 0890 664B     		ldr	r3, .L129+12
 2397 0892 1022     		movs	r2, #16
 2398 0894 9446     		mov	ip, r2
 2399 0896 BC44     		add	ip, ip, r7
 2400 0898 6344     		add	r3, r3, ip
 2401 089a 1B68     		ldr	r3, [r3]
 2402 089c 1B01     		lsls	r3, r3, #4
 2403 089e 9222     		movs	r2, #146
 2404 08a0 D200     		lsls	r2, r2, #3
 2405 08a2 1021     		movs	r1, #16
 2406 08a4 8C46     		mov	ip, r1
 2407 08a6 BC44     		add	ip, ip, r7
 2408 08a8 6244     		add	r2, r2, ip
 2409 08aa 1268     		ldr	r2, [r2]
 2410 08ac D418     		adds	r4, r2, r3
 2411 08ae 5E4B     		ldr	r3, .L129+8
 2412 08b0 1022     		movs	r2, #16
 2413 08b2 9446     		mov	ip, r2
 2414 08b4 BC44     		add	ip, ip, r7
 2415 08b6 6344     		add	r3, r3, ip
 2416 08b8 1B68     		ldr	r3, [r3]
 2417 08ba 5C22     		movs	r2, #92
 2418 08bc 1025     		movs	r5, #16
 2419 08be 7919     		adds	r1, r7, r5
 2420 08c0 8918     		adds	r1, r1, r2
 2421 08c2 8E20     		movs	r0, #142
 2422 08c4 C000     		lsls	r0, r0, #3
 2423 08c6 7A19     		adds	r2, r7, r5
 2424 08c8 1218     		adds	r2, r2, r0
 2425 08ca 1268     		ldr	r2, [r2]
 2426 08cc 8A18     		adds	r2, r1, r2
 2427 08ce 7919     		adds	r1, r7, r5
 2428 08d0 0918     		adds	r1, r1, r0
 2429 08d2 0968     		ldr	r1, [r1]
 2430 08d4 8020     		movs	r0, #128
 2431 08d6 C000     		lsls	r0, r0, #3
 2432 08d8 411A     		subs	r1, r0, r1
 2433 08da 8D20     		movs	r0, #141
 2434 08dc C000     		lsls	r0, r0, #3
 2435 08de 1026     		movs	r6, #16
 2436 08e0 B446     		mov	ip, r6
 2437 08e2 BC44     		add	ip, ip, r7
 2438 08e4 6044     		add	r0, r0, ip
 2439 08e6 0668     		ldr	r6, [r0]
 2440 08e8 7D69     		ldr	r5, [r7, #20]
 2441 08ea F869     		ldr	r0, [r7, #28]
 2442 08ec 0491     		str	r1, [sp, #16]
 2443 08ee 0392     		str	r2, [sp, #12]
 2444 08f0 0293     		str	r3, [sp, #8]
 2445 08f2 4823     		movs	r3, #72
 2446 08f4 1022     		movs	r2, #16
ARM GAS  C:\Users\SONG_J~1\AppData\Local\Temp\cciyiCte.s 			page 44


 2447 08f6 9446     		mov	ip, r2
 2448 08f8 BC44     		add	ip, ip, r7
 2449 08fa 6344     		add	r3, r3, ip
 2450 08fc 0193     		str	r3, [sp, #4]
 2451 08fe BB69     		ldr	r3, [r7, #24]
 2452 0900 0093     		str	r3, [sp]
 2453 0902 3300     		movs	r3, r6
 2454 0904 2A00     		movs	r2, r5
 2455 0906 2100     		movs	r1, r4
 2456 0908 FFF7FEFF 		bl	prv_serializeLinkData
 2457 090c 0300     		movs	r3, r0
 2458 090e 454A     		ldr	r2, .L129+4
 2459 0910 1025     		movs	r5, #16
 2460 0912 7919     		adds	r1, r7, r5
 2461 0914 8918     		adds	r1, r1, r2
 2462 0916 0B60     		str	r3, [r1]
 2463 0918 7B19     		adds	r3, r7, r5
 2464 091a 9B18     		adds	r3, r3, r2
 2465 091c 1B68     		ldr	r3, [r3]
 2466 091e 002B     		cmp	r3, #0
 2467 0920 02DA     		bge	.L119
 2468 0922 0123     		movs	r3, #1
 2469 0924 5B42     		rsbs	r3, r3, #0
 2470 0926 73E0     		b	.L124
 2471              	.L119:
 2472 0928 3E4B     		ldr	r3, .L129+4
 2473 092a 1022     		movs	r2, #16
 2474 092c 9446     		mov	ip, r2
 2475 092e BC44     		add	ip, ip, r7
 2476 0930 6344     		add	r3, r3, ip
 2477 0932 1B68     		ldr	r3, [r3]
 2478 0934 8E21     		movs	r1, #142
 2479 0936 C900     		lsls	r1, r1, #3
 2480 0938 1020     		movs	r0, #16
 2481 093a 3A18     		adds	r2, r7, r0
 2482 093c 5218     		adds	r2, r2, r1
 2483 093e 1268     		ldr	r2, [r2]
 2484 0940 D318     		adds	r3, r2, r3
 2485 0942 3A18     		adds	r2, r7, r0
 2486 0944 5218     		adds	r2, r2, r1
 2487 0946 1360     		str	r3, [r2]
 2488 0948 384A     		ldr	r2, .L129+12
 2489 094a 3B18     		adds	r3, r7, r0
 2490 094c 9B18     		adds	r3, r3, r2
 2491 094e 1B68     		ldr	r3, [r3]
 2492 0950 0133     		adds	r3, r3, #1
 2493 0952 1021     		movs	r1, #16
 2494 0954 8C46     		mov	ip, r1
 2495 0956 BC44     		add	ip, ip, r7
 2496 0958 6244     		add	r2, r2, ip
 2497 095a 1360     		str	r3, [r2]
 2498              	.L118:
 2499 095c 334B     		ldr	r3, .L129+12
 2500 095e 1022     		movs	r2, #16
 2501 0960 9446     		mov	ip, r2
 2502 0962 BC44     		add	ip, ip, r7
 2503 0964 6344     		add	r3, r3, ip
ARM GAS  C:\Users\SONG_J~1\AppData\Local\Temp\cciyiCte.s 			page 45


 2504 0966 1A68     		ldr	r2, [r3]
 2505 0968 3B69     		ldr	r3, [r7, #16]
 2506 096a 9A42     		cmp	r2, r3
 2507 096c 09DA     		bge	.L120
 2508 096e 8E23     		movs	r3, #142
 2509 0970 DB00     		lsls	r3, r3, #3
 2510 0972 1022     		movs	r2, #16
 2511 0974 9446     		mov	ip, r2
 2512 0976 BC44     		add	ip, ip, r7
 2513 0978 6344     		add	r3, r3, ip
 2514 097a 1B68     		ldr	r3, [r3]
 2515 097c 2C4A     		ldr	r2, .L129+16
 2516 097e 9342     		cmp	r3, r2
 2517 0980 86D9     		bls	.L121
 2518              	.L120:
 2519 0982 8E23     		movs	r3, #142
 2520 0984 DB00     		lsls	r3, r3, #3
 2521 0986 1022     		movs	r2, #16
 2522 0988 9446     		mov	ip, r2
 2523 098a BC44     		add	ip, ip, r7
 2524 098c 6344     		add	r3, r3, ip
 2525 098e 1B68     		ldr	r3, [r3]
 2526 0990 002B     		cmp	r3, #0
 2527 0992 36D0     		beq	.L122
 2528 0994 8E22     		movs	r2, #142
 2529 0996 D200     		lsls	r2, r2, #3
 2530 0998 1021     		movs	r1, #16
 2531 099a 7B18     		adds	r3, r7, r1
 2532 099c 9B18     		adds	r3, r3, r2
 2533 099e 1B68     		ldr	r3, [r3]
 2534 09a0 013B     		subs	r3, r3, #1
 2535 09a2 0800     		movs	r0, r1
 2536 09a4 3918     		adds	r1, r7, r0
 2537 09a6 8918     		adds	r1, r1, r2
 2538 09a8 0B60     		str	r3, [r1]
 2539 09aa 0400     		movs	r4, r0
 2540 09ac 3B18     		adds	r3, r7, r0
 2541 09ae 9B18     		adds	r3, r3, r2
 2542 09b0 1B68     		ldr	r3, [r3]
 2543 09b2 1800     		movs	r0, r3
 2544 09b4 FFF7FEFF 		bl	lwm2m_malloc
 2545 09b8 0200     		movs	r2, r0
 2546 09ba 1E49     		ldr	r1, .L129+20
 2547 09bc 2000     		movs	r0, r4
 2548 09be 3B18     		adds	r3, r7, r0
 2549 09c0 5B18     		adds	r3, r3, r1
 2550 09c2 1B68     		ldr	r3, [r3]
 2551 09c4 1A60     		str	r2, [r3]
 2552 09c6 3B18     		adds	r3, r7, r0
 2553 09c8 5B18     		adds	r3, r3, r1
 2554 09ca 1B68     		ldr	r3, [r3]
 2555 09cc 1B68     		ldr	r3, [r3]
 2556 09ce 002B     		cmp	r3, #0
 2557 09d0 01D1     		bne	.L123
 2558 09d2 0023     		movs	r3, #0
 2559 09d4 1CE0     		b	.L124
 2560              	.L123:
ARM GAS  C:\Users\SONG_J~1\AppData\Local\Temp\cciyiCte.s 			page 46


 2561 09d6 174B     		ldr	r3, .L129+20
 2562 09d8 1022     		movs	r2, #16
 2563 09da 9446     		mov	ip, r2
 2564 09dc BC44     		add	ip, ip, r7
 2565 09de 6344     		add	r3, r3, ip
 2566 09e0 1B68     		ldr	r3, [r3]
 2567 09e2 1B68     		ldr	r3, [r3]
 2568 09e4 8E22     		movs	r2, #142
 2569 09e6 D200     		lsls	r2, r2, #3
 2570 09e8 1021     		movs	r1, #16
 2571 09ea 8C46     		mov	ip, r1
 2572 09ec BC44     		add	ip, ip, r7
 2573 09ee 6244     		add	r2, r2, ip
 2574 09f0 1268     		ldr	r2, [r2]
 2575 09f2 5C21     		movs	r1, #92
 2576 09f4 1020     		movs	r0, #16
 2577 09f6 8446     		mov	ip, r0
 2578 09f8 BC44     		add	ip, ip, r7
 2579 09fa 6144     		add	r1, r1, ip
 2580 09fc 1800     		movs	r0, r3
 2581 09fe FFF7FEFF 		bl	memcpy
 2582              	.L122:
 2583 0a02 8E23     		movs	r3, #142
 2584 0a04 DB00     		lsls	r3, r3, #3
 2585 0a06 1022     		movs	r2, #16
 2586 0a08 9446     		mov	ip, r2
 2587 0a0a BC44     		add	ip, ip, r7
 2588 0a0c 6344     		add	r3, r3, ip
 2589 0a0e 1B68     		ldr	r3, [r3]
 2590              	.L124:
 2591 0a10 1800     		movs	r0, r3
 2592 0a12 BD46     		mov	sp, r7
 2593 0a14 9123     		movs	r3, #145
 2594 0a16 DB00     		lsls	r3, r3, #3
 2595 0a18 9D44     		add	sp, sp, r3
 2596              		@ sp needed
 2597 0a1a 04BC     		pop	{r2}
 2598 0a1c 9046     		mov	r8, r2
 2599 0a1e F0BD     		pop	{r4, r5, r6, r7, pc}
 2600              	.L130:
 2601              		.align	2
 2602              	.L129:
 2603 0a20 34000000 		.word	.LC21
 2604 0a24 6C040000 		.word	1132
 2605 0a28 5C040000 		.word	1116
 2606 0a2c 74040000 		.word	1140
 2607 0a30 FF030000 		.word	1023
 2608 0a34 94040000 		.word	1172
 2610              		.section	.rodata.__func__.7136,"a",%progbits
 2611              		.align	2
 2614              	__func__.7136:
 2615 0000 64697363 		.ascii	"discover_serialize\000"
 2615      6F766572 
 2615      5F736572 
 2615      69616C69 
 2615      7A6500
 2616              		.ident	"GCC: (GNU Tools for Arm Embedded Processors 7-2017-q4-major) 7.2.1 20170904 (release) [ARM
ARM GAS  C:\Users\SONG_J~1\AppData\Local\Temp\cciyiCte.s 			page 47


ARM GAS  C:\Users\SONG_J~1\AppData\Local\Temp\cciyiCte.s 			page 48

