ARM GAS  C:\Users\SONG_J~1\AppData\Local\Temp\ccnzGsMG.s 			page 1


   1              		.cpu cortex-m0
   2              		.eabi_attribute 20, 1
   3              		.eabi_attribute 21, 1
   4              		.eabi_attribute 23, 3
   5              		.eabi_attribute 24, 1
   6              		.eabi_attribute 25, 1
   7              		.eabi_attribute 26, 1
   8              		.eabi_attribute 30, 6
   9              		.eabi_attribute 34, 0
  10              		.eabi_attribute 18, 4
  11              		.file	"hw_timer.c"
  12              		.section	.bss.my_timer_data,"aw",%nobits
  13              		.align	2
  16              	my_timer_data:
  17 0000 00000000 		.space	32
  17      00000000 
  17      00000000 
  17      00000000 
  17      00000000 
  18              		.section	.rodata.my_timer,"a",%progbits
  19              		.align	2
  22              	my_timer:
  23 0000 00000000 		.word	my_timer_data
  24              		.section	.bss.my_timer2_data,"aw",%nobits
  25              		.align	2
  28              	my_timer2_data:
  29 0000 00000000 		.space	32
  29      00000000 
  29      00000000 
  29      00000000 
  29      00000000 
  30              		.section	.rodata.my_timer2,"a",%progbits
  31              		.align	2
  34              	my_timer2:
  35 0000 00000000 		.word	my_timer2_data
  36              		.global	g_kerneltickscount
  37              		.section	.bss.g_kerneltickscount,"aw",%nobits
  38              		.align	3
  41              	g_kerneltickscount:
  42 0000 00000000 		.space	8
  42      00000000 
  43              		.section	.rodata
  44              		.align	2
  45              	.LC0:
  46 0000 08       		.byte	8
  47 0001 03       		.byte	3
  48              		.section	.text.lfclk_request,"ax",%progbits
  49              		.align	1
  50              		.syntax unified
  51              		.code	16
  52              		.thumb_func
  53              		.fpu softvfp
  55              	lfclk_request:
  56              		@ args = 0, pretend = 0, frame = 16
  57              		@ frame_needed = 1, uses_anonymous_args = 0
  58 0000 80B5     		push	{r7, lr}
  59 0002 84B0     		sub	sp, sp, #16
ARM GAS  C:\Users\SONG_J~1\AppData\Local\Temp\ccnzGsMG.s 			page 2


  60 0004 00AF     		add	r7, sp, #0
  61 0006 3B1D     		adds	r3, r7, #4
  62 0008 0C4A     		ldr	r2, .L3
  63 000a 1288     		ldrh	r2, [r2]
  64 000c 1A80     		strh	r2, [r3]
  65 000e 3B1D     		adds	r3, r7, #4
  66 0010 1800     		movs	r0, r3
  67 0012 FFF7FEFF 		bl	nrf_drv_clock_init
  68 0016 0300     		movs	r3, r0
  69 0018 FB60     		str	r3, [r7, #12]
  70 001a FB68     		ldr	r3, [r7, #12]
  71 001c BB60     		str	r3, [r7, #8]
  72 001e BB68     		ldr	r3, [r7, #8]
  73 0020 002B     		cmp	r3, #0
  74 0022 05D0     		beq	.L2
  75 0024 BB68     		ldr	r3, [r7, #8]
  76 0026 0022     		movs	r2, #0
  77 0028 0021     		movs	r1, #0
  78 002a 1800     		movs	r0, r3
  79 002c FFF7FEFF 		bl	app_error_handler
  80              	.L2:
  81 0030 FFF7FEFF 		bl	nrf_drv_clock_lfclk_request
  82 0034 C046     		nop
  83 0036 BD46     		mov	sp, r7
  84 0038 04B0     		add	sp, sp, #16
  85              		@ sp needed
  86 003a 80BD     		pop	{r7, pc}
  87              	.L4:
  88              		.align	2
  89              	.L3:
  90 003c 00000000 		.word	.LC0
  92              		.section	.text.my_timer_handler,"ax",%progbits
  93              		.align	1
  94              		.syntax unified
  95              		.code	16
  96              		.thumb_func
  97              		.fpu softvfp
  99              	my_timer_handler:
 100              		@ args = 0, pretend = 0, frame = 8
 101              		@ frame_needed = 1, uses_anonymous_args = 0
 102 0000 90B5     		push	{r4, r7, lr}
 103 0002 83B0     		sub	sp, sp, #12
 104 0004 00AF     		add	r7, sp, #0
 105 0006 7860     		str	r0, [r7, #4]
 106 0008 064B     		ldr	r3, .L6
 107 000a 5C68     		ldr	r4, [r3, #4]
 108 000c 1B68     		ldr	r3, [r3]
 109 000e 0121     		movs	r1, #1
 110 0010 0022     		movs	r2, #0
 111 0012 5B18     		adds	r3, r3, r1
 112 0014 5441     		adcs	r4, r4, r2
 113 0016 034A     		ldr	r2, .L6
 114 0018 1360     		str	r3, [r2]
 115 001a 5460     		str	r4, [r2, #4]
 116 001c C046     		nop
 117 001e BD46     		mov	sp, r7
 118 0020 03B0     		add	sp, sp, #12
ARM GAS  C:\Users\SONG_J~1\AppData\Local\Temp\ccnzGsMG.s 			page 3


 119              		@ sp needed
 120 0022 90BD     		pop	{r4, r7, pc}
 121              	.L7:
 122              		.align	2
 123              	.L6:
 124 0024 00000000 		.word	g_kerneltickscount
 126              		.section	.text.my_timer2_handler,"ax",%progbits
 127              		.align	1
 128              		.syntax unified
 129              		.code	16
 130              		.thumb_func
 131              		.fpu softvfp
 133              	my_timer2_handler:
 134              		@ args = 0, pretend = 0, frame = 8
 135              		@ frame_needed = 1, uses_anonymous_args = 0
 136 0000 80B5     		push	{r7, lr}
 137 0002 82B0     		sub	sp, sp, #8
 138 0004 00AF     		add	r7, sp, #0
 139 0006 7860     		str	r0, [r7, #4]
 140 0008 FFF7FEFF 		bl	app_data_report
 141 000c C046     		nop
 142 000e BD46     		mov	sp, r7
 143 0010 02B0     		add	sp, sp, #8
 144              		@ sp needed
 145 0012 80BD     		pop	{r7, pc}
 147              		.section	.text.hw_timer_init,"ax",%progbits
 148              		.align	1
 149              		.global	hw_timer_init
 150              		.syntax unified
 151              		.code	16
 152              		.thumb_func
 153              		.fpu softvfp
 155              	hw_timer_init:
 156              		@ args = 0, pretend = 0, frame = 8
 157              		@ frame_needed = 1, uses_anonymous_args = 0
 158 0000 80B5     		push	{r7, lr}
 159 0002 82B0     		sub	sp, sp, #8
 160 0004 00AF     		add	r7, sp, #0
 161 0006 FFF7FEFF 		bl	lfclk_request
 162 000a 0C4A     		ldr	r2, .L11
 163 000c 0023     		movs	r3, #0
 164 000e 0421     		movs	r1, #4
 165 0010 0020     		movs	r0, #0
 166 0012 FFF7FEFF 		bl	app_timer_init
 167 0016 0300     		movs	r3, r0
 168 0018 7B60     		str	r3, [r7, #4]
 169 001a 7B68     		ldr	r3, [r7, #4]
 170 001c 3B60     		str	r3, [r7]
 171 001e 3B68     		ldr	r3, [r7]
 172 0020 002B     		cmp	r3, #0
 173 0022 05D0     		beq	.L10
 174 0024 3B68     		ldr	r3, [r7]
 175 0026 0022     		movs	r2, #0
 176 0028 0021     		movs	r1, #0
 177 002a 1800     		movs	r0, r3
 178 002c FFF7FEFF 		bl	app_error_handler
 179              	.L10:
ARM GAS  C:\Users\SONG_J~1\AppData\Local\Temp\ccnzGsMG.s 			page 4


 180 0030 FFF7FEFF 		bl	hw_timer_start
 181 0034 C046     		nop
 182 0036 BD46     		mov	sp, r7
 183 0038 02B0     		add	sp, sp, #8
 184              		@ sp needed
 185 003a 80BD     		pop	{r7, pc}
 186              	.L12:
 187              		.align	2
 188              	.L11:
 189 003c 00000000 		.word	APP_TIMER_BUF.6809
 191              		.section	.text.hw_timer_start,"ax",%progbits
 192              		.align	1
 193              		.global	hw_timer_start
 194              		.syntax unified
 195              		.code	16
 196              		.thumb_func
 197              		.fpu softvfp
 199              	hw_timer_start:
 200              		@ args = 0, pretend = 0, frame = 0
 201              		@ frame_needed = 1, uses_anonymous_args = 0
 202 0000 80B5     		push	{r7, lr}
 203 0002 00AF     		add	r7, sp, #0
 204 0004 0D4A     		ldr	r2, .L14
 205 0006 0E4B     		ldr	r3, .L14+4
 206 0008 0121     		movs	r1, #1
 207 000a 1800     		movs	r0, r3
 208 000c FFF7FEFF 		bl	app_timer_create
 209 0010 0C4B     		ldr	r3, .L14+8
 210 0012 0022     		movs	r2, #0
 211 0014 2121     		movs	r1, #33
 212 0016 1800     		movs	r0, r3
 213 0018 FFF7FEFF 		bl	app_timer_start
 214 001c 0A4A     		ldr	r2, .L14+12
 215 001e 0B4B     		ldr	r3, .L14+16
 216 0020 0121     		movs	r1, #1
 217 0022 1800     		movs	r0, r3
 218 0024 FFF7FEFF 		bl	app_timer_create
 219 0028 0948     		ldr	r0, .L14+20
 220 002a 8023     		movs	r3, #128
 221 002c 5B02     		lsls	r3, r3, #9
 222 002e 0022     		movs	r2, #0
 223 0030 1900     		movs	r1, r3
 224 0032 FFF7FEFF 		bl	app_timer_start
 225 0036 C046     		nop
 226 0038 BD46     		mov	sp, r7
 227              		@ sp needed
 228 003a 80BD     		pop	{r7, pc}
 229              	.L15:
 230              		.align	2
 231              	.L14:
 232 003c 00000000 		.word	my_timer_handler
 233 0040 00000000 		.word	my_timer
 234 0044 00000000 		.word	my_timer_data
 235 0048 00000000 		.word	my_timer2_handler
 236 004c 00000000 		.word	my_timer2
 237 0050 00000000 		.word	my_timer2_data
 239              		.section	.bss.APP_TIMER_BUF.6809,"aw",%nobits
ARM GAS  C:\Users\SONG_J~1\AppData\Local\Temp\ccnzGsMG.s 			page 5


 240              		.align	2
 243              	APP_TIMER_BUF.6809:
 244 0000 00000000 		.space	384
 244      00000000 
 244      00000000 
 244      00000000 
 244      00000000 
 245              		.ident	"GCC: (GNU Tools for Arm Embedded Processors 7-2017-q4-major) 7.2.1 20170904 (release) [ARM
ARM GAS  C:\Users\SONG_J~1\AppData\Local\Temp\ccnzGsMG.s 			page 6

