ARM GAS  C:\Users\SONG_J~1\AppData\Local\Temp\ccLqJOCQ.s 			page 1


   1              		.cpu cortex-m0
   2              		.eabi_attribute 20, 1
   3              		.eabi_attribute 21, 1
   4              		.eabi_attribute 23, 3
   5              		.eabi_attribute 24, 1
   6              		.eabi_attribute 25, 1
   7              		.eabi_attribute 26, 1
   8              		.eabi_attribute 30, 6
   9              		.eabi_attribute 34, 0
  10              		.eabi_attribute 18, 4
  11              		.file	"nrf_drv_clock.c"
  12              		.section	.text.nrf_clock_int_enable,"ax",%progbits
  13              		.align	1
  14              		.syntax unified
  15              		.code	16
  16              		.thumb_func
  17              		.fpu softvfp
  19              	nrf_clock_int_enable:
  20              		@ args = 0, pretend = 0, frame = 8
  21              		@ frame_needed = 1, uses_anonymous_args = 0
  22 0000 80B5     		push	{r7, lr}
  23 0002 82B0     		sub	sp, sp, #8
  24 0004 00AF     		add	r7, sp, #0
  25 0006 7860     		str	r0, [r7, #4]
  26 0008 8023     		movs	r3, #128
  27 000a DA05     		lsls	r2, r3, #23
  28 000c C123     		movs	r3, #193
  29 000e 9B00     		lsls	r3, r3, #2
  30 0010 7968     		ldr	r1, [r7, #4]
  31 0012 D150     		str	r1, [r2, r3]
  32 0014 C046     		nop
  33 0016 BD46     		mov	sp, r7
  34 0018 02B0     		add	sp, sp, #8
  35              		@ sp needed
  36 001a 80BD     		pop	{r7, pc}
  38              		.section	.text.nrf_clock_task_trigger,"ax",%progbits
  39              		.align	1
  40              		.syntax unified
  41              		.code	16
  42              		.thumb_func
  43              		.fpu softvfp
  45              	nrf_clock_task_trigger:
  46              		@ args = 0, pretend = 0, frame = 8
  47              		@ frame_needed = 1, uses_anonymous_args = 0
  48 0000 80B5     		push	{r7, lr}
  49 0002 82B0     		sub	sp, sp, #8
  50 0004 00AF     		add	r7, sp, #0
  51 0006 0200     		movs	r2, r0
  52 0008 FB1D     		adds	r3, r7, #7
  53 000a 1A70     		strb	r2, [r3]
  54 000c FB1D     		adds	r3, r7, #7
  55 000e 1B78     		ldrb	r3, [r3]
  56 0010 8022     		movs	r2, #128
  57 0012 D205     		lsls	r2, r2, #23
  58 0014 9446     		mov	ip, r2
  59 0016 6344     		add	r3, r3, ip
  60 0018 0122     		movs	r2, #1
ARM GAS  C:\Users\SONG_J~1\AppData\Local\Temp\ccLqJOCQ.s 			page 2


  61 001a 1A60     		str	r2, [r3]
  62 001c C046     		nop
  63 001e BD46     		mov	sp, r7
  64 0020 02B0     		add	sp, sp, #8
  65              		@ sp needed
  66 0022 80BD     		pop	{r7, pc}
  68              		.section	.text.nrf_clock_event_clear,"ax",%progbits
  69              		.align	1
  70              		.syntax unified
  71              		.code	16
  72              		.thumb_func
  73              		.fpu softvfp
  75              	nrf_clock_event_clear:
  76              		@ args = 0, pretend = 0, frame = 8
  77              		@ frame_needed = 1, uses_anonymous_args = 0
  78 0000 80B5     		push	{r7, lr}
  79 0002 82B0     		sub	sp, sp, #8
  80 0004 00AF     		add	r7, sp, #0
  81 0006 0200     		movs	r2, r0
  82 0008 BB1D     		adds	r3, r7, #6
  83 000a 1A80     		strh	r2, [r3]
  84 000c BB1D     		adds	r3, r7, #6
  85 000e 1B88     		ldrh	r3, [r3]
  86 0010 8022     		movs	r2, #128
  87 0012 D205     		lsls	r2, r2, #23
  88 0014 9446     		mov	ip, r2
  89 0016 6344     		add	r3, r3, ip
  90 0018 0022     		movs	r2, #0
  91 001a 1A60     		str	r2, [r3]
  92 001c C046     		nop
  93 001e BD46     		mov	sp, r7
  94 0020 02B0     		add	sp, sp, #8
  95              		@ sp needed
  96 0022 80BD     		pop	{r7, pc}
  98              		.section	.text.nrf_clock_lf_src_set,"ax",%progbits
  99              		.align	1
 100              		.syntax unified
 101              		.code	16
 102              		.thumb_func
 103              		.fpu softvfp
 105              	nrf_clock_lf_src_set:
 106              		@ args = 0, pretend = 0, frame = 8
 107              		@ frame_needed = 1, uses_anonymous_args = 0
 108 0000 80B5     		push	{r7, lr}
 109 0002 82B0     		sub	sp, sp, #8
 110 0004 00AF     		add	r7, sp, #0
 111 0006 0200     		movs	r2, r0
 112 0008 FB1D     		adds	r3, r7, #7
 113 000a 1A70     		strb	r2, [r3]
 114 000c FB1D     		adds	r3, r7, #7
 115 000e 1B78     		ldrb	r3, [r3]
 116 0010 8022     		movs	r2, #128
 117 0012 D205     		lsls	r2, r2, #23
 118 0014 0321     		movs	r1, #3
 119 0016 1940     		ands	r1, r3
 120 0018 A323     		movs	r3, #163
 121 001a DB00     		lsls	r3, r3, #3
ARM GAS  C:\Users\SONG_J~1\AppData\Local\Temp\ccLqJOCQ.s 			page 3


 122 001c D150     		str	r1, [r2, r3]
 123 001e C046     		nop
 124 0020 BD46     		mov	sp, r7
 125 0022 02B0     		add	sp, sp, #8
 126              		@ sp needed
 127 0024 80BD     		pop	{r7, pc}
 129              		.section	.text.nrf_clock_lf_is_running,"ax",%progbits
 130              		.align	1
 131              		.syntax unified
 132              		.code	16
 133              		.thumb_func
 134              		.fpu softvfp
 136              	nrf_clock_lf_is_running:
 137              		@ args = 0, pretend = 0, frame = 0
 138              		@ frame_needed = 1, uses_anonymous_args = 0
 139 0000 80B5     		push	{r7, lr}
 140 0002 00AF     		add	r7, sp, #0
 141 0004 8023     		movs	r3, #128
 142 0006 DA05     		lsls	r2, r3, #23
 143 0008 8323     		movs	r3, #131
 144 000a DB00     		lsls	r3, r3, #3
 145 000c D358     		ldr	r3, [r2, r3]
 146 000e 1B0C     		lsrs	r3, r3, #16
 147 0010 0122     		movs	r2, #1
 148 0012 1340     		ands	r3, r2
 149 0014 5A1E     		subs	r2, r3, #1
 150 0016 9341     		sbcs	r3, r3, r2
 151 0018 DBB2     		uxtb	r3, r3
 152 001a 1800     		movs	r0, r3
 153 001c BD46     		mov	sp, r7
 154              		@ sp needed
 155 001e 80BD     		pop	{r7, pc}
 157              		.section	.text.nrf_clock_lf_start_task_status_get,"ax",%progbits
 158              		.align	1
 159              		.syntax unified
 160              		.code	16
 161              		.thumb_func
 162              		.fpu softvfp
 164              	nrf_clock_lf_start_task_status_get:
 165              		@ args = 0, pretend = 0, frame = 0
 166              		@ frame_needed = 1, uses_anonymous_args = 0
 167 0000 80B5     		push	{r7, lr}
 168 0002 00AF     		add	r7, sp, #0
 169 0004 8023     		movs	r3, #128
 170 0006 DB05     		lsls	r3, r3, #23
 171 0008 044A     		ldr	r2, .L9
 172 000a 9B58     		ldr	r3, [r3, r2]
 173 000c DBB2     		uxtb	r3, r3
 174 000e 0122     		movs	r2, #1
 175 0010 1340     		ands	r3, r2
 176 0012 DBB2     		uxtb	r3, r3
 177 0014 1800     		movs	r0, r3
 178 0016 BD46     		mov	sp, r7
 179              		@ sp needed
 180 0018 80BD     		pop	{r7, pc}
 181              	.L10:
 182 001a C046     		.align	2
ARM GAS  C:\Users\SONG_J~1\AppData\Local\Temp\ccLqJOCQ.s 			page 4


 183              	.L9:
 184 001c 14040000 		.word	1044
 186              		.section	.text.nrf_clock_hf_src_get,"ax",%progbits
 187              		.align	1
 188              		.syntax unified
 189              		.code	16
 190              		.thumb_func
 191              		.fpu softvfp
 193              	nrf_clock_hf_src_get:
 194              		@ args = 0, pretend = 0, frame = 0
 195              		@ frame_needed = 1, uses_anonymous_args = 0
 196 0000 80B5     		push	{r7, lr}
 197 0002 00AF     		add	r7, sp, #0
 198 0004 8023     		movs	r3, #128
 199 0006 DB05     		lsls	r3, r3, #23
 200 0008 044A     		ldr	r2, .L13
 201 000a 9B58     		ldr	r3, [r3, r2]
 202 000c DBB2     		uxtb	r3, r3
 203 000e 0122     		movs	r2, #1
 204 0010 1340     		ands	r3, r2
 205 0012 DBB2     		uxtb	r3, r3
 206 0014 1800     		movs	r0, r3
 207 0016 BD46     		mov	sp, r7
 208              		@ sp needed
 209 0018 80BD     		pop	{r7, pc}
 210              	.L14:
 211 001a C046     		.align	2
 212              	.L13:
 213 001c 0C040000 		.word	1036
 215              		.section	.text.nrf_clock_hf_is_running,"ax",%progbits
 216              		.align	1
 217              		.syntax unified
 218              		.code	16
 219              		.thumb_func
 220              		.fpu softvfp
 222              	nrf_clock_hf_is_running:
 223              		@ args = 0, pretend = 0, frame = 0
 224              		@ frame_needed = 1, uses_anonymous_args = 0
 225 0000 80B5     		push	{r7, lr}
 226 0002 00AF     		add	r7, sp, #0
 227 0004 8023     		movs	r3, #128
 228 0006 DB05     		lsls	r3, r3, #23
 229 0008 054A     		ldr	r2, .L17
 230 000a 9B58     		ldr	r3, [r3, r2]
 231 000c 1B0C     		lsrs	r3, r3, #16
 232 000e 0122     		movs	r2, #1
 233 0010 1340     		ands	r3, r2
 234 0012 5A1E     		subs	r2, r3, #1
 235 0014 9341     		sbcs	r3, r3, r2
 236 0016 DBB2     		uxtb	r3, r3
 237 0018 1800     		movs	r0, r3
 238 001a BD46     		mov	sp, r7
 239              		@ sp needed
 240 001c 80BD     		pop	{r7, pc}
 241              	.L18:
 242 001e C046     		.align	2
 243              	.L17:
ARM GAS  C:\Users\SONG_J~1\AppData\Local\Temp\ccLqJOCQ.s 			page 5


 244 0020 0C040000 		.word	1036
 246              		.section	.text.nrf_clock_hf_start_task_status_get,"ax",%progbits
 247              		.align	1
 248              		.syntax unified
 249              		.code	16
 250              		.thumb_func
 251              		.fpu softvfp
 253              	nrf_clock_hf_start_task_status_get:
 254              		@ args = 0, pretend = 0, frame = 0
 255              		@ frame_needed = 1, uses_anonymous_args = 0
 256 0000 80B5     		push	{r7, lr}
 257 0002 00AF     		add	r7, sp, #0
 258 0004 8023     		movs	r3, #128
 259 0006 DA05     		lsls	r2, r3, #23
 260 0008 8123     		movs	r3, #129
 261 000a DB00     		lsls	r3, r3, #3
 262 000c D358     		ldr	r3, [r2, r3]
 263 000e DBB2     		uxtb	r3, r3
 264 0010 0122     		movs	r2, #1
 265 0012 1340     		ands	r3, r2
 266 0014 DBB2     		uxtb	r3, r3
 267 0016 1800     		movs	r0, r3
 268 0018 BD46     		mov	sp, r7
 269              		@ sp needed
 270 001a 80BD     		pop	{r7, pc}
 272              		.section	.text.nrf_clock_xtalfreq_set,"ax",%progbits
 273              		.align	1
 274              		.syntax unified
 275              		.code	16
 276              		.thumb_func
 277              		.fpu softvfp
 279              	nrf_clock_xtalfreq_set:
 280              		@ args = 0, pretend = 0, frame = 8
 281              		@ frame_needed = 1, uses_anonymous_args = 0
 282 0000 80B5     		push	{r7, lr}
 283 0002 82B0     		sub	sp, sp, #8
 284 0004 00AF     		add	r7, sp, #0
 285 0006 0200     		movs	r2, r0
 286 0008 FB1D     		adds	r3, r7, #7
 287 000a 1A70     		strb	r2, [r3]
 288 000c 8023     		movs	r3, #128
 289 000e DA05     		lsls	r2, r3, #23
 290 0010 FB1D     		adds	r3, r7, #7
 291 0012 1978     		ldrb	r1, [r3]
 292 0014 AA23     		movs	r3, #170
 293 0016 DB00     		lsls	r3, r3, #3
 294 0018 D150     		str	r1, [r2, r3]
 295 001a C046     		nop
 296 001c BD46     		mov	sp, r7
 297 001e 02B0     		add	sp, sp, #8
 298              		@ sp needed
 299 0020 80BD     		pop	{r7, pc}
 301              		.section	.bss.m_clock_cb,"aw",%nobits
 302              		.align	2
 305              	m_clock_cb:
 306 0000 00000000 		.space	12
 306      00000000 
ARM GAS  C:\Users\SONG_J~1\AppData\Local\Temp\ccLqJOCQ.s 			page 6


 306      00000000 
 307              		.section	.text.hfclk_start,"ax",%progbits
 308              		.align	1
 309              		.syntax unified
 310              		.code	16
 311              		.thumb_func
 312              		.fpu softvfp
 314              	hfclk_start:
 315              		@ args = 0, pretend = 0, frame = 0
 316              		@ frame_needed = 1, uses_anonymous_args = 0
 317 0000 80B5     		push	{r7, lr}
 318 0002 00AF     		add	r7, sp, #0
 319 0004 8023     		movs	r3, #128
 320 0006 5B00     		lsls	r3, r3, #1
 321 0008 1800     		movs	r0, r3
 322 000a FFF7FEFF 		bl	nrf_clock_event_clear
 323 000e 0020     		movs	r0, #0
 324 0010 FFF7FEFF 		bl	nrf_clock_task_trigger
 325 0014 C046     		nop
 326 0016 BD46     		mov	sp, r7
 327              		@ sp needed
 328 0018 80BD     		pop	{r7, pc}
 330              		.section	.text.hfclk_stop,"ax",%progbits
 331              		.align	1
 332              		.syntax unified
 333              		.code	16
 334              		.thumb_func
 335              		.fpu softvfp
 337              	hfclk_stop:
 338              		@ args = 0, pretend = 0, frame = 0
 339              		@ frame_needed = 1, uses_anonymous_args = 0
 340 0000 80B5     		push	{r7, lr}
 341 0002 00AF     		add	r7, sp, #0
 342 0004 0420     		movs	r0, #4
 343 0006 FFF7FEFF 		bl	nrf_clock_task_trigger
 344 000a C046     		nop
 345              	.L24:
 346 000c FFF7FEFF 		bl	nrf_clock_hf_src_get
 347 0010 0300     		movs	r3, r0
 348 0012 012B     		cmp	r3, #1
 349 0014 FAD0     		beq	.L24
 350 0016 C046     		nop
 351 0018 BD46     		mov	sp, r7
 352              		@ sp needed
 353 001a 80BD     		pop	{r7, pc}
 355              		.section	.text.lfclk_start,"ax",%progbits
 356              		.align	1
 357              		.syntax unified
 358              		.code	16
 359              		.thumb_func
 360              		.fpu softvfp
 362              	lfclk_start:
 363              		@ args = 0, pretend = 0, frame = 0
 364              		@ frame_needed = 1, uses_anonymous_args = 0
 365 0000 80B5     		push	{r7, lr}
 366 0002 00AF     		add	r7, sp, #0
 367 0004 8223     		movs	r3, #130
ARM GAS  C:\Users\SONG_J~1\AppData\Local\Temp\ccLqJOCQ.s 			page 7


 368 0006 5B00     		lsls	r3, r3, #1
 369 0008 1800     		movs	r0, r3
 370 000a FFF7FEFF 		bl	nrf_clock_event_clear
 371 000e 0820     		movs	r0, #8
 372 0010 FFF7FEFF 		bl	nrf_clock_task_trigger
 373 0014 C046     		nop
 374 0016 BD46     		mov	sp, r7
 375              		@ sp needed
 376 0018 80BD     		pop	{r7, pc}
 378              		.section	.text.lfclk_stop,"ax",%progbits
 379              		.align	1
 380              		.syntax unified
 381              		.code	16
 382              		.thumb_func
 383              		.fpu softvfp
 385              	lfclk_stop:
 386              		@ args = 0, pretend = 0, frame = 0
 387              		@ frame_needed = 1, uses_anonymous_args = 0
 388 0000 80B5     		push	{r7, lr}
 389 0002 00AF     		add	r7, sp, #0
 390 0004 0C20     		movs	r0, #12
 391 0006 FFF7FEFF 		bl	nrf_clock_task_trigger
 392 000a C046     		nop
 393              	.L27:
 394 000c FFF7FEFF 		bl	nrf_clock_lf_is_running
 395 0010 031E     		subs	r3, r0, #0
 396 0012 FBD1     		bne	.L27
 397 0014 C046     		nop
 398 0016 BD46     		mov	sp, r7
 399              		@ sp needed
 400 0018 80BD     		pop	{r7, pc}
 402              		.section	.text.lfclk_control,"ax",%progbits
 403              		.align	1
 404              		.syntax unified
 405              		.code	16
 406              		.thumb_func
 407              		.fpu softvfp
 409              	lfclk_control:
 410              		@ args = 0, pretend = 0, frame = 0
 411              		@ frame_needed = 1, uses_anonymous_args = 0
 412 0000 80B5     		push	{r7, lr}
 413 0002 00AF     		add	r7, sp, #0
 414 0004 104B     		ldr	r3, .L34
 415 0006 9B68     		ldr	r3, [r3, #8]
 416 0008 002B     		cmp	r3, #0
 417 000a 0FD0     		beq	.L29
 418 000c FFF7FEFF 		bl	nrf_clock_lf_is_running
 419 0010 0300     		movs	r3, r0
 420 0012 1A00     		movs	r2, r3
 421 0014 0123     		movs	r3, #1
 422 0016 5340     		eors	r3, r2
 423 0018 DBB2     		uxtb	r3, r3
 424 001a 002B     		cmp	r3, #0
 425 001c 11D0     		beq	.L33
 426 001e FFF7FEFF 		bl	nrf_clock_lf_start_task_status_get
 427 0022 031E     		subs	r3, r0, #0
 428 0024 0DD1     		bne	.L33
ARM GAS  C:\Users\SONG_J~1\AppData\Local\Temp\ccLqJOCQ.s 			page 8


 429 0026 FFF7FEFF 		bl	lfclk_start
 430 002a 0AE0     		b	.L33
 431              	.L29:
 432 002c FFF7FEFF 		bl	nrf_clock_lf_is_running
 433 0030 031E     		subs	r3, r0, #0
 434 0032 04D1     		bne	.L32
 435 0034 FFF7FEFF 		bl	nrf_clock_lf_start_task_status_get
 436 0038 0300     		movs	r3, r0
 437 003a 012B     		cmp	r3, #1
 438 003c 01D1     		bne	.L33
 439              	.L32:
 440 003e FFF7FEFF 		bl	lfclk_stop
 441              	.L33:
 442 0042 C046     		nop
 443 0044 BD46     		mov	sp, r7
 444              		@ sp needed
 445 0046 80BD     		pop	{r7, pc}
 446              	.L35:
 447              		.align	2
 448              	.L34:
 449 0048 00000000 		.word	m_clock_cb
 451              		.section	.text.hfclk_control,"ax",%progbits
 452              		.align	1
 453              		.syntax unified
 454              		.code	16
 455              		.thumb_func
 456              		.fpu softvfp
 458              	hfclk_control:
 459              		@ args = 0, pretend = 0, frame = 16
 460              		@ frame_needed = 1, uses_anonymous_args = 0
 461 0000 80B5     		push	{r7, lr}
 462 0002 84B0     		sub	sp, sp, #16
 463 0004 00AF     		add	r7, sp, #0
 464 0006 0200     		movs	r2, r0
 465 0008 FB1D     		adds	r3, r7, #7
 466 000a 1A70     		strb	r2, [r3]
 467 000c 0F23     		movs	r3, #15
 468 000e FB18     		adds	r3, r7, r3
 469 0010 0022     		movs	r2, #0
 470 0012 1A70     		strb	r2, [r3]
 471 0014 164B     		ldr	r3, .L43
 472 0016 5B68     		ldr	r3, [r3, #4]
 473 0018 002B     		cmp	r3, #0
 474 001a 16D0     		beq	.L37
 475 001c FFF7FEFF 		bl	nrf_clock_hf_src_get
 476 0020 0300     		movs	r3, r0
 477 0022 012B     		cmp	r3, #1
 478 0024 1DD0     		beq	.L40
 479 0026 FFF7FEFF 		bl	nrf_clock_hf_start_task_status_get
 480 002a 031E     		subs	r3, r0, #0
 481 002c 19D1     		bne	.L40
 482 002e 0F23     		movs	r3, #15
 483 0030 FB18     		adds	r3, r7, r3
 484 0032 0122     		movs	r2, #1
 485 0034 1A70     		strb	r2, [r3]
 486 0036 FB1D     		adds	r3, r7, #7
 487 0038 1B78     		ldrb	r3, [r3]
ARM GAS  C:\Users\SONG_J~1\AppData\Local\Temp\ccLqJOCQ.s 			page 9


 488 003a 002B     		cmp	r3, #0
 489 003c 02D0     		beq	.L39
 490 003e 0120     		movs	r0, #1
 491 0040 FFF7FEFF 		bl	nrf_clock_int_enable
 492              	.L39:
 493 0044 FFF7FEFF 		bl	hfclk_start
 494 0048 0BE0     		b	.L40
 495              	.L37:
 496 004a FFF7FEFF 		bl	nrf_clock_hf_src_get
 497 004e 0300     		movs	r3, r0
 498 0050 012B     		cmp	r3, #1
 499 0052 04D0     		beq	.L41
 500 0054 FFF7FEFF 		bl	nrf_clock_hf_start_task_status_get
 501 0058 0300     		movs	r3, r0
 502 005a 012B     		cmp	r3, #1
 503 005c 01D1     		bne	.L40
 504              	.L41:
 505 005e FFF7FEFF 		bl	hfclk_stop
 506              	.L40:
 507 0062 0F23     		movs	r3, #15
 508 0064 FB18     		adds	r3, r7, r3
 509 0066 1B78     		ldrb	r3, [r3]
 510 0068 1800     		movs	r0, r3
 511 006a BD46     		mov	sp, r7
 512 006c 04B0     		add	sp, sp, #16
 513              		@ sp needed
 514 006e 80BD     		pop	{r7, pc}
 515              	.L44:
 516              		.align	2
 517              	.L43:
 518 0070 00000000 		.word	m_clock_cb
 520              		.section	.text.nrf_drv_clock_init,"ax",%progbits
 521              		.align	1
 522              		.global	nrf_drv_clock_init
 523              		.syntax unified
 524              		.code	16
 525              		.thumb_func
 526              		.fpu softvfp
 528              	nrf_drv_clock_init:
 529              		@ args = 0, pretend = 0, frame = 16
 530              		@ frame_needed = 1, uses_anonymous_args = 0
 531 0000 80B5     		push	{r7, lr}
 532 0002 84B0     		sub	sp, sp, #16
 533 0004 00AF     		add	r7, sp, #0
 534 0006 7860     		str	r0, [r7, #4]
 535 0008 0023     		movs	r3, #0
 536 000a FB60     		str	r3, [r7, #12]
 537 000c 104B     		ldr	r3, .L50
 538 000e 1B78     		ldrb	r3, [r3]
 539 0010 0122     		movs	r2, #1
 540 0012 5340     		eors	r3, r2
 541 0014 DBB2     		uxtb	r3, r3
 542 0016 002B     		cmp	r3, #0
 543 0018 0CD0     		beq	.L46
 544 001a 0D4B     		ldr	r3, .L50
 545 001c 0022     		movs	r2, #0
 546 001e 5A60     		str	r2, [r3, #4]
ARM GAS  C:\Users\SONG_J~1\AppData\Local\Temp\ccLqJOCQ.s 			page 10


 547 0020 0B4B     		ldr	r3, .L50
 548 0022 0022     		movs	r2, #0
 549 0024 9A60     		str	r2, [r3, #8]
 550 0026 FF20     		movs	r0, #255
 551 0028 FFF7FEFF 		bl	nrf_clock_xtalfreq_set
 552 002c 0120     		movs	r0, #1
 553 002e FFF7FEFF 		bl	nrf_clock_lf_src_set
 554 0032 01E0     		b	.L47
 555              	.L46:
 556 0034 8523     		movs	r3, #133
 557 0036 FB60     		str	r3, [r7, #12]
 558              	.L47:
 559 0038 FB68     		ldr	r3, [r7, #12]
 560 003a 002B     		cmp	r3, #0
 561 003c 02D1     		bne	.L48
 562 003e 044B     		ldr	r3, .L50
 563 0040 0122     		movs	r2, #1
 564 0042 1A70     		strb	r2, [r3]
 565              	.L48:
 566 0044 FB68     		ldr	r3, [r7, #12]
 567 0046 1800     		movs	r0, r3
 568 0048 BD46     		mov	sp, r7
 569 004a 04B0     		add	sp, sp, #16
 570              		@ sp needed
 571 004c 80BD     		pop	{r7, pc}
 572              	.L51:
 573 004e C046     		.align	2
 574              	.L50:
 575 0050 00000000 		.word	m_clock_cb
 577              		.section	.text.nrf_drv_clock_uninit,"ax",%progbits
 578              		.align	1
 579              		.global	nrf_drv_clock_uninit
 580              		.syntax unified
 581              		.code	16
 582              		.thumb_func
 583              		.fpu softvfp
 585              	nrf_drv_clock_uninit:
 586              		@ args = 0, pretend = 0, frame = 0
 587              		@ frame_needed = 1, uses_anonymous_args = 0
 588 0000 80B5     		push	{r7, lr}
 589 0002 00AF     		add	r7, sp, #0
 590 0004 FFF7FEFF 		bl	lfclk_stop
 591 0008 FFF7FEFF 		bl	hfclk_stop
 592 000c 024B     		ldr	r3, .L53
 593 000e 0022     		movs	r2, #0
 594 0010 1A70     		strb	r2, [r3]
 595 0012 C046     		nop
 596 0014 BD46     		mov	sp, r7
 597              		@ sp needed
 598 0016 80BD     		pop	{r7, pc}
 599              	.L54:
 600              		.align	2
 601              	.L53:
 602 0018 00000000 		.word	m_clock_cb
 604              		.section	.text.nrf_drv_clock_lfclk_request,"ax",%progbits
 605              		.align	1
 606              		.global	nrf_drv_clock_lfclk_request
ARM GAS  C:\Users\SONG_J~1\AppData\Local\Temp\ccLqJOCQ.s 			page 11


 607              		.syntax unified
 608              		.code	16
 609              		.thumb_func
 610              		.fpu softvfp
 612              	nrf_drv_clock_lfclk_request:
 613              		@ args = 0, pretend = 0, frame = 0
 614              		@ frame_needed = 1, uses_anonymous_args = 0
 615 0000 80B5     		push	{r7, lr}
 616 0002 00AF     		add	r7, sp, #0
 617 0004 064B     		ldr	r3, .L56
 618 0006 9B68     		ldr	r3, [r3, #8]
 619 0008 5A1C     		adds	r2, r3, #1
 620 000a 054B     		ldr	r3, .L56
 621 000c 9A60     		str	r2, [r3, #8]
 622 000e 0020     		movs	r0, #0
 623 0010 FFF7FEFF 		bl	hfclk_control
 624 0014 FFF7FEFF 		bl	lfclk_control
 625 0018 C046     		nop
 626 001a BD46     		mov	sp, r7
 627              		@ sp needed
 628 001c 80BD     		pop	{r7, pc}
 629              	.L57:
 630 001e C046     		.align	2
 631              	.L56:
 632 0020 00000000 		.word	m_clock_cb
 634              		.section	.text.nrf_drv_clock_lfclk_release,"ax",%progbits
 635              		.align	1
 636              		.global	nrf_drv_clock_lfclk_release
 637              		.syntax unified
 638              		.code	16
 639              		.thumb_func
 640              		.fpu softvfp
 642              	nrf_drv_clock_lfclk_release:
 643              		@ args = 0, pretend = 0, frame = 0
 644              		@ frame_needed = 1, uses_anonymous_args = 0
 645 0000 80B5     		push	{r7, lr}
 646 0002 00AF     		add	r7, sp, #0
 647 0004 064B     		ldr	r3, .L59
 648 0006 9B68     		ldr	r3, [r3, #8]
 649 0008 5A1E     		subs	r2, r3, #1
 650 000a 054B     		ldr	r3, .L59
 651 000c 9A60     		str	r2, [r3, #8]
 652 000e 0020     		movs	r0, #0
 653 0010 FFF7FEFF 		bl	hfclk_control
 654 0014 FFF7FEFF 		bl	lfclk_control
 655 0018 C046     		nop
 656 001a BD46     		mov	sp, r7
 657              		@ sp needed
 658 001c 80BD     		pop	{r7, pc}
 659              	.L60:
 660 001e C046     		.align	2
 661              	.L59:
 662 0020 00000000 		.word	m_clock_cb
 664              		.section	.text.nrf_drv_clock_lfclk_is_running,"ax",%progbits
 665              		.align	1
 666              		.global	nrf_drv_clock_lfclk_is_running
 667              		.syntax unified
ARM GAS  C:\Users\SONG_J~1\AppData\Local\Temp\ccLqJOCQ.s 			page 12


 668              		.code	16
 669              		.thumb_func
 670              		.fpu softvfp
 672              	nrf_drv_clock_lfclk_is_running:
 673              		@ args = 0, pretend = 0, frame = 8
 674              		@ frame_needed = 1, uses_anonymous_args = 0
 675 0000 90B5     		push	{r4, r7, lr}
 676 0002 83B0     		sub	sp, sp, #12
 677 0004 00AF     		add	r7, sp, #0
 678 0006 FC1D     		adds	r4, r7, #7
 679 0008 FFF7FEFF 		bl	nrf_clock_lf_is_running
 680 000c 0300     		movs	r3, r0
 681 000e 2370     		strb	r3, [r4]
 682 0010 FB1D     		adds	r3, r7, #7
 683 0012 1B78     		ldrb	r3, [r3]
 684 0014 1800     		movs	r0, r3
 685 0016 BD46     		mov	sp, r7
 686 0018 03B0     		add	sp, sp, #12
 687              		@ sp needed
 688 001a 90BD     		pop	{r4, r7, pc}
 690              		.section	.text.nrf_drv_clock_hfclk_request,"ax",%progbits
 691              		.align	1
 692              		.global	nrf_drv_clock_hfclk_request
 693              		.syntax unified
 694              		.code	16
 695              		.thumb_func
 696              		.fpu softvfp
 698              	nrf_drv_clock_hfclk_request:
 699              		@ args = 0, pretend = 0, frame = 0
 700              		@ frame_needed = 1, uses_anonymous_args = 0
 701 0000 80B5     		push	{r7, lr}
 702 0002 00AF     		add	r7, sp, #0
 703 0004 054B     		ldr	r3, .L64
 704 0006 5B68     		ldr	r3, [r3, #4]
 705 0008 5A1C     		adds	r2, r3, #1
 706 000a 044B     		ldr	r3, .L64
 707 000c 5A60     		str	r2, [r3, #4]
 708 000e 0020     		movs	r0, #0
 709 0010 FFF7FEFF 		bl	hfclk_control
 710 0014 C046     		nop
 711 0016 BD46     		mov	sp, r7
 712              		@ sp needed
 713 0018 80BD     		pop	{r7, pc}
 714              	.L65:
 715 001a C046     		.align	2
 716              	.L64:
 717 001c 00000000 		.word	m_clock_cb
 719              		.section	.text.nrf_drv_clock_hfclk_release,"ax",%progbits
 720              		.align	1
 721              		.global	nrf_drv_clock_hfclk_release
 722              		.syntax unified
 723              		.code	16
 724              		.thumb_func
 725              		.fpu softvfp
 727              	nrf_drv_clock_hfclk_release:
 728              		@ args = 0, pretend = 0, frame = 0
 729              		@ frame_needed = 1, uses_anonymous_args = 0
ARM GAS  C:\Users\SONG_J~1\AppData\Local\Temp\ccLqJOCQ.s 			page 13


 730 0000 80B5     		push	{r7, lr}
 731 0002 00AF     		add	r7, sp, #0
 732 0004 054B     		ldr	r3, .L67
 733 0006 5B68     		ldr	r3, [r3, #4]
 734 0008 5A1E     		subs	r2, r3, #1
 735 000a 044B     		ldr	r3, .L67
 736 000c 5A60     		str	r2, [r3, #4]
 737 000e 0020     		movs	r0, #0
 738 0010 FFF7FEFF 		bl	hfclk_control
 739 0014 C046     		nop
 740 0016 BD46     		mov	sp, r7
 741              		@ sp needed
 742 0018 80BD     		pop	{r7, pc}
 743              	.L68:
 744 001a C046     		.align	2
 745              	.L67:
 746 001c 00000000 		.word	m_clock_cb
 748              		.section	.text.nrf_drv_clock_hfclk_is_running,"ax",%progbits
 749              		.align	1
 750              		.global	nrf_drv_clock_hfclk_is_running
 751              		.syntax unified
 752              		.code	16
 753              		.thumb_func
 754              		.fpu softvfp
 756              	nrf_drv_clock_hfclk_is_running:
 757              		@ args = 0, pretend = 0, frame = 8
 758              		@ frame_needed = 1, uses_anonymous_args = 0
 759 0000 90B5     		push	{r4, r7, lr}
 760 0002 83B0     		sub	sp, sp, #12
 761 0004 00AF     		add	r7, sp, #0
 762 0006 FC1D     		adds	r4, r7, #7
 763 0008 FFF7FEFF 		bl	nrf_clock_hf_is_running
 764 000c 0300     		movs	r3, r0
 765 000e 2370     		strb	r3, [r4]
 766 0010 FB1D     		adds	r3, r7, #7
 767 0012 1B78     		ldrb	r3, [r3]
 768 0014 1800     		movs	r0, r3
 769 0016 BD46     		mov	sp, r7
 770 0018 03B0     		add	sp, sp, #12
 771              		@ sp needed
 772 001a 90BD     		pop	{r4, r7, pc}
 774              		.section	.text.nrf_drv_clock_calibration_force,"ax",%progbits
 775              		.align	1
 776              		.global	nrf_drv_clock_calibration_force
 777              		.syntax unified
 778              		.code	16
 779              		.thumb_func
 780              		.fpu softvfp
 782              	nrf_drv_clock_calibration_force:
 783              		@ args = 0, pretend = 0, frame = 0
 784              		@ frame_needed = 1, uses_anonymous_args = 0
 785 0000 80B5     		push	{r7, lr}
 786 0002 00AF     		add	r7, sp, #0
 787 0004 0F23     		movs	r3, #15
 788 0006 1800     		movs	r0, r3
 789 0008 BD46     		mov	sp, r7
 790              		@ sp needed
ARM GAS  C:\Users\SONG_J~1\AppData\Local\Temp\ccLqJOCQ.s 			page 14


 791 000a 80BD     		pop	{r7, pc}
 793              		.section	.text.nrf_drv_clock_is_calibrating,"ax",%progbits
 794              		.align	1
 795              		.global	nrf_drv_clock_is_calibrating
 796              		.syntax unified
 797              		.code	16
 798              		.thumb_func
 799              		.fpu softvfp
 801              	nrf_drv_clock_is_calibrating:
 802              		@ args = 0, pretend = 0, frame = 8
 803              		@ frame_needed = 1, uses_anonymous_args = 0
 804 0000 80B5     		push	{r7, lr}
 805 0002 82B0     		sub	sp, sp, #8
 806 0004 00AF     		add	r7, sp, #0
 807 0006 7860     		str	r0, [r7, #4]
 808 0008 0F23     		movs	r3, #15
 809 000a 1800     		movs	r0, r3
 810 000c BD46     		mov	sp, r7
 811 000e 02B0     		add	sp, sp, #8
 812              		@ sp needed
 813 0010 80BD     		pop	{r7, pc}
 815              		.ident	"GCC: (GNU Tools for Arm Embedded Processors 7-2017-q4-major) 7.2.1 20170904 (release) [ARM
ARM GAS  C:\Users\SONG_J~1\AppData\Local\Temp\ccLqJOCQ.s 			page 15

