ARM GAS  C:\Users\SONG_J~1\AppData\Local\Temp\cciPqbql.s 			page 1


   1              		.cpu cortex-m0
   2              		.eabi_attribute 20, 1
   3              		.eabi_attribute 21, 1
   4              		.eabi_attribute 23, 3
   5              		.eabi_attribute 24, 1
   6              		.eabi_attribute 25, 1
   7              		.eabi_attribute 26, 1
   8              		.eabi_attribute 30, 6
   9              		.eabi_attribute 34, 0
  10              		.eabi_attribute 18, 4
  11              		.file	"object_access_control.c"
  12              		.section	.text.prv_set_tlv,"ax",%progbits
  13              		.align	1
  14              		.syntax unified
  15              		.code	16
  16              		.thumb_func
  17              		.fpu softvfp
  19              	prv_set_tlv:
  20              		@ args = 0, pretend = 0, frame = 48
  21              		@ frame_needed = 1, uses_anonymous_args = 0
  22 0000 B0B5     		push	{r4, r5, r7, lr}
  23 0002 8CB0     		sub	sp, sp, #48
  24 0004 00AF     		add	r7, sp, #0
  25 0006 F861     		str	r0, [r7, #28]
  26 0008 B961     		str	r1, [r7, #24]
  27 000a FB69     		ldr	r3, [r7, #28]
  28 000c 5B88     		ldrh	r3, [r3, #2]
  29 000e 012B     		cmp	r3, #1
  30 0010 15D0     		beq	.L3
  31 0012 02DC     		bgt	.L4
  32 0014 002B     		cmp	r3, #0
  33 0016 05D0     		beq	.L5
  34 0018 76E0     		b	.L2
  35              	.L4:
  36 001a 022B     		cmp	r3, #2
  37 001c 1CD0     		beq	.L6
  38 001e 032B     		cmp	r3, #3
  39 0020 65D0     		beq	.L7
  40 0022 71E0     		b	.L2
  41              	.L5:
  42 0024 BB69     		ldr	r3, [r7, #24]
  43 0026 DB88     		ldrh	r3, [r3, #6]
  44 0028 3B61     		str	r3, [r7, #16]
  45 002a 0023     		movs	r3, #0
  46 002c 7B61     		str	r3, [r7, #20]
  47 002e FB69     		ldr	r3, [r7, #28]
  48 0030 1A00     		movs	r2, r3
  49 0032 3869     		ldr	r0, [r7, #16]
  50 0034 7969     		ldr	r1, [r7, #20]
  51 0036 FFF7FEFF 		bl	lwm2m_data_encode_int
  52 003a 4523     		movs	r3, #69
  53 003c 65E0     		b	.L8
  54              	.L3:
  55 003e BB69     		ldr	r3, [r7, #24]
  56 0040 1B89     		ldrh	r3, [r3, #8]
  57 0042 BB60     		str	r3, [r7, #8]
  58 0044 0023     		movs	r3, #0
ARM GAS  C:\Users\SONG_J~1\AppData\Local\Temp\cciPqbql.s 			page 2


  59 0046 FB60     		str	r3, [r7, #12]
  60 0048 FB69     		ldr	r3, [r7, #28]
  61 004a 1A00     		movs	r2, r3
  62 004c B868     		ldr	r0, [r7, #8]
  63 004e F968     		ldr	r1, [r7, #12]
  64 0050 FFF7FEFF 		bl	lwm2m_data_encode_int
  65 0054 4523     		movs	r3, #69
  66 0056 58E0     		b	.L8
  67              	.L6:
  68 0058 BB69     		ldr	r3, [r7, #24]
  69 005a DB68     		ldr	r3, [r3, #12]
  70 005c BB62     		str	r3, [r7, #40]
  71 005e 0023     		movs	r3, #0
  72 0060 FB62     		str	r3, [r7, #44]
  73 0062 05E0     		b	.L9
  74              	.L10:
  75 0064 BB6A     		ldr	r3, [r7, #40]
  76 0066 1B68     		ldr	r3, [r3]
  77 0068 BB62     		str	r3, [r7, #40]
  78 006a FB6A     		ldr	r3, [r7, #44]
  79 006c 0133     		adds	r3, r3, #1
  80 006e FB62     		str	r3, [r7, #44]
  81              	.L9:
  82 0070 BB6A     		ldr	r3, [r7, #40]
  83 0072 002B     		cmp	r3, #0
  84 0074 F6D1     		bne	.L10
  85 0076 FB6A     		ldr	r3, [r7, #44]
  86 0078 002B     		cmp	r3, #0
  87 007a 01D1     		bne	.L11
  88 007c 8423     		movs	r3, #132
  89 007e 44E0     		b	.L8
  90              	.L11:
  91 0080 FB6A     		ldr	r3, [r7, #44]
  92 0082 1800     		movs	r0, r3
  93 0084 FFF7FEFF 		bl	lwm2m_data_new
  94 0088 0300     		movs	r3, r0
  95 008a 7B62     		str	r3, [r7, #36]
  96 008c 7B6A     		ldr	r3, [r7, #36]
  97 008e 002B     		cmp	r3, #0
  98 0090 01D1     		bne	.L12
  99 0092 A023     		movs	r3, #160
 100 0094 39E0     		b	.L8
 101              	.L12:
 102 0096 BB69     		ldr	r3, [r7, #24]
 103 0098 DB68     		ldr	r3, [r3, #12]
 104 009a BB62     		str	r3, [r7, #40]
 105 009c 0023     		movs	r3, #0
 106 009e FB62     		str	r3, [r7, #44]
 107 00a0 1AE0     		b	.L13
 108              	.L14:
 109 00a2 FB6A     		ldr	r3, [r7, #44]
 110 00a4 1B01     		lsls	r3, r3, #4
 111 00a6 7A6A     		ldr	r2, [r7, #36]
 112 00a8 D318     		adds	r3, r2, r3
 113 00aa BA6A     		ldr	r2, [r7, #40]
 114 00ac 9288     		ldrh	r2, [r2, #4]
 115 00ae 5A80     		strh	r2, [r3, #2]
ARM GAS  C:\Users\SONG_J~1\AppData\Local\Temp\cciPqbql.s 			page 3


 116 00b0 BB6A     		ldr	r3, [r7, #40]
 117 00b2 DB88     		ldrh	r3, [r3, #6]
 118 00b4 3B60     		str	r3, [r7]
 119 00b6 0023     		movs	r3, #0
 120 00b8 7B60     		str	r3, [r7, #4]
 121 00ba FB6A     		ldr	r3, [r7, #44]
 122 00bc 1B01     		lsls	r3, r3, #4
 123 00be 7A6A     		ldr	r2, [r7, #36]
 124 00c0 D318     		adds	r3, r2, r3
 125 00c2 1A00     		movs	r2, r3
 126 00c4 3868     		ldr	r0, [r7]
 127 00c6 7968     		ldr	r1, [r7, #4]
 128 00c8 FFF7FEFF 		bl	lwm2m_data_encode_int
 129 00cc BB6A     		ldr	r3, [r7, #40]
 130 00ce 1B68     		ldr	r3, [r3]
 131 00d0 BB62     		str	r3, [r7, #40]
 132 00d2 FB6A     		ldr	r3, [r7, #44]
 133 00d4 0133     		adds	r3, r3, #1
 134 00d6 FB62     		str	r3, [r7, #44]
 135              	.L13:
 136 00d8 BB6A     		ldr	r3, [r7, #40]
 137 00da 002B     		cmp	r3, #0
 138 00dc E1D1     		bne	.L14
 139 00de F96A     		ldr	r1, [r7, #44]
 140 00e0 FA69     		ldr	r2, [r7, #28]
 141 00e2 7B6A     		ldr	r3, [r7, #36]
 142 00e4 1800     		movs	r0, r3
 143 00e6 FFF7FEFF 		bl	lwm2m_data_encode_instances
 144 00ea 4523     		movs	r3, #69
 145 00ec 0DE0     		b	.L8
 146              	.L7:
 147 00ee BB69     		ldr	r3, [r7, #24]
 148 00f0 5B89     		ldrh	r3, [r3, #10]
 149 00f2 1C00     		movs	r4, r3
 150 00f4 0023     		movs	r3, #0
 151 00f6 1D00     		movs	r5, r3
 152 00f8 FB69     		ldr	r3, [r7, #28]
 153 00fa 1A00     		movs	r2, r3
 154 00fc 2000     		movs	r0, r4
 155 00fe 2900     		movs	r1, r5
 156 0100 FFF7FEFF 		bl	lwm2m_data_encode_int
 157 0104 4523     		movs	r3, #69
 158 0106 00E0     		b	.L8
 159              	.L2:
 160 0108 8423     		movs	r3, #132
 161              	.L8:
 162 010a 1800     		movs	r0, r3
 163 010c BD46     		mov	sp, r7
 164 010e 0CB0     		add	sp, sp, #48
 165              		@ sp needed
 166 0110 B0BD     		pop	{r4, r5, r7, pc}
 168              		.section	.rodata
 169              		.align	2
 170              	.LC0:
 171 0000 0000     		.short	0
 172 0002 0100     		.short	1
 173 0004 0200     		.short	2
ARM GAS  C:\Users\SONG_J~1\AppData\Local\Temp\cciPqbql.s 			page 4


 174 0006 0300     		.short	3
 175              		.section	.text.prv_read,"ax",%progbits
 176              		.align	1
 177              		.syntax unified
 178              		.code	16
 179              		.thumb_func
 180              		.fpu softvfp
 182              	prv_read:
 183              		@ args = 4, pretend = 0, frame = 48
 184              		@ frame_needed = 1, uses_anonymous_args = 0
 185 0000 B0B5     		push	{r4, r5, r7, lr}
 186 0002 8CB0     		sub	sp, sp, #48
 187 0004 00AF     		add	r7, sp, #0
 188 0006 B960     		str	r1, [r7, #8]
 189 0008 7A60     		str	r2, [r7, #4]
 190 000a 3B60     		str	r3, [r7]
 191 000c 0E21     		movs	r1, #14
 192 000e 7B18     		adds	r3, r7, r1
 193 0010 021C     		adds	r2, r0, #0
 194 0012 1A80     		strh	r2, [r3]
 195 0014 3B6C     		ldr	r3, [r7, #64]
 196 0016 9A68     		ldr	r2, [r3, #8]
 197 0018 7B18     		adds	r3, r7, r1
 198 001a 1B88     		ldrh	r3, [r3]
 199 001c 1900     		movs	r1, r3
 200 001e 1000     		movs	r0, r2
 201 0020 FFF7FEFF 		bl	lwm2m_list_find
 202 0024 0300     		movs	r3, r0
 203 0026 3B62     		str	r3, [r7, #32]
 204 0028 3B6A     		ldr	r3, [r7, #32]
 205 002a 002B     		cmp	r3, #0
 206 002c 01D1     		bne	.L16
 207 002e 8423     		movs	r3, #132
 208 0030 7CE0     		b	.L17
 209              	.L16:
 210 0032 BB68     		ldr	r3, [r7, #8]
 211 0034 1B68     		ldr	r3, [r3]
 212 0036 002B     		cmp	r3, #0
 213 0038 2BD1     		bne	.L18
 214 003a 1423     		movs	r3, #20
 215 003c FB18     		adds	r3, r7, r3
 216 003e 3D4A     		ldr	r2, .L27
 217 0040 03CA     		ldmia	r2!, {r0, r1}
 218 0042 03C3     		stmia	r3!, {r0, r1}
 219 0044 0423     		movs	r3, #4
 220 0046 FB61     		str	r3, [r7, #28]
 221 0048 FB69     		ldr	r3, [r7, #28]
 222 004a 1800     		movs	r0, r3
 223 004c FFF7FEFF 		bl	lwm2m_data_new
 224 0050 0200     		movs	r2, r0
 225 0052 7B68     		ldr	r3, [r7, #4]
 226 0054 1A60     		str	r2, [r3]
 227 0056 7B68     		ldr	r3, [r7, #4]
 228 0058 1B68     		ldr	r3, [r3]
 229 005a 002B     		cmp	r3, #0
 230 005c 01D1     		bne	.L19
 231 005e A023     		movs	r3, #160
ARM GAS  C:\Users\SONG_J~1\AppData\Local\Temp\cciPqbql.s 			page 5


 232 0060 64E0     		b	.L17
 233              	.L19:
 234 0062 BB68     		ldr	r3, [r7, #8]
 235 0064 FA69     		ldr	r2, [r7, #28]
 236 0066 1A60     		str	r2, [r3]
 237 0068 0023     		movs	r3, #0
 238 006a BB62     		str	r3, [r7, #40]
 239 006c 0DE0     		b	.L20
 240              	.L21:
 241 006e 7B68     		ldr	r3, [r7, #4]
 242 0070 1A68     		ldr	r2, [r3]
 243 0072 BB6A     		ldr	r3, [r7, #40]
 244 0074 1B01     		lsls	r3, r3, #4
 245 0076 D318     		adds	r3, r2, r3
 246 0078 1422     		movs	r2, #20
 247 007a BA18     		adds	r2, r7, r2
 248 007c B96A     		ldr	r1, [r7, #40]
 249 007e 4900     		lsls	r1, r1, #1
 250 0080 8A5A     		ldrh	r2, [r1, r2]
 251 0082 5A80     		strh	r2, [r3, #2]
 252 0084 BB6A     		ldr	r3, [r7, #40]
 253 0086 0133     		adds	r3, r3, #1
 254 0088 BB62     		str	r3, [r7, #40]
 255              	.L20:
 256 008a BA6A     		ldr	r2, [r7, #40]
 257 008c FB69     		ldr	r3, [r7, #28]
 258 008e 9A42     		cmp	r2, r3
 259 0090 EDDB     		blt	.L21
 260              	.L18:
 261 0092 0023     		movs	r3, #0
 262 0094 BB62     		str	r3, [r7, #40]
 263 0096 BB6A     		ldr	r3, [r7, #40]
 264 0098 7B62     		str	r3, [r7, #36]
 265              	.L26:
 266 009a 7B68     		ldr	r3, [r7, #4]
 267 009c 1A68     		ldr	r2, [r3]
 268 009e 7B6A     		ldr	r3, [r7, #36]
 269 00a0 1B01     		lsls	r3, r3, #4
 270 00a2 D318     		adds	r3, r2, r3
 271 00a4 2F25     		movs	r5, #47
 272 00a6 7C19     		adds	r4, r7, r5
 273 00a8 3A6A     		ldr	r2, [r7, #32]
 274 00aa 1100     		movs	r1, r2
 275 00ac 1800     		movs	r0, r3
 276 00ae FFF7FEFF 		bl	prv_set_tlv
 277 00b2 0300     		movs	r3, r0
 278 00b4 2370     		strb	r3, [r4]
 279 00b6 7B19     		adds	r3, r7, r5
 280 00b8 1B78     		ldrb	r3, [r3]
 281 00ba 842B     		cmp	r3, #132
 282 00bc 0BD1     		bne	.L22
 283 00be BB6A     		ldr	r3, [r7, #40]
 284 00c0 0133     		adds	r3, r3, #1
 285 00c2 BB62     		str	r3, [r7, #40]
 286 00c4 BB68     		ldr	r3, [r7, #8]
 287 00c6 1B68     		ldr	r3, [r3]
 288 00c8 012B     		cmp	r3, #1
ARM GAS  C:\Users\SONG_J~1\AppData\Local\Temp\cciPqbql.s 			page 6


 289 00ca 1ADD     		ble	.L24
 290 00cc 2F23     		movs	r3, #47
 291 00ce FB18     		adds	r3, r7, r3
 292 00d0 4522     		movs	r2, #69
 293 00d2 1A70     		strb	r2, [r3]
 294 00d4 15E0     		b	.L24
 295              	.L22:
 296 00d6 BB6A     		ldr	r3, [r7, #40]
 297 00d8 002B     		cmp	r3, #0
 298 00da 12DD     		ble	.L24
 299 00dc 7B68     		ldr	r3, [r7, #4]
 300 00de 1A68     		ldr	r2, [r3]
 301 00e0 7B6A     		ldr	r3, [r7, #36]
 302 00e2 1B01     		lsls	r3, r3, #4
 303 00e4 D018     		adds	r0, r2, r3
 304 00e6 7B68     		ldr	r3, [r7, #4]
 305 00e8 1A68     		ldr	r2, [r3]
 306 00ea 796A     		ldr	r1, [r7, #36]
 307 00ec BB6A     		ldr	r3, [r7, #40]
 308 00ee CB1A     		subs	r3, r1, r3
 309 00f0 1B01     		lsls	r3, r3, #4
 310 00f2 D318     		adds	r3, r2, r3
 311 00f4 1C00     		movs	r4, r3
 312 00f6 0100     		movs	r1, r0
 313 00f8 1023     		movs	r3, #16
 314 00fa 1A00     		movs	r2, r3
 315 00fc 2000     		movs	r0, r4
 316 00fe FFF7FEFF 		bl	memcpy
 317              	.L24:
 318 0102 7B6A     		ldr	r3, [r7, #36]
 319 0104 0133     		adds	r3, r3, #1
 320 0106 7B62     		str	r3, [r7, #36]
 321 0108 BB68     		ldr	r3, [r7, #8]
 322 010a 1B68     		ldr	r3, [r3]
 323 010c 7A6A     		ldr	r2, [r7, #36]
 324 010e 9A42     		cmp	r2, r3
 325 0110 04DA     		bge	.L25
 326 0112 2F23     		movs	r3, #47
 327 0114 FB18     		adds	r3, r7, r3
 328 0116 1B78     		ldrb	r3, [r3]
 329 0118 452B     		cmp	r3, #69
 330 011a BED0     		beq	.L26
 331              	.L25:
 332 011c 7A6A     		ldr	r2, [r7, #36]
 333 011e BB6A     		ldr	r3, [r7, #40]
 334 0120 D21A     		subs	r2, r2, r3
 335 0122 BB68     		ldr	r3, [r7, #8]
 336 0124 1A60     		str	r2, [r3]
 337 0126 2F23     		movs	r3, #47
 338 0128 FB18     		adds	r3, r7, r3
 339 012a 1B78     		ldrb	r3, [r3]
 340              	.L17:
 341 012c 1800     		movs	r0, r3
 342 012e BD46     		mov	sp, r7
 343 0130 0CB0     		add	sp, sp, #48
 344              		@ sp needed
 345 0132 B0BD     		pop	{r4, r5, r7, pc}
ARM GAS  C:\Users\SONG_J~1\AppData\Local\Temp\cciPqbql.s 			page 7


 346              	.L28:
 347              		.align	2
 348              	.L27:
 349 0134 00000000 		.word	.LC0
 351              		.section	.text.prv_add_ac_val,"ax",%progbits
 352              		.align	1
 353              		.syntax unified
 354              		.code	16
 355              		.thumb_func
 356              		.fpu softvfp
 358              	prv_add_ac_val:
 359              		@ args = 0, pretend = 0, frame = 16
 360              		@ frame_needed = 1, uses_anonymous_args = 0
 361 0000 80B5     		push	{r7, lr}
 362 0002 84B0     		sub	sp, sp, #16
 363 0004 00AF     		add	r7, sp, #0
 364 0006 7860     		str	r0, [r7, #4]
 365 0008 0800     		movs	r0, r1
 366 000a 1100     		movs	r1, r2
 367 000c BB1C     		adds	r3, r7, #2
 368 000e 021C     		adds	r2, r0, #0
 369 0010 1A80     		strh	r2, [r3]
 370 0012 3B00     		movs	r3, r7
 371 0014 0A1C     		adds	r2, r1, #0
 372 0016 1A80     		strh	r2, [r3]
 373 0018 0F23     		movs	r3, #15
 374 001a FB18     		adds	r3, r7, r3
 375 001c 0022     		movs	r2, #0
 376 001e 1A70     		strb	r2, [r3]
 377 0020 0820     		movs	r0, #8
 378 0022 FFF7FEFF 		bl	lwm2m_malloc
 379 0026 0300     		movs	r3, r0
 380 0028 BB60     		str	r3, [r7, #8]
 381 002a BB68     		ldr	r3, [r7, #8]
 382 002c 002B     		cmp	r3, #0
 383 002e 03D1     		bne	.L30
 384 0030 0F23     		movs	r3, #15
 385 0032 FB18     		adds	r3, r7, r3
 386 0034 1B78     		ldrb	r3, [r3]
 387 0036 1DE0     		b	.L31
 388              	.L30:
 389 0038 BB68     		ldr	r3, [r7, #8]
 390 003a 0822     		movs	r2, #8
 391 003c 0021     		movs	r1, #0
 392 003e 1800     		movs	r0, r3
 393 0040 FFF7FEFF 		bl	memset
 394 0044 BB68     		ldr	r3, [r7, #8]
 395 0046 BA1C     		adds	r2, r7, #2
 396 0048 1288     		ldrh	r2, [r2]
 397 004a 9A80     		strh	r2, [r3, #4]
 398 004c BB68     		ldr	r3, [r7, #8]
 399 004e 3A00     		movs	r2, r7
 400 0050 1288     		ldrh	r2, [r2]
 401 0052 DA80     		strh	r2, [r3, #6]
 402 0054 7B68     		ldr	r3, [r7, #4]
 403 0056 DB68     		ldr	r3, [r3, #12]
 404 0058 BA68     		ldr	r2, [r7, #8]
ARM GAS  C:\Users\SONG_J~1\AppData\Local\Temp\cciPqbql.s 			page 8


 405 005a 1100     		movs	r1, r2
 406 005c 1800     		movs	r0, r3
 407 005e FFF7FEFF 		bl	lwm2m_list_add
 408 0062 0200     		movs	r2, r0
 409 0064 7B68     		ldr	r3, [r7, #4]
 410 0066 DA60     		str	r2, [r3, #12]
 411 0068 0F21     		movs	r1, #15
 412 006a 7B18     		adds	r3, r7, r1
 413 006c 0122     		movs	r2, #1
 414 006e 1A70     		strb	r2, [r3]
 415 0070 7B18     		adds	r3, r7, r1
 416 0072 1B78     		ldrb	r3, [r3]
 417              	.L31:
 418 0074 1800     		movs	r0, r3
 419 0076 BD46     		mov	sp, r7
 420 0078 04B0     		add	sp, sp, #16
 421              		@ sp needed
 422 007a 80BD     		pop	{r7, pc}
 424              		.section	.text.prv_write_resources,"ax",%progbits
 425              		.align	1
 426              		.syntax unified
 427              		.code	16
 428              		.thumb_func
 429              		.fpu softvfp
 431              	prv_write_resources:
 432              		@ args = 4, pretend = 0, frame = 48
 433              		@ frame_needed = 1, uses_anonymous_args = 0
 434 0000 90B5     		push	{r4, r7, lr}
 435 0002 8DB0     		sub	sp, sp, #52
 436 0004 00AF     		add	r7, sp, #0
 437 0006 B960     		str	r1, [r7, #8]
 438 0008 7A60     		str	r2, [r7, #4]
 439 000a 3B60     		str	r3, [r7]
 440 000c 0E21     		movs	r1, #14
 441 000e 7B18     		adds	r3, r7, r1
 442 0010 021C     		adds	r2, r0, #0
 443 0012 1A80     		strh	r2, [r3]
 444 0014 2B23     		movs	r3, #43
 445 0016 FB18     		adds	r3, r7, r3
 446 0018 0022     		movs	r2, #0
 447 001a 1A70     		strb	r2, [r3]
 448 001c 3B68     		ldr	r3, [r7]
 449 001e 9A68     		ldr	r2, [r3, #8]
 450 0020 7B18     		adds	r3, r7, r1
 451 0022 1B88     		ldrh	r3, [r3]
 452 0024 1900     		movs	r1, r3
 453 0026 1000     		movs	r0, r2
 454 0028 FFF7FEFF 		bl	lwm2m_list_find
 455 002c 0300     		movs	r3, r0
 456 002e 3B62     		str	r3, [r7, #32]
 457 0030 3B6A     		ldr	r3, [r7, #32]
 458 0032 002B     		cmp	r3, #0
 459 0034 01D1     		bne	.L33
 460 0036 8423     		movs	r3, #132
 461 0038 55E1     		b	.L78
 462              	.L33:
 463 003a 0023     		movs	r3, #0
ARM GAS  C:\Users\SONG_J~1\AppData\Local\Temp\cciPqbql.s 			page 9


 464 003c FB62     		str	r3, [r7, #44]
 465              	.L77:
 466 003e FB6A     		ldr	r3, [r7, #44]
 467 0040 1B01     		lsls	r3, r3, #4
 468 0042 7A68     		ldr	r2, [r7, #4]
 469 0044 D318     		adds	r3, r2, r3
 470 0046 5B88     		ldrh	r3, [r3, #2]
 471 0048 012B     		cmp	r3, #1
 472 004a 47D0     		beq	.L36
 473 004c 02DC     		bgt	.L37
 474 004e 002B     		cmp	r3, #0
 475 0050 07D0     		beq	.L38
 476 0052 36E1     		b	.L35
 477              	.L37:
 478 0054 022B     		cmp	r3, #2
 479 0056 00D1     		bne	.LCB502
 480 0058 7AE0     		b	.L39	@long jump
 481              	.LCB502:
 482 005a 032B     		cmp	r3, #3
 483 005c 00D1     		bne	.LCB504
 484 005e 03E1     		b	.L40	@long jump
 485              	.LCB504:
 486 0060 2FE1     		b	.L35
 487              	.L38:
 488 0062 4023     		movs	r3, #64
 489 0064 FB18     		adds	r3, r7, r3
 490 0066 1B78     		ldrb	r3, [r3]
 491 0068 0122     		movs	r2, #1
 492 006a 5340     		eors	r3, r2
 493 006c DBB2     		uxtb	r3, r3
 494 006e 002B     		cmp	r3, #0
 495 0070 04D0     		beq	.L41
 496 0072 2B23     		movs	r3, #43
 497 0074 FB18     		adds	r3, r7, r3
 498 0076 8522     		movs	r2, #133
 499 0078 1A70     		strb	r2, [r3]
 500 007a 24E1     		b	.L48
 501              	.L41:
 502 007c FB6A     		ldr	r3, [r7, #44]
 503 007e 1B01     		lsls	r3, r3, #4
 504 0080 7A68     		ldr	r2, [r7, #4]
 505 0082 D318     		adds	r3, r2, r3
 506 0084 1022     		movs	r2, #16
 507 0086 BA18     		adds	r2, r7, r2
 508 0088 1100     		movs	r1, r2
 509 008a 1800     		movs	r0, r3
 510 008c FFF7FEFF 		bl	lwm2m_data_decode_int
 511 0090 0300     		movs	r3, r0
 512 0092 012B     		cmp	r3, #1
 513 0094 04D0     		beq	.L43
 514 0096 2B23     		movs	r3, #43
 515 0098 FB18     		adds	r3, r7, r3
 516 009a 8022     		movs	r2, #128
 517 009c 1A70     		strb	r2, [r3]
 518 009e 12E1     		b	.L48
 519              	.L43:
 520 00a0 3B69     		ldr	r3, [r7, #16]
ARM GAS  C:\Users\SONG_J~1\AppData\Local\Temp\cciPqbql.s 			page 10


 521 00a2 7C69     		ldr	r4, [r7, #20]
 522 00a4 002C     		cmp	r4, #0
 523 00a6 02DC     		bgt	.L79
 524 00a8 09D1     		bne	.L44
 525 00aa 002B     		cmp	r3, #0
 526 00ac 07D0     		beq	.L44
 527              	.L79:
 528 00ae 3B69     		ldr	r3, [r7, #16]
 529 00b0 7C69     		ldr	r4, [r7, #20]
 530 00b2 002C     		cmp	r4, #0
 531 00b4 03DC     		bgt	.L44
 532 00b6 07D1     		bne	.L46
 533 00b8 8D4A     		ldr	r2, .L81
 534 00ba 9342     		cmp	r3, r2
 535 00bc 04D9     		bls	.L46
 536              	.L44:
 537 00be 2B23     		movs	r3, #43
 538 00c0 FB18     		adds	r3, r7, r3
 539 00c2 8622     		movs	r2, #134
 540 00c4 1A70     		strb	r2, [r3]
 541 00c6 FEE0     		b	.L48
 542              	.L46:
 543 00c8 3B69     		ldr	r3, [r7, #16]
 544 00ca 7C69     		ldr	r4, [r7, #20]
 545 00cc 9AB2     		uxth	r2, r3
 546 00ce 3B6A     		ldr	r3, [r7, #32]
 547 00d0 DA80     		strh	r2, [r3, #6]
 548 00d2 2B23     		movs	r3, #43
 549 00d4 FB18     		adds	r3, r7, r3
 550 00d6 4422     		movs	r2, #68
 551 00d8 1A70     		strb	r2, [r3]
 552 00da F4E0     		b	.L48
 553              	.L36:
 554 00dc 4023     		movs	r3, #64
 555 00de FB18     		adds	r3, r7, r3
 556 00e0 1B78     		ldrb	r3, [r3]
 557 00e2 0122     		movs	r2, #1
 558 00e4 5340     		eors	r3, r2
 559 00e6 DBB2     		uxtb	r3, r3
 560 00e8 002B     		cmp	r3, #0
 561 00ea 04D0     		beq	.L49
 562 00ec 2B23     		movs	r3, #43
 563 00ee FB18     		adds	r3, r7, r3
 564 00f0 8522     		movs	r2, #133
 565 00f2 1A70     		strb	r2, [r3]
 566 00f4 E7E0     		b	.L48
 567              	.L49:
 568 00f6 FB6A     		ldr	r3, [r7, #44]
 569 00f8 1B01     		lsls	r3, r3, #4
 570 00fa 7A68     		ldr	r2, [r7, #4]
 571 00fc D318     		adds	r3, r2, r3
 572 00fe 1022     		movs	r2, #16
 573 0100 BA18     		adds	r2, r7, r2
 574 0102 1100     		movs	r1, r2
 575 0104 1800     		movs	r0, r3
 576 0106 FFF7FEFF 		bl	lwm2m_data_decode_int
 577 010a 0300     		movs	r3, r0
ARM GAS  C:\Users\SONG_J~1\AppData\Local\Temp\cciPqbql.s 			page 11


 578 010c 012B     		cmp	r3, #1
 579 010e 04D0     		beq	.L51
 580 0110 2B23     		movs	r3, #43
 581 0112 FB18     		adds	r3, r7, r3
 582 0114 8022     		movs	r2, #128
 583 0116 1A70     		strb	r2, [r3]
 584 0118 D5E0     		b	.L48
 585              	.L51:
 586 011a 3B69     		ldr	r3, [r7, #16]
 587 011c 7C69     		ldr	r4, [r7, #20]
 588 011e 002C     		cmp	r4, #0
 589 0120 07DB     		blt	.L52
 590 0122 3B69     		ldr	r3, [r7, #16]
 591 0124 7C69     		ldr	r4, [r7, #20]
 592 0126 002C     		cmp	r4, #0
 593 0128 03DC     		bgt	.L52
 594 012a 07D1     		bne	.L54
 595 012c 714A     		ldr	r2, .L81+4
 596 012e 9342     		cmp	r3, r2
 597 0130 04D9     		bls	.L54
 598              	.L52:
 599 0132 2B23     		movs	r3, #43
 600 0134 FB18     		adds	r3, r7, r3
 601 0136 8622     		movs	r2, #134
 602 0138 1A70     		strb	r2, [r3]
 603 013a C4E0     		b	.L48
 604              	.L54:
 605 013c 3B69     		ldr	r3, [r7, #16]
 606 013e 7C69     		ldr	r4, [r7, #20]
 607 0140 9AB2     		uxth	r2, r3
 608 0142 3B6A     		ldr	r3, [r7, #32]
 609 0144 1A81     		strh	r2, [r3, #8]
 610 0146 2B23     		movs	r3, #43
 611 0148 FB18     		adds	r3, r7, r3
 612 014a 4422     		movs	r2, #68
 613 014c 1A70     		strb	r2, [r3]
 614 014e BAE0     		b	.L48
 615              	.L39:
 616 0150 FB6A     		ldr	r3, [r7, #44]
 617 0152 1B01     		lsls	r3, r3, #4
 618 0154 7A68     		ldr	r2, [r7, #4]
 619 0156 D318     		adds	r3, r2, r3
 620 0158 1B78     		ldrb	r3, [r3]
 621 015a 032B     		cmp	r3, #3
 622 015c 04D0     		beq	.L56
 623 015e 2B23     		movs	r3, #43
 624 0160 FB18     		adds	r3, r7, r3
 625 0162 8022     		movs	r2, #128
 626 0164 1A70     		strb	r2, [r3]
 627 0166 AEE0     		b	.L48
 628              	.L56:
 629 0168 3B6A     		ldr	r3, [r7, #32]
 630 016a DB68     		ldr	r3, [r3, #12]
 631 016c FB61     		str	r3, [r7, #28]
 632 016e 3B6A     		ldr	r3, [r7, #32]
 633 0170 0022     		movs	r2, #0
 634 0172 DA60     		str	r2, [r3, #12]
ARM GAS  C:\Users\SONG_J~1\AppData\Local\Temp\cciPqbql.s 			page 12


 635 0174 FB6A     		ldr	r3, [r7, #44]
 636 0176 1B01     		lsls	r3, r3, #4
 637 0178 7A68     		ldr	r2, [r7, #4]
 638 017a D318     		adds	r3, r2, r3
 639 017c DB68     		ldr	r3, [r3, #12]
 640 017e BB61     		str	r3, [r7, #24]
 641 0180 FB6A     		ldr	r3, [r7, #44]
 642 0182 1B01     		lsls	r3, r3, #4
 643 0184 7A68     		ldr	r2, [r7, #4]
 644 0186 D318     		adds	r3, r2, r3
 645 0188 9B68     		ldr	r3, [r3, #8]
 646 018a 002B     		cmp	r3, #0
 647 018c 04D1     		bne	.L58
 648 018e 2B23     		movs	r3, #43
 649 0190 FB18     		adds	r3, r7, r3
 650 0192 4422     		movs	r2, #68
 651 0194 1A70     		strb	r2, [r3]
 652 0196 54E0     		b	.L59
 653              	.L58:
 654 0198 BB69     		ldr	r3, [r7, #24]
 655 019a 002B     		cmp	r3, #0
 656 019c 04D1     		bne	.L60
 657 019e 2B23     		movs	r3, #43
 658 01a0 FB18     		adds	r3, r7, r3
 659 01a2 8022     		movs	r2, #128
 660 01a4 1A70     		strb	r2, [r3]
 661 01a6 4CE0     		b	.L59
 662              	.L60:
 663 01a8 0023     		movs	r3, #0
 664 01aa 7B62     		str	r3, [r7, #36]
 665 01ac 41E0     		b	.L61
 666              	.L68:
 667 01ae 7B6A     		ldr	r3, [r7, #36]
 668 01b0 1B01     		lsls	r3, r3, #4
 669 01b2 BA69     		ldr	r2, [r7, #24]
 670 01b4 D318     		adds	r3, r2, r3
 671 01b6 1022     		movs	r2, #16
 672 01b8 BA18     		adds	r2, r7, r2
 673 01ba 1100     		movs	r1, r2
 674 01bc 1800     		movs	r0, r3
 675 01be FFF7FEFF 		bl	lwm2m_data_decode_int
 676 01c2 0300     		movs	r3, r0
 677 01c4 012B     		cmp	r3, #1
 678 01c6 04D0     		beq	.L62
 679 01c8 2B23     		movs	r3, #43
 680 01ca FB18     		adds	r3, r7, r3
 681 01cc 8022     		movs	r2, #128
 682 01ce 1A70     		strb	r2, [r3]
 683 01d0 37E0     		b	.L59
 684              	.L62:
 685 01d2 3B69     		ldr	r3, [r7, #16]
 686 01d4 7C69     		ldr	r4, [r7, #20]
 687 01d6 002C     		cmp	r4, #0
 688 01d8 07DB     		blt	.L63
 689 01da 3B69     		ldr	r3, [r7, #16]
 690 01dc 7C69     		ldr	r4, [r7, #20]
 691 01de 002C     		cmp	r4, #0
ARM GAS  C:\Users\SONG_J~1\AppData\Local\Temp\cciPqbql.s 			page 13


 692 01e0 03DC     		bgt	.L63
 693 01e2 07D1     		bne	.L65
 694 01e4 434A     		ldr	r2, .L81+4
 695 01e6 9342     		cmp	r3, r2
 696 01e8 04D9     		bls	.L65
 697              	.L63:
 698 01ea 2B23     		movs	r3, #43
 699 01ec FB18     		adds	r3, r7, r3
 700 01ee 8622     		movs	r2, #134
 701 01f0 1A70     		strb	r2, [r3]
 702 01f2 26E0     		b	.L59
 703              	.L65:
 704 01f4 7B6A     		ldr	r3, [r7, #36]
 705 01f6 1B01     		lsls	r3, r3, #4
 706 01f8 BA69     		ldr	r2, [r7, #24]
 707 01fa D318     		adds	r3, r2, r3
 708 01fc 5988     		ldrh	r1, [r3, #2]
 709 01fe 3B69     		ldr	r3, [r7, #16]
 710 0200 7C69     		ldr	r4, [r7, #20]
 711 0202 9AB2     		uxth	r2, r3
 712 0204 3B6A     		ldr	r3, [r7, #32]
 713 0206 1800     		movs	r0, r3
 714 0208 FFF7FEFF 		bl	prv_add_ac_val
 715 020c 0300     		movs	r3, r0
 716 020e 1A00     		movs	r2, r3
 717 0210 0123     		movs	r3, #1
 718 0212 5340     		eors	r3, r2
 719 0214 DBB2     		uxtb	r3, r3
 720 0216 002B     		cmp	r3, #0
 721 0218 04D0     		beq	.L67
 722 021a 2B23     		movs	r3, #43
 723 021c FB18     		adds	r3, r7, r3
 724 021e A022     		movs	r2, #160
 725 0220 1A70     		strb	r2, [r3]
 726 0222 0EE0     		b	.L59
 727              	.L67:
 728 0224 2B23     		movs	r3, #43
 729 0226 FB18     		adds	r3, r7, r3
 730 0228 4422     		movs	r2, #68
 731 022a 1A70     		strb	r2, [r3]
 732 022c 7B6A     		ldr	r3, [r7, #36]
 733 022e 0133     		adds	r3, r3, #1
 734 0230 7B62     		str	r3, [r7, #36]
 735              	.L61:
 736 0232 FB6A     		ldr	r3, [r7, #44]
 737 0234 1B01     		lsls	r3, r3, #4
 738 0236 7A68     		ldr	r2, [r7, #4]
 739 0238 D318     		adds	r3, r2, r3
 740 023a 9A68     		ldr	r2, [r3, #8]
 741 023c 7B6A     		ldr	r3, [r7, #36]
 742 023e 9A42     		cmp	r2, r3
 743 0240 B5D8     		bhi	.L68
 744              	.L59:
 745 0242 2B23     		movs	r3, #43
 746 0244 FB18     		adds	r3, r7, r3
 747 0246 1B78     		ldrb	r3, [r3]
 748 0248 442B     		cmp	r3, #68
ARM GAS  C:\Users\SONG_J~1\AppData\Local\Temp\cciPqbql.s 			page 14


 749 024a 08D0     		beq	.L69
 750 024c 3B6A     		ldr	r3, [r7, #32]
 751 024e DB68     		ldr	r3, [r3, #12]
 752 0250 1800     		movs	r0, r3
 753 0252 FFF7FEFF 		bl	lwm2m_list_free
 754 0256 3B6A     		ldr	r3, [r7, #32]
 755 0258 FA69     		ldr	r2, [r7, #28]
 756 025a DA60     		str	r2, [r3, #12]
 757 025c 33E0     		b	.L48
 758              	.L69:
 759 025e FB69     		ldr	r3, [r7, #28]
 760 0260 1800     		movs	r0, r3
 761 0262 FFF7FEFF 		bl	lwm2m_list_free
 762 0266 2EE0     		b	.L48
 763              	.L40:
 764 0268 FB6A     		ldr	r3, [r7, #44]
 765 026a 1B01     		lsls	r3, r3, #4
 766 026c 7A68     		ldr	r2, [r7, #4]
 767 026e D318     		adds	r3, r2, r3
 768 0270 1022     		movs	r2, #16
 769 0272 BA18     		adds	r2, r7, r2
 770 0274 1100     		movs	r1, r2
 771 0276 1800     		movs	r0, r3
 772 0278 FFF7FEFF 		bl	lwm2m_data_decode_int
 773 027c 0300     		movs	r3, r0
 774 027e 012B     		cmp	r3, #1
 775 0280 1AD1     		bne	.L70
 776 0282 3B69     		ldr	r3, [r7, #16]
 777 0284 7C69     		ldr	r4, [r7, #20]
 778 0286 002C     		cmp	r4, #0
 779 0288 11DB     		blt	.L71
 780 028a 3B69     		ldr	r3, [r7, #16]
 781 028c 7C69     		ldr	r4, [r7, #20]
 782 028e 002C     		cmp	r4, #0
 783 0290 0DDC     		bgt	.L71
 784 0292 02D1     		bne	.L80
 785 0294 174A     		ldr	r2, .L81+4
 786 0296 9342     		cmp	r3, r2
 787 0298 09D8     		bhi	.L71
 788              	.L80:
 789 029a 3B69     		ldr	r3, [r7, #16]
 790 029c 7C69     		ldr	r4, [r7, #20]
 791 029e 9AB2     		uxth	r2, r3
 792 02a0 3B6A     		ldr	r3, [r7, #32]
 793 02a2 5A81     		strh	r2, [r3, #10]
 794 02a4 2B23     		movs	r3, #43
 795 02a6 FB18     		adds	r3, r7, r3
 796 02a8 4422     		movs	r2, #68
 797 02aa 1A70     		strb	r2, [r3]
 798 02ac 0BE0     		b	.L48
 799              	.L71:
 800 02ae 2B23     		movs	r3, #43
 801 02b0 FB18     		adds	r3, r7, r3
 802 02b2 8622     		movs	r2, #134
 803 02b4 1A70     		strb	r2, [r3]
 804 02b6 06E0     		b	.L48
 805              	.L70:
ARM GAS  C:\Users\SONG_J~1\AppData\Local\Temp\cciPqbql.s 			page 15


 806 02b8 2B23     		movs	r3, #43
 807 02ba FB18     		adds	r3, r7, r3
 808 02bc 8022     		movs	r2, #128
 809 02be 1A70     		strb	r2, [r3]
 810 02c0 01E0     		b	.L48
 811              	.L35:
 812 02c2 8423     		movs	r3, #132
 813 02c4 0FE0     		b	.L78
 814              	.L48:
 815 02c6 FB6A     		ldr	r3, [r7, #44]
 816 02c8 0133     		adds	r3, r3, #1
 817 02ca FB62     		str	r3, [r7, #44]
 818 02cc FA6A     		ldr	r2, [r7, #44]
 819 02ce BB68     		ldr	r3, [r7, #8]
 820 02d0 9A42     		cmp	r2, r3
 821 02d2 05DA     		bge	.L76
 822 02d4 2B23     		movs	r3, #43
 823 02d6 FB18     		adds	r3, r7, r3
 824 02d8 1B78     		ldrb	r3, [r3]
 825 02da 442B     		cmp	r3, #68
 826 02dc 00D1     		bne	.LCB883
 827 02de AEE6     		b	.L77	@long jump
 828              	.LCB883:
 829              	.L76:
 830 02e0 2B23     		movs	r3, #43
 831 02e2 FB18     		adds	r3, r7, r3
 832 02e4 1B78     		ldrb	r3, [r3]
 833              	.L78:
 834 02e6 1800     		movs	r0, r3
 835 02e8 BD46     		mov	sp, r7
 836 02ea 0DB0     		add	sp, sp, #52
 837              		@ sp needed
 838 02ec 90BD     		pop	{r4, r7, pc}
 839              	.L82:
 840 02ee C046     		.align	2
 841              	.L81:
 842 02f0 FEFF0000 		.word	65534
 843 02f4 FFFF0000 		.word	65535
 845              		.section	.text.prv_write,"ax",%progbits
 846              		.align	1
 847              		.syntax unified
 848              		.code	16
 849              		.thumb_func
 850              		.fpu softvfp
 852              	prv_write:
 853              		@ args = 0, pretend = 0, frame = 16
 854              		@ frame_needed = 1, uses_anonymous_args = 0
 855 0000 B0B5     		push	{r4, r5, r7, lr}
 856 0002 86B0     		sub	sp, sp, #24
 857 0004 02AF     		add	r7, sp, #8
 858 0006 B960     		str	r1, [r7, #8]
 859 0008 7A60     		str	r2, [r7, #4]
 860 000a 3B60     		str	r3, [r7]
 861 000c 0E25     		movs	r5, #14
 862 000e 7B19     		adds	r3, r7, r5
 863 0010 021C     		adds	r2, r0, #0
 864 0012 1A80     		strh	r2, [r3]
ARM GAS  C:\Users\SONG_J~1\AppData\Local\Temp\cciPqbql.s 			page 16


 865 0014 3C68     		ldr	r4, [r7]
 866 0016 7A68     		ldr	r2, [r7, #4]
 867 0018 B968     		ldr	r1, [r7, #8]
 868 001a 7B19     		adds	r3, r7, r5
 869 001c 1888     		ldrh	r0, [r3]
 870 001e 0023     		movs	r3, #0
 871 0020 0093     		str	r3, [sp]
 872 0022 2300     		movs	r3, r4
 873 0024 FFF7FEFF 		bl	prv_write_resources
 874 0028 0300     		movs	r3, r0
 875 002a 1800     		movs	r0, r3
 876 002c BD46     		mov	sp, r7
 877 002e 04B0     		add	sp, sp, #16
 878              		@ sp needed
 879 0030 B0BD     		pop	{r4, r5, r7, pc}
 881              		.section	.text.prv_delete,"ax",%progbits
 882              		.align	1
 883              		.syntax unified
 884              		.code	16
 885              		.thumb_func
 886              		.fpu softvfp
 888              	prv_delete:
 889              		@ args = 0, pretend = 0, frame = 16
 890              		@ frame_needed = 1, uses_anonymous_args = 0
 891 0000 80B5     		push	{r7, lr}
 892 0002 84B0     		sub	sp, sp, #16
 893 0004 00AF     		add	r7, sp, #0
 894 0006 0200     		movs	r2, r0
 895 0008 3960     		str	r1, [r7]
 896 000a BB1D     		adds	r3, r7, #6
 897 000c 1A80     		strh	r2, [r3]
 898 000e 3B68     		ldr	r3, [r7]
 899 0010 9868     		ldr	r0, [r3, #8]
 900 0012 0C23     		movs	r3, #12
 901 0014 FA18     		adds	r2, r7, r3
 902 0016 BB1D     		adds	r3, r7, #6
 903 0018 1B88     		ldrh	r3, [r3]
 904 001a 1900     		movs	r1, r3
 905 001c FFF7FEFF 		bl	lwm2m_list_remove
 906 0020 0200     		movs	r2, r0
 907 0022 3B68     		ldr	r3, [r7]
 908 0024 9A60     		str	r2, [r3, #8]
 909 0026 FB68     		ldr	r3, [r7, #12]
 910 0028 002B     		cmp	r3, #0
 911 002a 01D1     		bne	.L86
 912 002c 8423     		movs	r3, #132
 913 002e 09E0     		b	.L88
 914              	.L86:
 915 0030 FB68     		ldr	r3, [r7, #12]
 916 0032 DB68     		ldr	r3, [r3, #12]
 917 0034 1800     		movs	r0, r3
 918 0036 FFF7FEFF 		bl	lwm2m_list_free
 919 003a FB68     		ldr	r3, [r7, #12]
 920 003c 1800     		movs	r0, r3
 921 003e FFF7FEFF 		bl	lwm2m_free
 922 0042 4223     		movs	r3, #66
 923              	.L88:
ARM GAS  C:\Users\SONG_J~1\AppData\Local\Temp\cciPqbql.s 			page 17


 924 0044 1800     		movs	r0, r3
 925 0046 BD46     		mov	sp, r7
 926 0048 04B0     		add	sp, sp, #16
 927              		@ sp needed
 928 004a 80BD     		pop	{r7, pc}
 930              		.section	.text.prv_create,"ax",%progbits
 931              		.align	1
 932              		.syntax unified
 933              		.code	16
 934              		.thumb_func
 935              		.fpu softvfp
 937              	prv_create:
 938              		@ args = 0, pretend = 0, frame = 24
 939              		@ frame_needed = 1, uses_anonymous_args = 0
 940 0000 F0B5     		push	{r4, r5, r6, r7, lr}
 941 0002 89B0     		sub	sp, sp, #36
 942 0004 02AF     		add	r7, sp, #8
 943 0006 B960     		str	r1, [r7, #8]
 944 0008 7A60     		str	r2, [r7, #4]
 945 000a 3B60     		str	r3, [r7]
 946 000c 0E23     		movs	r3, #14
 947 000e FB18     		adds	r3, r7, r3
 948 0010 021C     		adds	r2, r0, #0
 949 0012 1A80     		strh	r2, [r3]
 950 0014 1020     		movs	r0, #16
 951 0016 FFF7FEFF 		bl	lwm2m_malloc
 952 001a 0300     		movs	r3, r0
 953 001c 3B61     		str	r3, [r7, #16]
 954 001e 3B69     		ldr	r3, [r7, #16]
 955 0020 002B     		cmp	r3, #0
 956 0022 01D1     		bne	.L90
 957 0024 A023     		movs	r3, #160
 958 0026 37E0     		b	.L91
 959              	.L90:
 960 0028 3B69     		ldr	r3, [r7, #16]
 961 002a 1022     		movs	r2, #16
 962 002c 0021     		movs	r1, #0
 963 002e 1800     		movs	r0, r3
 964 0030 FFF7FEFF 		bl	memset
 965 0034 3B69     		ldr	r3, [r7, #16]
 966 0036 0E26     		movs	r6, #14
 967 0038 BA19     		adds	r2, r7, r6
 968 003a 1288     		ldrh	r2, [r2]
 969 003c 9A80     		strh	r2, [r3, #4]
 970 003e 3B68     		ldr	r3, [r7]
 971 0040 9B68     		ldr	r3, [r3, #8]
 972 0042 3A69     		ldr	r2, [r7, #16]
 973 0044 1100     		movs	r1, r2
 974 0046 1800     		movs	r0, r3
 975 0048 FFF7FEFF 		bl	lwm2m_list_add
 976 004c 0200     		movs	r2, r0
 977 004e 3B68     		ldr	r3, [r7]
 978 0050 9A60     		str	r2, [r3, #8]
 979 0052 1723     		movs	r3, #23
 980 0054 FC18     		adds	r4, r7, r3
 981 0056 3D68     		ldr	r5, [r7]
 982 0058 7A68     		ldr	r2, [r7, #4]
ARM GAS  C:\Users\SONG_J~1\AppData\Local\Temp\cciPqbql.s 			page 18


 983 005a B968     		ldr	r1, [r7, #8]
 984 005c BB19     		adds	r3, r7, r6
 985 005e 1888     		ldrh	r0, [r3]
 986 0060 0123     		movs	r3, #1
 987 0062 0093     		str	r3, [sp]
 988 0064 2B00     		movs	r3, r5
 989 0066 FFF7FEFF 		bl	prv_write_resources
 990 006a 0300     		movs	r3, r0
 991 006c 2370     		strb	r3, [r4]
 992 006e 1723     		movs	r3, #23
 993 0070 FB18     		adds	r3, r7, r3
 994 0072 1B78     		ldrb	r3, [r3]
 995 0074 442B     		cmp	r3, #68
 996 0076 08D0     		beq	.L92
 997 0078 3A68     		ldr	r2, [r7]
 998 007a 0E23     		movs	r3, #14
 999 007c FB18     		adds	r3, r7, r3
 1000 007e 1B88     		ldrh	r3, [r3]
 1001 0080 1100     		movs	r1, r2
 1002 0082 1800     		movs	r0, r3
 1003 0084 FFF7FEFF 		bl	prv_delete
 1004 0088 03E0     		b	.L93
 1005              	.L92:
 1006 008a 1723     		movs	r3, #23
 1007 008c FB18     		adds	r3, r7, r3
 1008 008e 4122     		movs	r2, #65
 1009 0090 1A70     		strb	r2, [r3]
 1010              	.L93:
 1011 0092 1723     		movs	r3, #23
 1012 0094 FB18     		adds	r3, r7, r3
 1013 0096 1B78     		ldrb	r3, [r3]
 1014              	.L91:
 1015 0098 1800     		movs	r0, r3
 1016 009a BD46     		mov	sp, r7
 1017 009c 07B0     		add	sp, sp, #28
 1018              		@ sp needed
 1019 009e F0BD     		pop	{r4, r5, r6, r7, pc}
 1021              		.section	.text.acc_ctrl_create_object,"ax",%progbits
 1022              		.align	1
 1023              		.global	acc_ctrl_create_object
 1024              		.syntax unified
 1025              		.code	16
 1026              		.thumb_func
 1027              		.fpu softvfp
 1029              	acc_ctrl_create_object:
 1030              		@ args = 0, pretend = 0, frame = 8
 1031              		@ frame_needed = 1, uses_anonymous_args = 0
 1032 0000 80B5     		push	{r7, lr}
 1033 0002 82B0     		sub	sp, sp, #8
 1034 0004 00AF     		add	r7, sp, #0
 1035 0006 0023     		movs	r3, #0
 1036 0008 7B60     		str	r3, [r7, #4]
 1037 000a 2C20     		movs	r0, #44
 1038 000c FFF7FEFF 		bl	lwm2m_malloc
 1039 0010 0300     		movs	r3, r0
 1040 0012 7B60     		str	r3, [r7, #4]
 1041 0014 7B68     		ldr	r3, [r7, #4]
ARM GAS  C:\Users\SONG_J~1\AppData\Local\Temp\cciPqbql.s 			page 19


 1042 0016 002B     		cmp	r3, #0
 1043 0018 14D0     		beq	.L95
 1044 001a 7B68     		ldr	r3, [r7, #4]
 1045 001c 2C22     		movs	r2, #44
 1046 001e 0021     		movs	r1, #0
 1047 0020 1800     		movs	r0, r3
 1048 0022 FFF7FEFF 		bl	memset
 1049 0026 7B68     		ldr	r3, [r7, #4]
 1050 0028 0222     		movs	r2, #2
 1051 002a 9A80     		strh	r2, [r3, #4]
 1052 002c 7B68     		ldr	r3, [r7, #4]
 1053 002e 084A     		ldr	r2, .L97
 1054 0030 DA60     		str	r2, [r3, #12]
 1055 0032 7B68     		ldr	r3, [r7, #4]
 1056 0034 074A     		ldr	r2, .L97+4
 1057 0036 1A61     		str	r2, [r3, #16]
 1058 0038 7B68     		ldr	r3, [r7, #4]
 1059 003a 074A     		ldr	r2, .L97+8
 1060 003c DA61     		str	r2, [r3, #28]
 1061 003e 7B68     		ldr	r3, [r7, #4]
 1062 0040 064A     		ldr	r2, .L97+12
 1063 0042 1A62     		str	r2, [r3, #32]
 1064              	.L95:
 1065 0044 7B68     		ldr	r3, [r7, #4]
 1066 0046 1800     		movs	r0, r3
 1067 0048 BD46     		mov	sp, r7
 1068 004a 02B0     		add	sp, sp, #8
 1069              		@ sp needed
 1070 004c 80BD     		pop	{r7, pc}
 1071              	.L98:
 1072 004e C046     		.align	2
 1073              	.L97:
 1074 0050 00000000 		.word	prv_read
 1075 0054 00000000 		.word	prv_write
 1076 0058 00000000 		.word	prv_create
 1077 005c 00000000 		.word	prv_delete
 1079              		.section	.text.acl_ctrl_free_object,"ax",%progbits
 1080              		.align	1
 1081              		.global	acl_ctrl_free_object
 1082              		.syntax unified
 1083              		.code	16
 1084              		.thumb_func
 1085              		.fpu softvfp
 1087              	acl_ctrl_free_object:
 1088              		@ args = 0, pretend = 0, frame = 16
 1089              		@ frame_needed = 1, uses_anonymous_args = 0
 1090 0000 80B5     		push	{r7, lr}
 1091 0002 84B0     		sub	sp, sp, #16
 1092 0004 00AF     		add	r7, sp, #0
 1093 0006 7860     		str	r0, [r7, #4]
 1094 0008 7B68     		ldr	r3, [r7, #4]
 1095 000a 9B68     		ldr	r3, [r3, #8]
 1096 000c FB60     		str	r3, [r7, #12]
 1097 000e 0DE0     		b	.L100
 1098              	.L101:
 1099 0010 FB68     		ldr	r3, [r7, #12]
 1100 0012 DB68     		ldr	r3, [r3, #12]
ARM GAS  C:\Users\SONG_J~1\AppData\Local\Temp\cciPqbql.s 			page 20


 1101 0014 1800     		movs	r0, r3
 1102 0016 FFF7FEFF 		bl	lwm2m_list_free
 1103 001a FB68     		ldr	r3, [r7, #12]
 1104 001c BB60     		str	r3, [r7, #8]
 1105 001e FB68     		ldr	r3, [r7, #12]
 1106 0020 1B68     		ldr	r3, [r3]
 1107 0022 FB60     		str	r3, [r7, #12]
 1108 0024 BB68     		ldr	r3, [r7, #8]
 1109 0026 1800     		movs	r0, r3
 1110 0028 FFF7FEFF 		bl	lwm2m_free
 1111              	.L100:
 1112 002c FB68     		ldr	r3, [r7, #12]
 1113 002e 002B     		cmp	r3, #0
 1114 0030 EED1     		bne	.L101
 1115 0032 7B68     		ldr	r3, [r7, #4]
 1116 0034 1800     		movs	r0, r3
 1117 0036 FFF7FEFF 		bl	lwm2m_free
 1118 003a C046     		nop
 1119 003c BD46     		mov	sp, r7
 1120 003e 04B0     		add	sp, sp, #16
 1121              		@ sp needed
 1122 0040 80BD     		pop	{r7, pc}
 1124              		.section	.text.acc_ctrl_obj_add_inst,"ax",%progbits
 1125              		.align	1
 1126              		.global	acc_ctrl_obj_add_inst
 1127              		.syntax unified
 1128              		.code	16
 1129              		.thumb_func
 1130              		.fpu softvfp
 1132              	acc_ctrl_obj_add_inst:
 1133              		@ args = 4, pretend = 0, frame = 24
 1134              		@ frame_needed = 1, uses_anonymous_args = 0
 1135 0000 90B5     		push	{r4, r7, lr}
 1136 0002 87B0     		sub	sp, sp, #28
 1137 0004 00AF     		add	r7, sp, #0
 1138 0006 F860     		str	r0, [r7, #12]
 1139 0008 0C00     		movs	r4, r1
 1140 000a 1000     		movs	r0, r2
 1141 000c 1900     		movs	r1, r3
 1142 000e 0A23     		movs	r3, #10
 1143 0010 FB18     		adds	r3, r7, r3
 1144 0012 221C     		adds	r2, r4, #0
 1145 0014 1A80     		strh	r2, [r3]
 1146 0016 0823     		movs	r3, #8
 1147 0018 FB18     		adds	r3, r7, r3
 1148 001a 021C     		adds	r2, r0, #0
 1149 001c 1A80     		strh	r2, [r3]
 1150 001e BB1D     		adds	r3, r7, #6
 1151 0020 0A1C     		adds	r2, r1, #0
 1152 0022 1A80     		strh	r2, [r3]
 1153 0024 1723     		movs	r3, #23
 1154 0026 FB18     		adds	r3, r7, r3
 1155 0028 0022     		movs	r2, #0
 1156 002a 1A70     		strb	r2, [r3]
 1157 002c FB68     		ldr	r3, [r7, #12]
 1158 002e 002B     		cmp	r3, #0
 1159 0030 03D1     		bne	.L103
ARM GAS  C:\Users\SONG_J~1\AppData\Local\Temp\cciPqbql.s 			page 21


 1160 0032 1723     		movs	r3, #23
 1161 0034 FB18     		adds	r3, r7, r3
 1162 0036 1B78     		ldrb	r3, [r3]
 1163 0038 34E0     		b	.L104
 1164              	.L103:
 1165 003a 1020     		movs	r0, #16
 1166 003c FFF7FEFF 		bl	lwm2m_malloc
 1167 0040 0300     		movs	r3, r0
 1168 0042 3B61     		str	r3, [r7, #16]
 1169 0044 3B69     		ldr	r3, [r7, #16]
 1170 0046 002B     		cmp	r3, #0
 1171 0048 03D1     		bne	.L105
 1172 004a 1723     		movs	r3, #23
 1173 004c FB18     		adds	r3, r7, r3
 1174 004e 1B78     		ldrb	r3, [r3]
 1175 0050 28E0     		b	.L104
 1176              	.L105:
 1177 0052 3B69     		ldr	r3, [r7, #16]
 1178 0054 1022     		movs	r2, #16
 1179 0056 0021     		movs	r1, #0
 1180 0058 1800     		movs	r0, r3
 1181 005a FFF7FEFF 		bl	memset
 1182 005e 3B69     		ldr	r3, [r7, #16]
 1183 0060 0A22     		movs	r2, #10
 1184 0062 BA18     		adds	r2, r7, r2
 1185 0064 1288     		ldrh	r2, [r2]
 1186 0066 9A80     		strh	r2, [r3, #4]
 1187 0068 3B69     		ldr	r3, [r7, #16]
 1188 006a 0822     		movs	r2, #8
 1189 006c BA18     		adds	r2, r7, r2
 1190 006e 1288     		ldrh	r2, [r2]
 1191 0070 DA80     		strh	r2, [r3, #6]
 1192 0072 3B69     		ldr	r3, [r7, #16]
 1193 0074 BA1D     		adds	r2, r7, #6
 1194 0076 1288     		ldrh	r2, [r2]
 1195 0078 1A81     		strh	r2, [r3, #8]
 1196 007a 3B69     		ldr	r3, [r7, #16]
 1197 007c 2822     		movs	r2, #40
 1198 007e BA18     		adds	r2, r7, r2
 1199 0080 1288     		ldrh	r2, [r2]
 1200 0082 5A81     		strh	r2, [r3, #10]
 1201 0084 FB68     		ldr	r3, [r7, #12]
 1202 0086 9B68     		ldr	r3, [r3, #8]
 1203 0088 3A69     		ldr	r2, [r7, #16]
 1204 008a 1100     		movs	r1, r2
 1205 008c 1800     		movs	r0, r3
 1206 008e FFF7FEFF 		bl	lwm2m_list_add
 1207 0092 0200     		movs	r2, r0
 1208 0094 FB68     		ldr	r3, [r7, #12]
 1209 0096 9A60     		str	r2, [r3, #8]
 1210 0098 1721     		movs	r1, #23
 1211 009a 7B18     		adds	r3, r7, r1
 1212 009c 0122     		movs	r2, #1
 1213 009e 1A70     		strb	r2, [r3]
 1214 00a0 7B18     		adds	r3, r7, r1
 1215 00a2 1B78     		ldrb	r3, [r3]
 1216              	.L104:
ARM GAS  C:\Users\SONG_J~1\AppData\Local\Temp\cciPqbql.s 			page 22


 1217 00a4 1800     		movs	r0, r3
 1218 00a6 BD46     		mov	sp, r7
 1219 00a8 07B0     		add	sp, sp, #28
 1220              		@ sp needed
 1221 00aa 90BD     		pop	{r4, r7, pc}
 1223              		.section	.text.acc_ctrl_oi_add_ac_val,"ax",%progbits
 1224              		.align	1
 1225              		.global	acc_ctrl_oi_add_ac_val
 1226              		.syntax unified
 1227              		.code	16
 1228              		.thumb_func
 1229              		.fpu softvfp
 1231              	acc_ctrl_oi_add_ac_val:
 1232              		@ args = 0, pretend = 0, frame = 24
 1233              		@ frame_needed = 1, uses_anonymous_args = 0
 1234 0000 B0B5     		push	{r4, r5, r7, lr}
 1235 0002 86B0     		sub	sp, sp, #24
 1236 0004 00AF     		add	r7, sp, #0
 1237 0006 F860     		str	r0, [r7, #12]
 1238 0008 0C00     		movs	r4, r1
 1239 000a 1000     		movs	r0, r2
 1240 000c 1900     		movs	r1, r3
 1241 000e 0A25     		movs	r5, #10
 1242 0010 7B19     		adds	r3, r7, r5
 1243 0012 221C     		adds	r2, r4, #0
 1244 0014 1A80     		strh	r2, [r3]
 1245 0016 0823     		movs	r3, #8
 1246 0018 FB18     		adds	r3, r7, r3
 1247 001a 021C     		adds	r2, r0, #0
 1248 001c 1A80     		strh	r2, [r3]
 1249 001e BB1D     		adds	r3, r7, #6
 1250 0020 0A1C     		adds	r2, r1, #0
 1251 0022 1A80     		strh	r2, [r3]
 1252 0024 1723     		movs	r3, #23
 1253 0026 FB18     		adds	r3, r7, r3
 1254 0028 0022     		movs	r2, #0
 1255 002a 1A70     		strb	r2, [r3]
 1256 002c FB68     		ldr	r3, [r7, #12]
 1257 002e 9A68     		ldr	r2, [r3, #8]
 1258 0030 7B19     		adds	r3, r7, r5
 1259 0032 1B88     		ldrh	r3, [r3]
 1260 0034 1900     		movs	r1, r3
 1261 0036 1000     		movs	r0, r2
 1262 0038 FFF7FEFF 		bl	lwm2m_list_find
 1263 003c 0300     		movs	r3, r0
 1264 003e 3B61     		str	r3, [r7, #16]
 1265 0040 3B69     		ldr	r3, [r7, #16]
 1266 0042 002B     		cmp	r3, #0
 1267 0044 03D1     		bne	.L107
 1268 0046 1723     		movs	r3, #23
 1269 0048 FB18     		adds	r3, r7, r3
 1270 004a 1B78     		ldrb	r3, [r3]
 1271 004c 09E0     		b	.L108
 1272              	.L107:
 1273 004e BB1D     		adds	r3, r7, #6
 1274 0050 1A88     		ldrh	r2, [r3]
 1275 0052 0823     		movs	r3, #8
ARM GAS  C:\Users\SONG_J~1\AppData\Local\Temp\cciPqbql.s 			page 23


 1276 0054 FB18     		adds	r3, r7, r3
 1277 0056 1988     		ldrh	r1, [r3]
 1278 0058 3B69     		ldr	r3, [r7, #16]
 1279 005a 1800     		movs	r0, r3
 1280 005c FFF7FEFF 		bl	prv_add_ac_val
 1281 0060 0300     		movs	r3, r0
 1282              	.L108:
 1283 0062 1800     		movs	r0, r3
 1284 0064 BD46     		mov	sp, r7
 1285 0066 06B0     		add	sp, sp, #24
 1286              		@ sp needed
 1287 0068 B0BD     		pop	{r4, r5, r7, pc}
 1289              		.section	.text.prv_get_acc_instance,"ax",%progbits
 1290              		.align	1
 1291              		.syntax unified
 1292              		.code	16
 1293              		.thumb_func
 1294              		.fpu softvfp
 1296              	prv_get_acc_instance:
 1297              		@ args = 0, pretend = 0, frame = 16
 1298              		@ frame_needed = 1, uses_anonymous_args = 0
 1299 0000 80B5     		push	{r7, lr}
 1300 0002 84B0     		sub	sp, sp, #16
 1301 0004 00AF     		add	r7, sp, #0
 1302 0006 7860     		str	r0, [r7, #4]
 1303 0008 0800     		movs	r0, r1
 1304 000a 1100     		movs	r1, r2
 1305 000c BB1C     		adds	r3, r7, #2
 1306 000e 021C     		adds	r2, r0, #0
 1307 0010 1A80     		strh	r2, [r3]
 1308 0012 3B00     		movs	r3, r7
 1309 0014 0A1C     		adds	r2, r1, #0
 1310 0016 1A80     		strh	r2, [r3]
 1311 0018 7B68     		ldr	r3, [r7, #4]
 1312 001a FB60     		str	r3, [r7, #12]
 1313 001c 10E0     		b	.L110
 1314              	.L113:
 1315 001e FB68     		ldr	r3, [r7, #12]
 1316 0020 DB88     		ldrh	r3, [r3, #6]
 1317 0022 BA1C     		adds	r2, r7, #2
 1318 0024 1288     		ldrh	r2, [r2]
 1319 0026 9A42     		cmp	r2, r3
 1320 0028 07D1     		bne	.L111
 1321 002a FB68     		ldr	r3, [r7, #12]
 1322 002c 1B89     		ldrh	r3, [r3, #8]
 1323 002e 3A00     		movs	r2, r7
 1324 0030 1288     		ldrh	r2, [r2]
 1325 0032 9A42     		cmp	r2, r3
 1326 0034 01D1     		bne	.L111
 1327 0036 FB68     		ldr	r3, [r7, #12]
 1328 0038 06E0     		b	.L112
 1329              	.L111:
 1330 003a FB68     		ldr	r3, [r7, #12]
 1331 003c 1B68     		ldr	r3, [r3]
 1332 003e FB60     		str	r3, [r7, #12]
 1333              	.L110:
 1334 0040 FB68     		ldr	r3, [r7, #12]
ARM GAS  C:\Users\SONG_J~1\AppData\Local\Temp\cciPqbql.s 			page 24


 1335 0042 002B     		cmp	r3, #0
 1336 0044 EBD1     		bne	.L113
 1337 0046 0023     		movs	r3, #0
 1338              	.L112:
 1339 0048 1800     		movs	r0, r3
 1340 004a BD46     		mov	sp, r7
 1341 004c 04B0     		add	sp, sp, #16
 1342              		@ sp needed
 1343 004e 80BD     		pop	{r7, pc}
 1345              		.section	.text.prv_get_acl_instance,"ax",%progbits
 1346              		.align	1
 1347              		.syntax unified
 1348              		.code	16
 1349              		.thumb_func
 1350              		.fpu softvfp
 1352              	prv_get_acl_instance:
 1353              		@ args = 0, pretend = 0, frame = 16
 1354              		@ frame_needed = 1, uses_anonymous_args = 0
 1355 0000 80B5     		push	{r7, lr}
 1356 0002 84B0     		sub	sp, sp, #16
 1357 0004 00AF     		add	r7, sp, #0
 1358 0006 7860     		str	r0, [r7, #4]
 1359 0008 0A00     		movs	r2, r1
 1360 000a BB1C     		adds	r3, r7, #2
 1361 000c 1A80     		strh	r2, [r3]
 1362 000e BB1C     		adds	r3, r7, #2
 1363 0010 1A88     		ldrh	r2, [r3]
 1364 0012 7B68     		ldr	r3, [r7, #4]
 1365 0014 1100     		movs	r1, r2
 1366 0016 1800     		movs	r0, r3
 1367 0018 FFF7FEFF 		bl	lwm2m_list_find
 1368 001c 0300     		movs	r3, r0
 1369 001e FB60     		str	r3, [r7, #12]
 1370 0020 FB68     		ldr	r3, [r7, #12]
 1371 0022 002B     		cmp	r3, #0
 1372 0024 06D1     		bne	.L115
 1373 0026 7B68     		ldr	r3, [r7, #4]
 1374 0028 0021     		movs	r1, #0
 1375 002a 1800     		movs	r0, r3
 1376 002c FFF7FEFF 		bl	lwm2m_list_find
 1377 0030 0300     		movs	r3, r0
 1378 0032 FB60     		str	r3, [r7, #12]
 1379              	.L115:
 1380 0034 FB68     		ldr	r3, [r7, #12]
 1381 0036 1800     		movs	r0, r3
 1382 0038 BD46     		mov	sp, r7
 1383 003a 04B0     		add	sp, sp, #16
 1384              		@ sp needed
 1385 003c 80BD     		pop	{r7, pc}
 1387              		.section	.text.prv_auth_match,"ax",%progbits
 1388              		.align	1
 1389              		.syntax unified
 1390              		.code	16
 1391              		.thumb_func
 1392              		.fpu softvfp
 1394              	prv_auth_match:
 1395              		@ args = 0, pretend = 0, frame = 8
ARM GAS  C:\Users\SONG_J~1\AppData\Local\Temp\cciPqbql.s 			page 25


 1396              		@ frame_needed = 1, uses_anonymous_args = 0
 1397 0000 80B5     		push	{r7, lr}
 1398 0002 82B0     		sub	sp, sp, #8
 1399 0004 00AF     		add	r7, sp, #0
 1400 0006 0200     		movs	r2, r0
 1401 0008 FB1D     		adds	r3, r7, #7
 1402 000a 1A70     		strb	r2, [r3]
 1403 000c 3B1D     		adds	r3, r7, #4
 1404 000e 0A1C     		adds	r2, r1, #0
 1405 0010 1A80     		strh	r2, [r3]
 1406 0012 3B1D     		adds	r3, r7, #4
 1407 0014 1B88     		ldrh	r3, [r3]
 1408 0016 FA1D     		adds	r2, r7, #7
 1409 0018 1278     		ldrb	r2, [r2]
 1410 001a 0121     		movs	r1, #1
 1411 001c 9140     		lsls	r1, r1, r2
 1412 001e 0A00     		movs	r2, r1
 1413 0020 1340     		ands	r3, r2
 1414 0022 5A1E     		subs	r2, r3, #1
 1415 0024 9341     		sbcs	r3, r3, r2
 1416 0026 DBB2     		uxtb	r3, r3
 1417 0028 1800     		movs	r0, r3
 1418 002a BD46     		mov	sp, r7
 1419 002c 02B0     		add	sp, sp, #8
 1420              		@ sp needed
 1421 002e 80BD     		pop	{r7, pc}
 1423              		.section	.text.prv_check_instance_auth,"ax",%progbits
 1424              		.align	1
 1425              		.syntax unified
 1426              		.code	16
 1427              		.thumb_func
 1428              		.fpu softvfp
 1430              	prv_check_instance_auth:
 1431              		@ args = 4, pretend = 0, frame = 24
 1432              		@ frame_needed = 1, uses_anonymous_args = 0
 1433 0000 B0B5     		push	{r4, r5, r7, lr}
 1434 0002 86B0     		sub	sp, sp, #24
 1435 0004 00AF     		add	r7, sp, #0
 1436 0006 F860     		str	r0, [r7, #12]
 1437 0008 0C00     		movs	r4, r1
 1438 000a 1000     		movs	r0, r2
 1439 000c 1900     		movs	r1, r3
 1440 000e 0A25     		movs	r5, #10
 1441 0010 7B19     		adds	r3, r7, r5
 1442 0012 221C     		adds	r2, r4, #0
 1443 0014 1A80     		strh	r2, [r3]
 1444 0016 0824     		movs	r4, #8
 1445 0018 3B19     		adds	r3, r7, r4
 1446 001a 021C     		adds	r2, r0, #0
 1447 001c 1A80     		strh	r2, [r3]
 1448 001e BB1D     		adds	r3, r7, #6
 1449 0020 0A1C     		adds	r2, r1, #0
 1450 0022 1A80     		strh	r2, [r3]
 1451 0024 3B19     		adds	r3, r7, r4
 1452 0026 1A88     		ldrh	r2, [r3]
 1453 0028 7B19     		adds	r3, r7, r5
 1454 002a 1988     		ldrh	r1, [r3]
ARM GAS  C:\Users\SONG_J~1\AppData\Local\Temp\cciPqbql.s 			page 26


 1455 002c FB68     		ldr	r3, [r7, #12]
 1456 002e 1800     		movs	r0, r3
 1457 0030 FFF7FEFF 		bl	prv_get_acc_instance
 1458 0034 0300     		movs	r3, r0
 1459 0036 7B61     		str	r3, [r7, #20]
 1460 0038 7B69     		ldr	r3, [r7, #20]
 1461 003a 002B     		cmp	r3, #0
 1462 003c 01D1     		bne	.L120
 1463 003e 0023     		movs	r3, #0
 1464 0040 1FE0     		b	.L121
 1465              	.L120:
 1466 0042 7B69     		ldr	r3, [r7, #20]
 1467 0044 DA68     		ldr	r2, [r3, #12]
 1468 0046 BB1D     		adds	r3, r7, #6
 1469 0048 1B88     		ldrh	r3, [r3]
 1470 004a 1900     		movs	r1, r3
 1471 004c 1000     		movs	r0, r2
 1472 004e FFF7FEFF 		bl	prv_get_acl_instance
 1473 0052 0300     		movs	r3, r0
 1474 0054 3B61     		str	r3, [r7, #16]
 1475 0056 3B69     		ldr	r3, [r7, #16]
 1476 0058 002B     		cmp	r3, #0
 1477 005a 08D1     		bne	.L122
 1478 005c 7B69     		ldr	r3, [r7, #20]
 1479 005e 5B89     		ldrh	r3, [r3, #10]
 1480 0060 BA1D     		adds	r2, r7, #6
 1481 0062 1288     		ldrh	r2, [r2]
 1482 0064 D31A     		subs	r3, r2, r3
 1483 0066 5A42     		rsbs	r2, r3, #0
 1484 0068 5341     		adcs	r3, r3, r2
 1485 006a DBB2     		uxtb	r3, r3
 1486 006c 09E0     		b	.L121
 1487              	.L122:
 1488 006e 3B69     		ldr	r3, [r7, #16]
 1489 0070 DA88     		ldrh	r2, [r3, #6]
 1490 0072 2823     		movs	r3, #40
 1491 0074 FB18     		adds	r3, r7, r3
 1492 0076 1B78     		ldrb	r3, [r3]
 1493 0078 1100     		movs	r1, r2
 1494 007a 1800     		movs	r0, r3
 1495 007c FFF7FEFF 		bl	prv_auth_match
 1496 0080 0300     		movs	r3, r0
 1497              	.L121:
 1498 0082 1800     		movs	r0, r3
 1499 0084 BD46     		mov	sp, r7
 1500 0086 06B0     		add	sp, sp, #24
 1501              		@ sp needed
 1502 0088 B0BD     		pop	{r4, r5, r7, pc}
 1504              		.section	.text.prv_acc_self_auth_check,"ax",%progbits
 1505              		.align	1
 1506              		.syntax unified
 1507              		.code	16
 1508              		.thumb_func
 1509              		.fpu softvfp
 1511              	prv_acc_self_auth_check:
 1512              		@ args = 0, pretend = 0, frame = 24
 1513              		@ frame_needed = 1, uses_anonymous_args = 0
ARM GAS  C:\Users\SONG_J~1\AppData\Local\Temp\cciPqbql.s 			page 27


 1514 0000 80B5     		push	{r7, lr}
 1515 0002 86B0     		sub	sp, sp, #24
 1516 0004 00AF     		add	r7, sp, #0
 1517 0006 F860     		str	r0, [r7, #12]
 1518 0008 B960     		str	r1, [r7, #8]
 1519 000a 1900     		movs	r1, r3
 1520 000c FB1D     		adds	r3, r7, #7
 1521 000e 1A70     		strb	r2, [r3]
 1522 0010 3B1D     		adds	r3, r7, #4
 1523 0012 0A1C     		adds	r2, r1, #0
 1524 0014 1A80     		strh	r2, [r3]
 1525 0016 BB68     		ldr	r3, [r7, #8]
 1526 0018 1B78     		ldrb	r3, [r3]
 1527 001a 1A00     		movs	r2, r3
 1528 001c 0223     		movs	r3, #2
 1529 001e 1340     		ands	r3, r2
 1530 0020 15D0     		beq	.L124
 1531 0022 BB68     		ldr	r3, [r7, #8]
 1532 0024 9A88     		ldrh	r2, [r3, #4]
 1533 0026 FB68     		ldr	r3, [r7, #12]
 1534 0028 1100     		movs	r1, r2
 1535 002a 1800     		movs	r0, r3
 1536 002c FFF7FEFF 		bl	lwm2m_list_find
 1537 0030 0300     		movs	r3, r0
 1538 0032 7B61     		str	r3, [r7, #20]
 1539 0034 7B69     		ldr	r3, [r7, #20]
 1540 0036 002B     		cmp	r3, #0
 1541 0038 07D0     		beq	.L125
 1542 003a 7B69     		ldr	r3, [r7, #20]
 1543 003c 5B89     		ldrh	r3, [r3, #10]
 1544 003e 3A1D     		adds	r2, r7, #4
 1545 0040 1288     		ldrh	r2, [r2]
 1546 0042 9A42     		cmp	r2, r3
 1547 0044 01D1     		bne	.L125
 1548 0046 0023     		movs	r3, #0
 1549 0048 13E0     		b	.L126
 1550              	.L125:
 1551 004a 8123     		movs	r3, #129
 1552 004c 11E0     		b	.L126
 1553              	.L124:
 1554 004e FB68     		ldr	r3, [r7, #12]
 1555 0050 7B61     		str	r3, [r7, #20]
 1556 0052 0AE0     		b	.L127
 1557              	.L129:
 1558 0054 7B69     		ldr	r3, [r7, #20]
 1559 0056 5B89     		ldrh	r3, [r3, #10]
 1560 0058 3A1D     		adds	r2, r7, #4
 1561 005a 1288     		ldrh	r2, [r2]
 1562 005c 9A42     		cmp	r2, r3
 1563 005e 01D0     		beq	.L128
 1564 0060 8123     		movs	r3, #129
 1565 0062 06E0     		b	.L126
 1566              	.L128:
 1567 0064 7B69     		ldr	r3, [r7, #20]
 1568 0066 1B68     		ldr	r3, [r3]
 1569 0068 7B61     		str	r3, [r7, #20]
 1570              	.L127:
ARM GAS  C:\Users\SONG_J~1\AppData\Local\Temp\cciPqbql.s 			page 28


 1571 006a 7B69     		ldr	r3, [r7, #20]
 1572 006c 002B     		cmp	r3, #0
 1573 006e F1D1     		bne	.L129
 1574 0070 0023     		movs	r3, #0
 1575              	.L126:
 1576 0072 1800     		movs	r0, r3
 1577 0074 BD46     		mov	sp, r7
 1578 0076 06B0     		add	sp, sp, #24
 1579              		@ sp needed
 1580 0078 80BD     		pop	{r7, pc}
 1582              		.section	.text.prv_pre_auth_check,"ax",%progbits
 1583              		.align	1
 1584              		.syntax unified
 1585              		.code	16
 1586              		.thumb_func
 1587              		.fpu softvfp
 1589              	prv_pre_auth_check:
 1590              		@ args = 0, pretend = 0, frame = 16
 1591              		@ frame_needed = 1, uses_anonymous_args = 0
 1592 0000 90B5     		push	{r4, r7, lr}
 1593 0002 87B0     		sub	sp, sp, #28
 1594 0004 02AF     		add	r7, sp, #8
 1595 0006 F860     		str	r0, [r7, #12]
 1596 0008 B960     		str	r1, [r7, #8]
 1597 000a 1900     		movs	r1, r3
 1598 000c FB1D     		adds	r3, r7, #7
 1599 000e 1A70     		strb	r2, [r3]
 1600 0010 3B1D     		adds	r3, r7, #4
 1601 0012 0A1C     		adds	r2, r1, #0
 1602 0014 1A80     		strh	r2, [r3]
 1603 0016 FB1D     		adds	r3, r7, #7
 1604 0018 1B78     		ldrb	r3, [r3]
 1605 001a 042B     		cmp	r3, #4
 1606 001c 17D1     		bne	.L131
 1607 001e BB68     		ldr	r3, [r7, #8]
 1608 0020 5988     		ldrh	r1, [r3, #2]
 1609 0022 3B1D     		adds	r3, r7, #4
 1610 0024 1A88     		ldrh	r2, [r3]
 1611 0026 254C     		ldr	r4, .L137
 1612 0028 F868     		ldr	r0, [r7, #12]
 1613 002a FB1D     		adds	r3, r7, #7
 1614 002c 1B78     		ldrb	r3, [r3]
 1615 002e 0093     		str	r3, [sp]
 1616 0030 1300     		movs	r3, r2
 1617 0032 2200     		movs	r2, r4
 1618 0034 FFF7FEFF 		bl	prv_check_instance_auth
 1619 0038 0300     		movs	r3, r0
 1620 003a 1A00     		movs	r2, r3
 1621 003c 0123     		movs	r3, #1
 1622 003e 5340     		eors	r3, r2
 1623 0040 DBB2     		uxtb	r3, r3
 1624 0042 002B     		cmp	r3, #0
 1625 0044 01D0     		beq	.L132
 1626 0046 8123     		movs	r3, #129
 1627 0048 33E0     		b	.L133
 1628              	.L132:
 1629 004a 0023     		movs	r3, #0
ARM GAS  C:\Users\SONG_J~1\AppData\Local\Temp\cciPqbql.s 			page 29


 1630 004c 31E0     		b	.L133
 1631              	.L131:
 1632 004e FB1D     		adds	r3, r7, #7
 1633 0050 1B78     		ldrb	r3, [r3]
 1634 0052 052B     		cmp	r3, #5
 1635 0054 01D1     		bne	.L134
 1636 0056 0023     		movs	r3, #0
 1637 0058 2BE0     		b	.L133
 1638              	.L134:
 1639 005a BB68     		ldr	r3, [r7, #8]
 1640 005c 5B88     		ldrh	r3, [r3, #2]
 1641 005e 022B     		cmp	r3, #2
 1642 0060 0AD1     		bne	.L135
 1643 0062 3B1D     		adds	r3, r7, #4
 1644 0064 1C88     		ldrh	r4, [r3]
 1645 0066 FB1D     		adds	r3, r7, #7
 1646 0068 1A78     		ldrb	r2, [r3]
 1647 006a B968     		ldr	r1, [r7, #8]
 1648 006c F868     		ldr	r0, [r7, #12]
 1649 006e 2300     		movs	r3, r4
 1650 0070 FFF7FEFF 		bl	prv_acc_self_auth_check
 1651 0074 0300     		movs	r3, r0
 1652 0076 1CE0     		b	.L133
 1653              	.L135:
 1654 0078 BB68     		ldr	r3, [r7, #8]
 1655 007a 1B78     		ldrb	r3, [r3]
 1656 007c 1A00     		movs	r2, r3
 1657 007e 0223     		movs	r3, #2
 1658 0080 1340     		ands	r3, r2
 1659 0082 15D0     		beq	.L136
 1660 0084 BB68     		ldr	r3, [r7, #8]
 1661 0086 5988     		ldrh	r1, [r3, #2]
 1662 0088 BB68     		ldr	r3, [r7, #8]
 1663 008a 9A88     		ldrh	r2, [r3, #4]
 1664 008c 3B1D     		adds	r3, r7, #4
 1665 008e 1C88     		ldrh	r4, [r3]
 1666 0090 F868     		ldr	r0, [r7, #12]
 1667 0092 FB1D     		adds	r3, r7, #7
 1668 0094 1B78     		ldrb	r3, [r3]
 1669 0096 0093     		str	r3, [sp]
 1670 0098 2300     		movs	r3, r4
 1671 009a FFF7FEFF 		bl	prv_check_instance_auth
 1672 009e 0300     		movs	r3, r0
 1673 00a0 1A00     		movs	r2, r3
 1674 00a2 0123     		movs	r3, #1
 1675 00a4 5340     		eors	r3, r2
 1676 00a6 DBB2     		uxtb	r3, r3
 1677 00a8 002B     		cmp	r3, #0
 1678 00aa 01D0     		beq	.L136
 1679 00ac 8123     		movs	r3, #129
 1680 00ae 00E0     		b	.L133
 1681              	.L136:
 1682 00b0 0023     		movs	r3, #0
 1683              	.L133:
 1684 00b2 1800     		movs	r0, r3
 1685 00b4 BD46     		mov	sp, r7
 1686 00b6 05B0     		add	sp, sp, #20
ARM GAS  C:\Users\SONG_J~1\AppData\Local\Temp\cciPqbql.s 			page 30


 1687              		@ sp needed
 1688 00b8 90BD     		pop	{r4, r7, pc}
 1689              	.L138:
 1690 00ba C046     		.align	2
 1691              	.L137:
 1692 00bc FFFF0000 		.word	65535
 1694              		.section	.text.prv_post_action_check,"ax",%progbits
 1695              		.align	1
 1696              		.syntax unified
 1697              		.code	16
 1698              		.thumb_func
 1699              		.fpu softvfp
 1701              	prv_post_action_check:
 1702              		@ args = 0, pretend = 0, frame = 8
 1703              		@ frame_needed = 1, uses_anonymous_args = 0
 1704 0000 80B5     		push	{r7, lr}
 1705 0002 82B0     		sub	sp, sp, #8
 1706 0004 00AF     		add	r7, sp, #0
 1707 0006 7860     		str	r0, [r7, #4]
 1708 0008 0A00     		movs	r2, r1
 1709 000a FB1C     		adds	r3, r7, #3
 1710 000c 1A70     		strb	r2, [r3]
 1711 000e 7B68     		ldr	r3, [r7, #4]
 1712 0010 1B78     		ldrb	r3, [r3]
 1713 0012 1A00     		movs	r2, r3
 1714 0014 0123     		movs	r3, #1
 1715 0016 1340     		ands	r3, r2
 1716 0018 01D0     		beq	.L140
 1717 001a 0023     		movs	r3, #0
 1718 001c 26E0     		b	.L141
 1719              	.L140:
 1720 001e 7B68     		ldr	r3, [r7, #4]
 1721 0020 1B78     		ldrb	r3, [r3]
 1722 0022 1A00     		movs	r2, r3
 1723 0024 0223     		movs	r3, #2
 1724 0026 1340     		ands	r3, r2
 1725 0028 07D0     		beq	.L142
 1726 002a FB1C     		adds	r3, r7, #3
 1727 002c 1B78     		ldrb	r3, [r3]
 1728 002e 022B     		cmp	r3, #2
 1729 0030 01D1     		bne	.L143
 1730 0032 8523     		movs	r3, #133
 1731 0034 1AE0     		b	.L141
 1732              	.L143:
 1733 0036 0023     		movs	r3, #0
 1734 0038 18E0     		b	.L141
 1735              	.L142:
 1736 003a FB1C     		adds	r3, r7, #3
 1737 003c 1B78     		ldrb	r3, [r3]
 1738 003e 002B     		cmp	r3, #0
 1739 0040 03D0     		beq	.L144
 1740 0042 FB1C     		adds	r3, r7, #3
 1741 0044 1B78     		ldrb	r3, [r3]
 1742 0046 042B     		cmp	r3, #4
 1743 0048 01D1     		bne	.L145
 1744              	.L144:
 1745 004a 0023     		movs	r3, #0
ARM GAS  C:\Users\SONG_J~1\AppData\Local\Temp\cciPqbql.s 			page 31


 1746 004c 0EE0     		b	.L141
 1747              	.L145:
 1748 004e FB1C     		adds	r3, r7, #3
 1749 0050 1B78     		ldrb	r3, [r3]
 1750 0052 002B     		cmp	r3, #0
 1751 0054 07D0     		beq	.L146
 1752 0056 FB1C     		adds	r3, r7, #3
 1753 0058 1B78     		ldrb	r3, [r3]
 1754 005a 002B     		cmp	r3, #0
 1755 005c 03D0     		beq	.L146
 1756 005e FB1C     		adds	r3, r7, #3
 1757 0060 1B78     		ldrb	r3, [r3]
 1758 0062 002B     		cmp	r3, #0
 1759 0064 01D1     		bne	.L147
 1760              	.L146:
 1761 0066 0023     		movs	r3, #0
 1762 0068 00E0     		b	.L141
 1763              	.L147:
 1764 006a 8523     		movs	r3, #133
 1765              	.L141:
 1766 006c 1800     		movs	r0, r3
 1767 006e BD46     		mov	sp, r7
 1768 0070 02B0     		add	sp, sp, #8
 1769              		@ sp needed
 1770 0072 80BD     		pop	{r7, pc}
 1772              		.section	.text.prv_get_srv_cnt,"ax",%progbits
 1773              		.align	1
 1774              		.syntax unified
 1775              		.code	16
 1776              		.thumb_func
 1777              		.fpu softvfp
 1779              	prv_get_srv_cnt:
 1780              		@ args = 0, pretend = 0, frame = 16
 1781              		@ frame_needed = 1, uses_anonymous_args = 0
 1782 0000 80B5     		push	{r7, lr}
 1783 0002 84B0     		sub	sp, sp, #16
 1784 0004 00AF     		add	r7, sp, #0
 1785 0006 7860     		str	r0, [r7, #4]
 1786 0008 7B68     		ldr	r3, [r7, #4]
 1787 000a FB60     		str	r3, [r7, #12]
 1788 000c 0023     		movs	r3, #0
 1789 000e BB60     		str	r3, [r7, #8]
 1790 0010 0DE0     		b	.L149
 1791              	.L151:
 1792 0012 FB68     		ldr	r3, [r7, #12]
 1793 0014 2822     		movs	r2, #40
 1794 0016 9B5C     		ldrb	r3, [r3, r2]
 1795 0018 0122     		movs	r2, #1
 1796 001a 5340     		eors	r3, r2
 1797 001c DBB2     		uxtb	r3, r3
 1798 001e 002B     		cmp	r3, #0
 1799 0020 02D0     		beq	.L150
 1800 0022 BB68     		ldr	r3, [r7, #8]
 1801 0024 0133     		adds	r3, r3, #1
 1802 0026 BB60     		str	r3, [r7, #8]
 1803              	.L150:
 1804 0028 FB68     		ldr	r3, [r7, #12]
ARM GAS  C:\Users\SONG_J~1\AppData\Local\Temp\cciPqbql.s 			page 32


 1805 002a 1B68     		ldr	r3, [r3]
 1806 002c FB60     		str	r3, [r7, #12]
 1807              	.L149:
 1808 002e FB68     		ldr	r3, [r7, #12]
 1809 0030 002B     		cmp	r3, #0
 1810 0032 EED1     		bne	.L151
 1811 0034 BB68     		ldr	r3, [r7, #8]
 1812 0036 1800     		movs	r0, r3
 1813 0038 BD46     		mov	sp, r7
 1814 003a 04B0     		add	sp, sp, #16
 1815              		@ sp needed
 1816 003c 80BD     		pop	{r7, pc}
 1818              		.section	.text.acc_auth_operate,"ax",%progbits
 1819              		.align	1
 1820              		.global	acc_auth_operate
 1821              		.syntax unified
 1822              		.code	16
 1823              		.thumb_func
 1824              		.fpu softvfp
 1826              	acc_auth_operate:
 1827              		@ args = 0, pretend = 0, frame = 32
 1828              		@ frame_needed = 1, uses_anonymous_args = 0
 1829 0000 F0B5     		push	{r4, r5, r6, r7, lr}
 1830 0002 89B0     		sub	sp, sp, #36
 1831 0004 00AF     		add	r7, sp, #0
 1832 0006 F860     		str	r0, [r7, #12]
 1833 0008 B960     		str	r1, [r7, #8]
 1834 000a 1900     		movs	r1, r3
 1835 000c FB1D     		adds	r3, r7, #7
 1836 000e 1A70     		strb	r2, [r3]
 1837 0010 3B1D     		adds	r3, r7, #4
 1838 0012 0A1C     		adds	r2, r1, #0
 1839 0014 1A80     		strh	r2, [r3]
 1840 0016 FB68     		ldr	r3, [r7, #12]
 1841 0018 5B69     		ldr	r3, [r3, #20]
 1842 001a 1800     		movs	r0, r3
 1843 001c FFF7FEFF 		bl	prv_get_srv_cnt
 1844 0020 0300     		movs	r3, r0
 1845 0022 012B     		cmp	r3, #1
 1846 0024 01DC     		bgt	.L154
 1847 0026 0023     		movs	r3, #0
 1848 0028 43E0     		b	.L155
 1849              	.L154:
 1850 002a 3B1D     		adds	r3, r7, #4
 1851 002c 1B88     		ldrh	r3, [r3]
 1852 002e 002B     		cmp	r3, #0
 1853 0030 01D1     		bne	.L156
 1854 0032 0023     		movs	r3, #0
 1855 0034 3DE0     		b	.L155
 1856              	.L156:
 1857 0036 FB68     		ldr	r3, [r7, #12]
 1858 0038 9B69     		ldr	r3, [r3, #24]
 1859 003a 0221     		movs	r1, #2
 1860 003c 1800     		movs	r0, r3
 1861 003e FFF7FEFF 		bl	lwm2m_list_find
 1862 0042 0300     		movs	r3, r0
 1863 0044 FB61     		str	r3, [r7, #28]
ARM GAS  C:\Users\SONG_J~1\AppData\Local\Temp\cciPqbql.s 			page 33


 1864 0046 FB69     		ldr	r3, [r7, #28]
 1865 0048 002B     		cmp	r3, #0
 1866 004a 01D1     		bne	.L157
 1867 004c 8123     		movs	r3, #129
 1868 004e 30E0     		b	.L155
 1869              	.L157:
 1870 0050 FB69     		ldr	r3, [r7, #28]
 1871 0052 9B68     		ldr	r3, [r3, #8]
 1872 0054 BB61     		str	r3, [r7, #24]
 1873 0056 BB69     		ldr	r3, [r7, #24]
 1874 0058 002B     		cmp	r3, #0
 1875 005a 01D1     		bne	.L158
 1876 005c 8123     		movs	r3, #129
 1877 005e 28E0     		b	.L155
 1878              	.L158:
 1879 0060 1726     		movs	r6, #23
 1880 0062 BC19     		adds	r4, r7, r6
 1881 0064 3B1D     		adds	r3, r7, #4
 1882 0066 1D88     		ldrh	r5, [r3]
 1883 0068 FB1D     		adds	r3, r7, #7
 1884 006a 1A78     		ldrb	r2, [r3]
 1885 006c B968     		ldr	r1, [r7, #8]
 1886 006e B869     		ldr	r0, [r7, #24]
 1887 0070 2B00     		movs	r3, r5
 1888 0072 FFF7FEFF 		bl	prv_pre_auth_check
 1889 0076 0300     		movs	r3, r0
 1890 0078 2370     		strb	r3, [r4]
 1891 007a BB19     		adds	r3, r7, r6
 1892 007c 1B78     		ldrb	r3, [r3]
 1893 007e 002B     		cmp	r3, #0
 1894 0080 03D0     		beq	.L159
 1895 0082 1723     		movs	r3, #23
 1896 0084 FB18     		adds	r3, r7, r3
 1897 0086 1B78     		ldrb	r3, [r3]
 1898 0088 13E0     		b	.L155
 1899              	.L159:
 1900 008a 1725     		movs	r5, #23
 1901 008c 7C19     		adds	r4, r7, r5
 1902 008e FB1D     		adds	r3, r7, #7
 1903 0090 1A78     		ldrb	r2, [r3]
 1904 0092 BB68     		ldr	r3, [r7, #8]
 1905 0094 1100     		movs	r1, r2
 1906 0096 1800     		movs	r0, r3
 1907 0098 FFF7FEFF 		bl	prv_post_action_check
 1908 009c 0300     		movs	r3, r0
 1909 009e 2370     		strb	r3, [r4]
 1910 00a0 7B19     		adds	r3, r7, r5
 1911 00a2 1B78     		ldrb	r3, [r3]
 1912 00a4 002B     		cmp	r3, #0
 1913 00a6 03D0     		beq	.L160
 1914 00a8 1723     		movs	r3, #23
 1915 00aa FB18     		adds	r3, r7, r3
 1916 00ac 1B78     		ldrb	r3, [r3]
 1917 00ae 00E0     		b	.L155
 1918              	.L160:
 1919 00b0 0023     		movs	r3, #0
 1920              	.L155:
ARM GAS  C:\Users\SONG_J~1\AppData\Local\Temp\cciPqbql.s 			page 34


 1921 00b2 1800     		movs	r0, r3
 1922 00b4 BD46     		mov	sp, r7
 1923 00b6 09B0     		add	sp, sp, #36
 1924              		@ sp needed
 1925 00b8 F0BD     		pop	{r4, r5, r6, r7, pc}
 1927              		.ident	"GCC: (GNU Tools for Arm Embedded Processors 7-2017-q4-major) 7.2.1 20170904 (release) [ARM
ARM GAS  C:\Users\SONG_J~1\AppData\Local\Temp\cciPqbql.s 			page 35

