ARM GAS  C:\Users\SONG_J~1\AppData\Local\Temp\ccPyj9I7.s 			page 1


   1              		.cpu cortex-m0
   2              		.eabi_attribute 20, 1
   3              		.eabi_attribute 21, 1
   4              		.eabi_attribute 23, 3
   5              		.eabi_attribute 24, 1
   6              		.eabi_attribute 25, 1
   7              		.eabi_attribute 26, 1
   8              		.eabi_attribute 30, 6
   9              		.eabi_attribute 34, 0
  10              		.eabi_attribute 18, 4
  11              		.file	"objects.c"
  12              		.section	.rodata
  13              		.align	2
  14              	.LC1:
  15 0000 5B25733A 		.ascii	"[%s:%d] NULL\015\012\000"
  15      25645D20 
  15      4E554C4C 
  15      0D0A00
  16 000f 00       		.align	2
  17              	.LC3:
  18 0010 5B25733A 		.ascii	"[%s:%d] /%d\000"
  18      25645D20 
  18      2F256400 
  19              		.align	2
  20              	.LC5:
  21 001c 2F256400 		.ascii	"/%d\000"
  22              		.align	2
  23              	.LC7:
  24 0020 0D0A00   		.ascii	"\015\012\000"
  25              		.section	.text.object_checkReadable,"ax",%progbits
  26              		.align	1
  27              		.global	object_checkReadable
  28              		.syntax unified
  29              		.code	16
  30              		.thumb_func
  31              		.fpu softvfp
  33              	object_checkReadable:
  34              		@ args = 0, pretend = 0, frame = 24
  35              		@ frame_needed = 1, uses_anonymous_args = 0
  36 0000 F0B5     		push	{r4, r5, r6, r7, lr}
  37 0002 89B0     		sub	sp, sp, #36
  38 0004 02AF     		add	r7, sp, #8
  39 0006 7860     		str	r0, [r7, #4]
  40 0008 3960     		str	r1, [r7]
  41 000a 0023     		movs	r3, #0
  42 000c FB60     		str	r3, [r7, #12]
  43 000e 3B68     		ldr	r3, [r7]
  44 0010 002B     		cmp	r3, #0
  45 0012 06D1     		bne	.L2
  46 0014 4449     		ldr	r1, .L14
  47 0016 454B     		ldr	r3, .L14+4
  48 0018 6922     		movs	r2, #105
  49 001a 1800     		movs	r0, r3
  50 001c FFF7FEFF 		bl	atiny_printf
  51 0020 26E0     		b	.L3
  52              	.L2:
  53 0022 3B68     		ldr	r3, [r7]
ARM GAS  C:\Users\SONG_J~1\AppData\Local\Temp\ccPyj9I7.s 			page 2


  54 0024 5B88     		ldrh	r3, [r3, #2]
  55 0026 4049     		ldr	r1, .L14
  56 0028 4148     		ldr	r0, .L14+8
  57 002a 6922     		movs	r2, #105
  58 002c FFF7FEFF 		bl	atiny_printf
  59 0030 3B68     		ldr	r3, [r7]
  60 0032 1B78     		ldrb	r3, [r3]
  61 0034 1A00     		movs	r2, r3
  62 0036 0223     		movs	r3, #2
  63 0038 1340     		ands	r3, r2
  64 003a 07D0     		beq	.L4
  65 003c 3B68     		ldr	r3, [r7]
  66 003e 9B88     		ldrh	r3, [r3, #4]
  67 0040 1A00     		movs	r2, r3
  68 0042 3C4B     		ldr	r3, .L14+12
  69 0044 1100     		movs	r1, r2
  70 0046 1800     		movs	r0, r3
  71 0048 FFF7FEFF 		bl	atiny_printf
  72              	.L4:
  73 004c 3B68     		ldr	r3, [r7]
  74 004e 1B78     		ldrb	r3, [r3]
  75 0050 1A00     		movs	r2, r3
  76 0052 0123     		movs	r3, #1
  77 0054 1340     		ands	r3, r2
  78 0056 07D0     		beq	.L5
  79 0058 3B68     		ldr	r3, [r7]
  80 005a DB88     		ldrh	r3, [r3, #6]
  81 005c 1A00     		movs	r2, r3
  82 005e 354B     		ldr	r3, .L14+12
  83 0060 1100     		movs	r1, r2
  84 0062 1800     		movs	r0, r3
  85 0064 FFF7FEFF 		bl	atiny_printf
  86              	.L5:
  87 0068 334B     		ldr	r3, .L14+16
  88 006a 1800     		movs	r0, r3
  89 006c FFF7FEFF 		bl	atiny_printf
  90              	.L3:
  91 0070 7B68     		ldr	r3, [r7, #4]
  92 0072 9A69     		ldr	r2, [r3, #24]
  93 0074 3B68     		ldr	r3, [r7]
  94 0076 5B88     		ldrh	r3, [r3, #2]
  95 0078 1900     		movs	r1, r3
  96 007a 1000     		movs	r0, r2
  97 007c FFF7FEFF 		bl	lwm2m_list_find
  98 0080 0300     		movs	r3, r0
  99 0082 7B61     		str	r3, [r7, #20]
 100 0084 7B69     		ldr	r3, [r7, #20]
 101 0086 002B     		cmp	r3, #0
 102 0088 01D1     		bne	.L6
 103 008a 8423     		movs	r3, #132
 104 008c 48E0     		b	.L13
 105              	.L6:
 106 008e 7B69     		ldr	r3, [r7, #20]
 107 0090 DB68     		ldr	r3, [r3, #12]
 108 0092 002B     		cmp	r3, #0
 109 0094 01D1     		bne	.L8
 110 0096 8523     		movs	r3, #133
ARM GAS  C:\Users\SONG_J~1\AppData\Local\Temp\ccPyj9I7.s 			page 3


 111 0098 42E0     		b	.L13
 112              	.L8:
 113 009a 3B68     		ldr	r3, [r7]
 114 009c 1B78     		ldrb	r3, [r3]
 115 009e 1A00     		movs	r2, r3
 116 00a0 0223     		movs	r3, #2
 117 00a2 1340     		ands	r3, r2
 118 00a4 01D1     		bne	.L9
 119 00a6 4523     		movs	r3, #69
 120 00a8 3AE0     		b	.L13
 121              	.L9:
 122 00aa 7B69     		ldr	r3, [r7, #20]
 123 00ac 9A68     		ldr	r2, [r3, #8]
 124 00ae 3B68     		ldr	r3, [r7]
 125 00b0 9B88     		ldrh	r3, [r3, #4]
 126 00b2 1900     		movs	r1, r3
 127 00b4 1000     		movs	r0, r2
 128 00b6 FFF7FEFF 		bl	lwm2m_list_find
 129 00ba 031E     		subs	r3, r0, #0
 130 00bc 01D1     		bne	.L10
 131 00be 8423     		movs	r3, #132
 132 00c0 2EE0     		b	.L13
 133              	.L10:
 134 00c2 3B68     		ldr	r3, [r7]
 135 00c4 1B78     		ldrb	r3, [r3]
 136 00c6 1A00     		movs	r2, r3
 137 00c8 0123     		movs	r3, #1
 138 00ca 1340     		ands	r3, r2
 139 00cc 01D1     		bne	.L11
 140 00ce 4523     		movs	r3, #69
 141 00d0 26E0     		b	.L13
 142              	.L11:
 143 00d2 0123     		movs	r3, #1
 144 00d4 BB60     		str	r3, [r7, #8]
 145 00d6 0120     		movs	r0, #1
 146 00d8 FFF7FEFF 		bl	lwm2m_data_new
 147 00dc 0300     		movs	r3, r0
 148 00de FB60     		str	r3, [r7, #12]
 149 00e0 FB68     		ldr	r3, [r7, #12]
 150 00e2 002B     		cmp	r3, #0
 151 00e4 01D1     		bne	.L12
 152 00e6 A023     		movs	r3, #160
 153 00e8 1AE0     		b	.L13
 154              	.L12:
 155 00ea FB68     		ldr	r3, [r7, #12]
 156 00ec 3A68     		ldr	r2, [r7]
 157 00ee D288     		ldrh	r2, [r2, #6]
 158 00f0 5A80     		strh	r2, [r3, #2]
 159 00f2 7B69     		ldr	r3, [r7, #20]
 160 00f4 DD68     		ldr	r5, [r3, #12]
 161 00f6 3B68     		ldr	r3, [r7]
 162 00f8 9888     		ldrh	r0, [r3, #4]
 163 00fa 1326     		movs	r6, #19
 164 00fc BC19     		adds	r4, r7, r6
 165 00fe 0C23     		movs	r3, #12
 166 0100 FA18     		adds	r2, r7, r3
 167 0102 0823     		movs	r3, #8
ARM GAS  C:\Users\SONG_J~1\AppData\Local\Temp\ccPyj9I7.s 			page 4


 168 0104 F918     		adds	r1, r7, r3
 169 0106 7B69     		ldr	r3, [r7, #20]
 170 0108 0093     		str	r3, [sp]
 171 010a 0023     		movs	r3, #0
 172 010c A847     		blx	r5
 173 010e 0300     		movs	r3, r0
 174 0110 2370     		strb	r3, [r4]
 175 0112 FB68     		ldr	r3, [r7, #12]
 176 0114 1900     		movs	r1, r3
 177 0116 0120     		movs	r0, #1
 178 0118 FFF7FEFF 		bl	lwm2m_data_free
 179 011c BB19     		adds	r3, r7, r6
 180 011e 1B78     		ldrb	r3, [r3]
 181              	.L13:
 182 0120 1800     		movs	r0, r3
 183 0122 BD46     		mov	sp, r7
 184 0124 07B0     		add	sp, sp, #28
 185              		@ sp needed
 186 0126 F0BD     		pop	{r4, r5, r6, r7, pc}
 187              	.L15:
 188              		.align	2
 189              	.L14:
 190 0128 00000000 		.word	__func__.7447
 191 012c 00000000 		.word	.LC1
 192 0130 10000000 		.word	.LC3
 193 0134 1C000000 		.word	.LC5
 194 0138 20000000 		.word	.LC7
 196              		.section	.text.object_checkNumeric,"ax",%progbits
 197              		.align	1
 198              		.global	object_checkNumeric
 199              		.syntax unified
 200              		.code	16
 201              		.thumb_func
 202              		.fpu softvfp
 204              	object_checkNumeric:
 205              		@ args = 0, pretend = 0, frame = 24
 206              		@ frame_needed = 1, uses_anonymous_args = 0
 207 0000 F0B5     		push	{r4, r5, r6, r7, lr}
 208 0002 89B0     		sub	sp, sp, #36
 209 0004 02AF     		add	r7, sp, #8
 210 0006 7860     		str	r0, [r7, #4]
 211 0008 3960     		str	r1, [r7]
 212 000a 0023     		movs	r3, #0
 213 000c FB60     		str	r3, [r7, #12]
 214 000e 3B68     		ldr	r3, [r7]
 215 0010 002B     		cmp	r3, #0
 216 0012 06D1     		bne	.L17
 217 0014 4349     		ldr	r1, .L32
 218 0016 444B     		ldr	r3, .L32+4
 219 0018 8822     		movs	r2, #136
 220 001a 1800     		movs	r0, r3
 221 001c FFF7FEFF 		bl	atiny_printf
 222 0020 26E0     		b	.L18
 223              	.L17:
 224 0022 3B68     		ldr	r3, [r7]
 225 0024 5B88     		ldrh	r3, [r3, #2]
 226 0026 3F49     		ldr	r1, .L32
ARM GAS  C:\Users\SONG_J~1\AppData\Local\Temp\ccPyj9I7.s 			page 5


 227 0028 4048     		ldr	r0, .L32+8
 228 002a 8822     		movs	r2, #136
 229 002c FFF7FEFF 		bl	atiny_printf
 230 0030 3B68     		ldr	r3, [r7]
 231 0032 1B78     		ldrb	r3, [r3]
 232 0034 1A00     		movs	r2, r3
 233 0036 0223     		movs	r3, #2
 234 0038 1340     		ands	r3, r2
 235 003a 07D0     		beq	.L19
 236 003c 3B68     		ldr	r3, [r7]
 237 003e 9B88     		ldrh	r3, [r3, #4]
 238 0040 1A00     		movs	r2, r3
 239 0042 3B4B     		ldr	r3, .L32+12
 240 0044 1100     		movs	r1, r2
 241 0046 1800     		movs	r0, r3
 242 0048 FFF7FEFF 		bl	atiny_printf
 243              	.L19:
 244 004c 3B68     		ldr	r3, [r7]
 245 004e 1B78     		ldrb	r3, [r3]
 246 0050 1A00     		movs	r2, r3
 247 0052 0123     		movs	r3, #1
 248 0054 1340     		ands	r3, r2
 249 0056 07D0     		beq	.L20
 250 0058 3B68     		ldr	r3, [r7]
 251 005a DB88     		ldrh	r3, [r3, #6]
 252 005c 1A00     		movs	r2, r3
 253 005e 344B     		ldr	r3, .L32+12
 254 0060 1100     		movs	r1, r2
 255 0062 1800     		movs	r0, r3
 256 0064 FFF7FEFF 		bl	atiny_printf
 257              	.L20:
 258 0068 324B     		ldr	r3, .L32+16
 259 006a 1800     		movs	r0, r3
 260 006c FFF7FEFF 		bl	atiny_printf
 261              	.L18:
 262 0070 3B68     		ldr	r3, [r7]
 263 0072 1B78     		ldrb	r3, [r3]
 264 0074 1A00     		movs	r2, r3
 265 0076 0123     		movs	r3, #1
 266 0078 1340     		ands	r3, r2
 267 007a 01D1     		bne	.L21
 268 007c 8523     		movs	r3, #133
 269 007e 4DE0     		b	.L29
 270              	.L21:
 271 0080 7B68     		ldr	r3, [r7, #4]
 272 0082 9A69     		ldr	r2, [r3, #24]
 273 0084 3B68     		ldr	r3, [r7]
 274 0086 5B88     		ldrh	r3, [r3, #2]
 275 0088 1900     		movs	r1, r3
 276 008a 1000     		movs	r0, r2
 277 008c FFF7FEFF 		bl	lwm2m_list_find
 278 0090 0300     		movs	r3, r0
 279 0092 3B61     		str	r3, [r7, #16]
 280 0094 3B69     		ldr	r3, [r7, #16]
 281 0096 002B     		cmp	r3, #0
 282 0098 01D1     		bne	.L23
 283 009a 8423     		movs	r3, #132
ARM GAS  C:\Users\SONG_J~1\AppData\Local\Temp\ccPyj9I7.s 			page 6


 284 009c 3EE0     		b	.L29
 285              	.L23:
 286 009e 3B69     		ldr	r3, [r7, #16]
 287 00a0 DB68     		ldr	r3, [r3, #12]
 288 00a2 002B     		cmp	r3, #0
 289 00a4 01D1     		bne	.L24
 290 00a6 8523     		movs	r3, #133
 291 00a8 38E0     		b	.L29
 292              	.L24:
 293 00aa 0123     		movs	r3, #1
 294 00ac BB60     		str	r3, [r7, #8]
 295 00ae 0120     		movs	r0, #1
 296 00b0 FFF7FEFF 		bl	lwm2m_data_new
 297 00b4 0300     		movs	r3, r0
 298 00b6 FB60     		str	r3, [r7, #12]
 299 00b8 FB68     		ldr	r3, [r7, #12]
 300 00ba 002B     		cmp	r3, #0
 301 00bc 01D1     		bne	.L25
 302 00be A023     		movs	r3, #160
 303 00c0 2CE0     		b	.L29
 304              	.L25:
 305 00c2 FB68     		ldr	r3, [r7, #12]
 306 00c4 3A68     		ldr	r2, [r7]
 307 00c6 D288     		ldrh	r2, [r2, #6]
 308 00c8 5A80     		strh	r2, [r3, #2]
 309 00ca 3B69     		ldr	r3, [r7, #16]
 310 00cc DD68     		ldr	r5, [r3, #12]
 311 00ce 3B68     		ldr	r3, [r7]
 312 00d0 9888     		ldrh	r0, [r3, #4]
 313 00d2 1726     		movs	r6, #23
 314 00d4 BC19     		adds	r4, r7, r6
 315 00d6 0C23     		movs	r3, #12
 316 00d8 FA18     		adds	r2, r7, r3
 317 00da 0823     		movs	r3, #8
 318 00dc F918     		adds	r1, r7, r3
 319 00de 3B69     		ldr	r3, [r7, #16]
 320 00e0 0093     		str	r3, [sp]
 321 00e2 0023     		movs	r3, #0
 322 00e4 A847     		blx	r5
 323 00e6 0300     		movs	r3, r0
 324 00e8 2370     		strb	r3, [r4]
 325 00ea BB19     		adds	r3, r7, r6
 326 00ec 1B78     		ldrb	r3, [r3]
 327 00ee 452B     		cmp	r3, #69
 328 00f0 09D1     		bne	.L30
 329 00f2 FB68     		ldr	r3, [r7, #12]
 330 00f4 1B78     		ldrb	r3, [r3]
 331 00f6 063B     		subs	r3, r3, #6
 332 00f8 012B     		cmp	r3, #1
 333 00fa 06D9     		bls	.L31
 334 00fc 1723     		movs	r3, #23
 335 00fe FB18     		adds	r3, r7, r3
 336 0100 8522     		movs	r2, #133
 337 0102 1A70     		strb	r2, [r3]
 338 0104 02E0     		b	.L26
 339              	.L30:
 340 0106 C046     		nop
ARM GAS  C:\Users\SONG_J~1\AppData\Local\Temp\ccPyj9I7.s 			page 7


 341 0108 00E0     		b	.L26
 342              	.L31:
 343 010a C046     		nop
 344              	.L26:
 345 010c FB68     		ldr	r3, [r7, #12]
 346 010e 1900     		movs	r1, r3
 347 0110 0120     		movs	r0, #1
 348 0112 FFF7FEFF 		bl	lwm2m_data_free
 349 0116 1723     		movs	r3, #23
 350 0118 FB18     		adds	r3, r7, r3
 351 011a 1B78     		ldrb	r3, [r3]
 352              	.L29:
 353 011c 1800     		movs	r0, r3
 354 011e BD46     		mov	sp, r7
 355 0120 07B0     		add	sp, sp, #28
 356              		@ sp needed
 357 0122 F0BD     		pop	{r4, r5, r6, r7, pc}
 358              	.L33:
 359              		.align	2
 360              	.L32:
 361 0124 00000000 		.word	__func__.7456
 362 0128 00000000 		.word	.LC1
 363 012c 10000000 		.word	.LC3
 364 0130 1C000000 		.word	.LC5
 365 0134 20000000 		.word	.LC7
 367              		.section	.text.prv_init_forbidden,"ax",%progbits
 368              		.align	1
 369              		.syntax unified
 370              		.code	16
 371              		.thumb_func
 372              		.fpu softvfp
 374              	prv_init_forbidden:
 375              		@ args = 8, pretend = 0, frame = 32
 376              		@ frame_needed = 1, uses_anonymous_args = 0
 377 0000 80B5     		push	{r7, lr}
 378 0002 88B0     		sub	sp, sp, #32
 379 0004 00AF     		add	r7, sp, #0
 380 0006 F860     		str	r0, [r7, #12]
 381 0008 B960     		str	r1, [r7, #8]
 382 000a 1900     		movs	r1, r3
 383 000c BB1D     		adds	r3, r7, #6
 384 000e 1A80     		strh	r2, [r3]
 385 0010 3B1D     		adds	r3, r7, #4
 386 0012 0A1C     		adds	r2, r1, #0
 387 0014 1A80     		strh	r2, [r3]
 388 0016 1021     		movs	r1, #16
 389 0018 7B18     		adds	r3, r7, r1
 390 001a 0222     		movs	r2, #2
 391 001c 1A70     		strb	r2, [r3]
 392 001e 7B18     		adds	r3, r7, r1
 393 0020 BA1D     		adds	r2, r7, #6
 394 0022 1288     		ldrh	r2, [r2]
 395 0024 5A80     		strh	r2, [r3, #2]
 396 0026 0023     		movs	r3, #0
 397 0028 BB61     		str	r3, [r7, #24]
 398 002a BB6A     		ldr	r3, [r7, #40]
 399 002c 1B68     		ldr	r3, [r3]
ARM GAS  C:\Users\SONG_J~1\AppData\Local\Temp\ccPyj9I7.s 			page 8


 400 002e 1800     		movs	r0, r3
 401 0030 FFF7FEFF 		bl	lwm2m_malloc
 402 0034 0200     		movs	r2, r0
 403 0036 FB6A     		ldr	r3, [r7, #44]
 404 0038 1A60     		str	r2, [r3]
 405 003a FB6A     		ldr	r3, [r7, #44]
 406 003c 1B68     		ldr	r3, [r3]
 407 003e 002B     		cmp	r3, #0
 408 0040 01D1     		bne	.L35
 409 0042 A023     		movs	r3, #160
 410 0044 39E0     		b	.L41
 411              	.L35:
 412 0046 FB6A     		ldr	r3, [r7, #44]
 413 0048 1868     		ldr	r0, [r3]
 414 004a BB6A     		ldr	r3, [r7, #40]
 415 004c 1B68     		ldr	r3, [r3]
 416 004e 1A00     		movs	r2, r3
 417 0050 0021     		movs	r1, #0
 418 0052 FFF7FEFF 		bl	memset
 419 0056 BB68     		ldr	r3, [r7, #8]
 420 0058 9B68     		ldr	r3, [r3, #8]
 421 005a FB61     		str	r3, [r7, #28]
 422 005c 1EE0     		b	.L37
 423              	.L39:
 424 005e FB69     		ldr	r3, [r7, #28]
 425 0060 9A88     		ldrh	r2, [r3, #4]
 426 0062 1021     		movs	r1, #16
 427 0064 7B18     		adds	r3, r7, r1
 428 0066 9A80     		strh	r2, [r3, #4]
 429 0068 3B1D     		adds	r3, r7, #4
 430 006a 1B88     		ldrh	r3, [r3]
 431 006c 7918     		adds	r1, r7, r1
 432 006e F868     		ldr	r0, [r7, #12]
 433 0070 0022     		movs	r2, #0
 434 0072 FFF7FEFF 		bl	acc_auth_operate
 435 0076 031E     		subs	r3, r0, #0
 436 0078 0AD0     		beq	.L38
 437 007a BB6A     		ldr	r3, [r7, #40]
 438 007c 1B68     		ldr	r3, [r3]
 439 007e 5A1E     		subs	r2, r3, #1
 440 0080 BB6A     		ldr	r3, [r7, #40]
 441 0082 1A60     		str	r2, [r3]
 442 0084 FB6A     		ldr	r3, [r7, #44]
 443 0086 1A68     		ldr	r2, [r3]
 444 0088 BB69     		ldr	r3, [r7, #24]
 445 008a D318     		adds	r3, r2, r3
 446 008c 0122     		movs	r2, #1
 447 008e 1A70     		strb	r2, [r3]
 448              	.L38:
 449 0090 BB69     		ldr	r3, [r7, #24]
 450 0092 0133     		adds	r3, r3, #1
 451 0094 BB61     		str	r3, [r7, #24]
 452 0096 FB69     		ldr	r3, [r7, #28]
 453 0098 1B68     		ldr	r3, [r3]
 454 009a FB61     		str	r3, [r7, #28]
 455              	.L37:
 456 009c FB69     		ldr	r3, [r7, #28]
ARM GAS  C:\Users\SONG_J~1\AppData\Local\Temp\ccPyj9I7.s 			page 9


 457 009e 002B     		cmp	r3, #0
 458 00a0 DDD1     		bne	.L39
 459 00a2 BB6A     		ldr	r3, [r7, #40]
 460 00a4 1B68     		ldr	r3, [r3]
 461 00a6 002B     		cmp	r3, #0
 462 00a8 06D1     		bne	.L40
 463 00aa FB6A     		ldr	r3, [r7, #44]
 464 00ac 1B68     		ldr	r3, [r3]
 465 00ae 1800     		movs	r0, r3
 466 00b0 FFF7FEFF 		bl	lwm2m_free
 467 00b4 A023     		movs	r3, #160
 468 00b6 00E0     		b	.L41
 469              	.L40:
 470 00b8 0023     		movs	r3, #0
 471              	.L41:
 472 00ba 1800     		movs	r0, r3
 473 00bc BD46     		mov	sp, r7
 474 00be 08B0     		add	sp, sp, #32
 475              		@ sp needed
 476 00c0 80BD     		pop	{r7, pc}
 478              		.section	.rodata
 479 0023 00       		.align	2
 480              	.LC19:
 481 0024 5B25733A 		.ascii	"[%s:%d] result: %u.%2u, size: %d\015\012\000"
 481      25645D20 
 481      72657375 
 481      6C743A20 
 481      25752E25 
 482              		.section	.text.object_readData,"ax",%progbits
 483              		.align	1
 484              		.global	object_readData
 485              		.syntax unified
 486              		.code	16
 487              		.thumb_func
 488              		.fpu softvfp
 490              	object_readData:
 491              		@ args = 8, pretend = 0, frame = 40
 492              		@ frame_needed = 1, uses_anonymous_args = 0
 493 0000 F0B5     		push	{r4, r5, r6, r7, lr}
 494 0002 8DB0     		sub	sp, sp, #52
 495 0004 02AF     		add	r7, sp, #8
 496 0006 F860     		str	r0, [r7, #12]
 497 0008 B960     		str	r1, [r7, #8]
 498 000a 7A60     		str	r2, [r7, #4]
 499 000c 3B60     		str	r3, [r7]
 500 000e BB68     		ldr	r3, [r7, #8]
 501 0010 002B     		cmp	r3, #0
 502 0012 06D1     		bne	.L43
 503 0014 9F49     		ldr	r1, .L67
 504 0016 A04B     		ldr	r3, .L67+4
 505 0018 DA22     		movs	r2, #218
 506 001a 1800     		movs	r0, r3
 507 001c FFF7FEFF 		bl	atiny_printf
 508 0020 26E0     		b	.L44
 509              	.L43:
 510 0022 BB68     		ldr	r3, [r7, #8]
 511 0024 5B88     		ldrh	r3, [r3, #2]
ARM GAS  C:\Users\SONG_J~1\AppData\Local\Temp\ccPyj9I7.s 			page 10


 512 0026 9B49     		ldr	r1, .L67
 513 0028 9C48     		ldr	r0, .L67+8
 514 002a DA22     		movs	r2, #218
 515 002c FFF7FEFF 		bl	atiny_printf
 516 0030 BB68     		ldr	r3, [r7, #8]
 517 0032 1B78     		ldrb	r3, [r3]
 518 0034 1A00     		movs	r2, r3
 519 0036 0223     		movs	r3, #2
 520 0038 1340     		ands	r3, r2
 521 003a 07D0     		beq	.L45
 522 003c BB68     		ldr	r3, [r7, #8]
 523 003e 9B88     		ldrh	r3, [r3, #4]
 524 0040 1A00     		movs	r2, r3
 525 0042 974B     		ldr	r3, .L67+12
 526 0044 1100     		movs	r1, r2
 527 0046 1800     		movs	r0, r3
 528 0048 FFF7FEFF 		bl	atiny_printf
 529              	.L45:
 530 004c BB68     		ldr	r3, [r7, #8]
 531 004e 1B78     		ldrb	r3, [r3]
 532 0050 1A00     		movs	r2, r3
 533 0052 0123     		movs	r3, #1
 534 0054 1340     		ands	r3, r2
 535 0056 07D0     		beq	.L46
 536 0058 BB68     		ldr	r3, [r7, #8]
 537 005a DB88     		ldrh	r3, [r3, #6]
 538 005c 1A00     		movs	r2, r3
 539 005e 904B     		ldr	r3, .L67+12
 540 0060 1100     		movs	r1, r2
 541 0062 1800     		movs	r0, r3
 542 0064 FFF7FEFF 		bl	atiny_printf
 543              	.L46:
 544 0068 8E4B     		ldr	r3, .L67+16
 545 006a 1800     		movs	r0, r3
 546 006c FFF7FEFF 		bl	atiny_printf
 547              	.L44:
 548 0070 FB68     		ldr	r3, [r7, #12]
 549 0072 9A69     		ldr	r2, [r3, #24]
 550 0074 BB68     		ldr	r3, [r7, #8]
 551 0076 5B88     		ldrh	r3, [r3, #2]
 552 0078 1900     		movs	r1, r3
 553 007a 1000     		movs	r0, r2
 554 007c FFF7FEFF 		bl	lwm2m_list_find
 555 0080 0300     		movs	r3, r0
 556 0082 7B61     		str	r3, [r7, #20]
 557 0084 7B69     		ldr	r3, [r7, #20]
 558 0086 002B     		cmp	r3, #0
 559 0088 01D1     		bne	.L47
 560 008a 8423     		movs	r3, #132
 561 008c FEE0     		b	.L48
 562              	.L47:
 563 008e 7B69     		ldr	r3, [r7, #20]
 564 0090 DB68     		ldr	r3, [r3, #12]
 565 0092 002B     		cmp	r3, #0
 566 0094 01D1     		bne	.L49
 567 0096 8523     		movs	r3, #133
 568 0098 F8E0     		b	.L48
ARM GAS  C:\Users\SONG_J~1\AppData\Local\Temp\ccPyj9I7.s 			page 11


 569              	.L49:
 570 009a BB68     		ldr	r3, [r7, #8]
 571 009c 1B78     		ldrb	r3, [r3]
 572 009e 1A00     		movs	r2, r3
 573 00a0 0223     		movs	r3, #2
 574 00a2 1340     		ands	r3, r2
 575 00a4 37D0     		beq	.L50
 576 00a6 7B69     		ldr	r3, [r7, #20]
 577 00a8 9A68     		ldr	r2, [r3, #8]
 578 00aa BB68     		ldr	r3, [r7, #8]
 579 00ac 9B88     		ldrh	r3, [r3, #4]
 580 00ae 1900     		movs	r1, r3
 581 00b0 1000     		movs	r0, r2
 582 00b2 FFF7FEFF 		bl	lwm2m_list_find
 583 00b6 031E     		subs	r3, r0, #0
 584 00b8 01D1     		bne	.L51
 585 00ba 8423     		movs	r3, #132
 586 00bc E6E0     		b	.L48
 587              	.L51:
 588 00be BB68     		ldr	r3, [r7, #8]
 589 00c0 1B78     		ldrb	r3, [r3]
 590 00c2 1A00     		movs	r2, r3
 591 00c4 0123     		movs	r3, #1
 592 00c6 1340     		ands	r3, r2
 593 00c8 15D0     		beq	.L52
 594 00ca 7B68     		ldr	r3, [r7, #4]
 595 00cc 0122     		movs	r2, #1
 596 00ce 1A60     		str	r2, [r3]
 597 00d0 7B68     		ldr	r3, [r7, #4]
 598 00d2 1B68     		ldr	r3, [r3]
 599 00d4 1800     		movs	r0, r3
 600 00d6 FFF7FEFF 		bl	lwm2m_data_new
 601 00da 0200     		movs	r2, r0
 602 00dc 3B68     		ldr	r3, [r7]
 603 00de 1A60     		str	r2, [r3]
 604 00e0 3B68     		ldr	r3, [r7]
 605 00e2 1B68     		ldr	r3, [r3]
 606 00e4 002B     		cmp	r3, #0
 607 00e6 01D1     		bne	.L53
 608 00e8 A023     		movs	r3, #160
 609 00ea CFE0     		b	.L48
 610              	.L53:
 611 00ec 3B68     		ldr	r3, [r7]
 612 00ee 1B68     		ldr	r3, [r3]
 613 00f0 BA68     		ldr	r2, [r7, #8]
 614 00f2 D288     		ldrh	r2, [r2, #6]
 615 00f4 5A80     		strh	r2, [r3, #2]
 616              	.L52:
 617 00f6 7B69     		ldr	r3, [r7, #20]
 618 00f8 DD68     		ldr	r5, [r3, #12]
 619 00fa BB68     		ldr	r3, [r7, #8]
 620 00fc 9888     		ldrh	r0, [r3, #4]
 621 00fe 2723     		movs	r3, #39
 622 0100 FC18     		adds	r4, r7, r3
 623 0102 3E6C     		ldr	r6, [r7, #64]
 624 0104 3A68     		ldr	r2, [r7]
 625 0106 7968     		ldr	r1, [r7, #4]
ARM GAS  C:\Users\SONG_J~1\AppData\Local\Temp\ccPyj9I7.s 			page 12


 626 0108 7B69     		ldr	r3, [r7, #20]
 627 010a 0093     		str	r3, [sp]
 628 010c 3300     		movs	r3, r6
 629 010e A847     		blx	r5
 630 0110 0300     		movs	r3, r0
 631 0112 2370     		strb	r3, [r4]
 632 0114 A2E0     		b	.L54
 633              	.L50:
 634 0116 0023     		movs	r3, #0
 635 0118 3B61     		str	r3, [r7, #16]
 636 011a 2723     		movs	r3, #39
 637 011c FB18     		adds	r3, r7, r3
 638 011e 4522     		movs	r2, #69
 639 0120 1A70     		strb	r2, [r3]
 640 0122 7B68     		ldr	r3, [r7, #4]
 641 0124 0022     		movs	r2, #0
 642 0126 1A60     		str	r2, [r3]
 643 0128 7B69     		ldr	r3, [r7, #20]
 644 012a 9B68     		ldr	r3, [r3, #8]
 645 012c 3B62     		str	r3, [r7, #32]
 646 012e 07E0     		b	.L55
 647              	.L56:
 648 0130 7B68     		ldr	r3, [r7, #4]
 649 0132 1B68     		ldr	r3, [r3]
 650 0134 5A1C     		adds	r2, r3, #1
 651 0136 7B68     		ldr	r3, [r7, #4]
 652 0138 1A60     		str	r2, [r3]
 653 013a 3B6A     		ldr	r3, [r7, #32]
 654 013c 1B68     		ldr	r3, [r3]
 655 013e 3B62     		str	r3, [r7, #32]
 656              	.L55:
 657 0140 3B6A     		ldr	r3, [r7, #32]
 658 0142 002B     		cmp	r3, #0
 659 0144 F4D1     		bne	.L56
 660 0146 7B68     		ldr	r3, [r7, #4]
 661 0148 1B68     		ldr	r3, [r3]
 662 014a 002B     		cmp	r3, #0
 663 014c 03D1     		bne	.L57
 664 014e 3B68     		ldr	r3, [r7]
 665 0150 0022     		movs	r2, #0
 666 0152 1A60     		str	r2, [r3]
 667 0154 7BE0     		b	.L58
 668              	.L57:
 669 0156 BB68     		ldr	r3, [r7, #8]
 670 0158 5A88     		ldrh	r2, [r3, #2]
 671 015a 2726     		movs	r6, #39
 672 015c BC19     		adds	r4, r7, r6
 673 015e 4423     		movs	r3, #68
 674 0160 FB18     		adds	r3, r7, r3
 675 0162 1D88     		ldrh	r5, [r3]
 676 0164 7969     		ldr	r1, [r7, #20]
 677 0166 F868     		ldr	r0, [r7, #12]
 678 0168 1023     		movs	r3, #16
 679 016a FB18     		adds	r3, r7, r3
 680 016c 0193     		str	r3, [sp, #4]
 681 016e 7B68     		ldr	r3, [r7, #4]
 682 0170 0093     		str	r3, [sp]
ARM GAS  C:\Users\SONG_J~1\AppData\Local\Temp\ccPyj9I7.s 			page 13


 683 0172 2B00     		movs	r3, r5
 684 0174 FFF7FEFF 		bl	prv_init_forbidden
 685 0178 0300     		movs	r3, r0
 686 017a 2370     		strb	r3, [r4]
 687 017c BB19     		adds	r3, r7, r6
 688 017e 1B78     		ldrb	r3, [r3]
 689 0180 002B     		cmp	r3, #0
 690 0182 06D0     		beq	.L59
 691 0184 3B68     		ldr	r3, [r7]
 692 0186 0022     		movs	r2, #0
 693 0188 1A60     		str	r2, [r3]
 694 018a 2723     		movs	r3, #39
 695 018c FB18     		adds	r3, r7, r3
 696 018e 1B78     		ldrb	r3, [r3]
 697 0190 7CE0     		b	.L48
 698              	.L59:
 699 0192 7B68     		ldr	r3, [r7, #4]
 700 0194 1B68     		ldr	r3, [r3]
 701 0196 1800     		movs	r0, r3
 702 0198 FFF7FEFF 		bl	lwm2m_data_new
 703 019c 0200     		movs	r2, r0
 704 019e 3B68     		ldr	r3, [r7]
 705 01a0 1A60     		str	r2, [r3]
 706 01a2 3B68     		ldr	r3, [r7]
 707 01a4 1B68     		ldr	r3, [r3]
 708 01a6 002B     		cmp	r3, #0
 709 01a8 08D1     		bne	.L61
 710 01aa 3B69     		ldr	r3, [r7, #16]
 711 01ac 002B     		cmp	r3, #0
 712 01ae 03D0     		beq	.L62
 713 01b0 3B69     		ldr	r3, [r7, #16]
 714 01b2 1800     		movs	r0, r3
 715 01b4 FFF7FEFF 		bl	lwm2m_free
 716              	.L62:
 717 01b8 A023     		movs	r3, #160
 718 01ba 67E0     		b	.L48
 719              	.L61:
 720 01bc 7B69     		ldr	r3, [r7, #20]
 721 01be 9B68     		ldr	r3, [r3, #8]
 722 01c0 3B62     		str	r3, [r7, #32]
 723 01c2 0023     		movs	r3, #0
 724 01c4 FB61     		str	r3, [r7, #28]
 725 01c6 0023     		movs	r3, #0
 726 01c8 BB61     		str	r3, [r7, #24]
 727 01ca 38E0     		b	.L63
 728              	.L65:
 729 01cc 3A69     		ldr	r2, [r7, #16]
 730 01ce FB69     		ldr	r3, [r7, #28]
 731 01d0 D318     		adds	r3, r2, r3
 732 01d2 1B78     		ldrb	r3, [r3]
 733 01d4 002B     		cmp	r3, #0
 734 01d6 2CD1     		bne	.L64
 735 01d8 7B69     		ldr	r3, [r7, #20]
 736 01da DD68     		ldr	r5, [r3, #12]
 737 01dc 3B6A     		ldr	r3, [r7, #32]
 738 01de 9888     		ldrh	r0, [r3, #4]
 739 01e0 3B68     		ldr	r3, [r7]
ARM GAS  C:\Users\SONG_J~1\AppData\Local\Temp\ccPyj9I7.s 			page 14


 740 01e2 1A68     		ldr	r2, [r3]
 741 01e4 BB69     		ldr	r3, [r7, #24]
 742 01e6 1B01     		lsls	r3, r3, #4
 743 01e8 D318     		adds	r3, r2, r3
 744 01ea 0833     		adds	r3, r3, #8
 745 01ec 1900     		movs	r1, r3
 746 01ee 3B68     		ldr	r3, [r7]
 747 01f0 1A68     		ldr	r2, [r3]
 748 01f2 BB69     		ldr	r3, [r7, #24]
 749 01f4 1B01     		lsls	r3, r3, #4
 750 01f6 D318     		adds	r3, r2, r3
 751 01f8 0C33     		adds	r3, r3, #12
 752 01fa 1A00     		movs	r2, r3
 753 01fc 2723     		movs	r3, #39
 754 01fe FC18     		adds	r4, r7, r3
 755 0200 3E6C     		ldr	r6, [r7, #64]
 756 0202 7B69     		ldr	r3, [r7, #20]
 757 0204 0093     		str	r3, [sp]
 758 0206 3300     		movs	r3, r6
 759 0208 A847     		blx	r5
 760 020a 0300     		movs	r3, r0
 761 020c 2370     		strb	r3, [r4]
 762 020e 3B68     		ldr	r3, [r7]
 763 0210 1A68     		ldr	r2, [r3]
 764 0212 BB69     		ldr	r3, [r7, #24]
 765 0214 1B01     		lsls	r3, r3, #4
 766 0216 D318     		adds	r3, r2, r3
 767 0218 0222     		movs	r2, #2
 768 021a 1A70     		strb	r2, [r3]
 769 021c 3B68     		ldr	r3, [r7]
 770 021e 1A68     		ldr	r2, [r3]
 771 0220 BB69     		ldr	r3, [r7, #24]
 772 0222 1B01     		lsls	r3, r3, #4
 773 0224 D318     		adds	r3, r2, r3
 774 0226 3A6A     		ldr	r2, [r7, #32]
 775 0228 9288     		ldrh	r2, [r2, #4]
 776 022a 5A80     		strh	r2, [r3, #2]
 777 022c BB69     		ldr	r3, [r7, #24]
 778 022e 0133     		adds	r3, r3, #1
 779 0230 BB61     		str	r3, [r7, #24]
 780              	.L64:
 781 0232 3B6A     		ldr	r3, [r7, #32]
 782 0234 1B68     		ldr	r3, [r3]
 783 0236 3B62     		str	r3, [r7, #32]
 784 0238 FB69     		ldr	r3, [r7, #28]
 785 023a 0133     		adds	r3, r3, #1
 786 023c FB61     		str	r3, [r7, #28]
 787              	.L63:
 788 023e 3B6A     		ldr	r3, [r7, #32]
 789 0240 002B     		cmp	r3, #0
 790 0242 04D0     		beq	.L58
 791 0244 2723     		movs	r3, #39
 792 0246 FB18     		adds	r3, r7, r3
 793 0248 1B78     		ldrb	r3, [r3]
 794 024a 452B     		cmp	r3, #69
 795 024c BED0     		beq	.L65
 796              	.L58:
ARM GAS  C:\Users\SONG_J~1\AppData\Local\Temp\ccPyj9I7.s 			page 15


 797 024e 3B69     		ldr	r3, [r7, #16]
 798 0250 002B     		cmp	r3, #0
 799 0252 03D0     		beq	.L54
 800 0254 3B69     		ldr	r3, [r7, #16]
 801 0256 1800     		movs	r0, r3
 802 0258 FFF7FEFF 		bl	lwm2m_free
 803              	.L54:
 804 025c 2726     		movs	r6, #39
 805 025e BB19     		adds	r3, r7, r6
 806 0260 1B78     		ldrb	r3, [r3]
 807 0262 5B09     		lsrs	r3, r3, #5
 808 0264 DBB2     		uxtb	r3, r3
 809 0266 1D00     		movs	r5, r3
 810 0268 BB19     		adds	r3, r7, r6
 811 026a 1B78     		ldrb	r3, [r3]
 812 026c 1F22     		movs	r2, #31
 813 026e 1A40     		ands	r2, r3
 814 0270 7B68     		ldr	r3, [r7, #4]
 815 0272 1B68     		ldr	r3, [r3]
 816 0274 9621     		movs	r1, #150
 817 0276 4C00     		lsls	r4, r1, #1
 818 0278 0649     		ldr	r1, .L67
 819 027a 0B48     		ldr	r0, .L67+20
 820 027c 0193     		str	r3, [sp, #4]
 821 027e 0092     		str	r2, [sp]
 822 0280 2B00     		movs	r3, r5
 823 0282 2200     		movs	r2, r4
 824 0284 FFF7FEFF 		bl	atiny_printf
 825 0288 BB19     		adds	r3, r7, r6
 826 028a 1B78     		ldrb	r3, [r3]
 827              	.L48:
 828 028c 1800     		movs	r0, r3
 829 028e BD46     		mov	sp, r7
 830 0290 0BB0     		add	sp, sp, #44
 831              		@ sp needed
 832 0292 F0BD     		pop	{r4, r5, r6, r7, pc}
 833              	.L68:
 834              		.align	2
 835              	.L67:
 836 0294 00000000 		.word	__func__.7485
 837 0298 00000000 		.word	.LC1
 838 029c 10000000 		.word	.LC3
 839 02a0 1C000000 		.word	.LC5
 840 02a4 20000000 		.word	.LC7
 841 02a8 24000000 		.word	.LC19
 843              		.section	.rodata
 844 0047 00       		.align	2
 845              	.LC26:
 846 0048 5B25733A 		.ascii	"[%s:%d] result: %u.%2u, length: %d\015\012\000"
 846      25645D20 
 846      72657375 
 846      6C743A20 
 846      25752E25 
 847              		.section	.text.object_read,"ax",%progbits
 848              		.align	1
 849              		.global	object_read
 850              		.syntax unified
ARM GAS  C:\Users\SONG_J~1\AppData\Local\Temp\ccPyj9I7.s 			page 16


 851              		.code	16
 852              		.thumb_func
 853              		.fpu softvfp
 855              	object_read:
 856              		@ args = 8, pretend = 0, frame = 32
 857              		@ frame_needed = 1, uses_anonymous_args = 0
 858 0000 F0B5     		push	{r4, r5, r6, r7, lr}
 859 0002 C646     		mov	lr, r8
 860 0004 00B5     		push	{lr}
 861 0006 8AB0     		sub	sp, sp, #40
 862 0008 02AF     		add	r7, sp, #8
 863 000a F860     		str	r0, [r7, #12]
 864 000c B960     		str	r1, [r7, #8]
 865 000e 7A60     		str	r2, [r7, #4]
 866 0010 3B60     		str	r3, [r7]
 867 0012 0023     		movs	r3, #0
 868 0014 7B61     		str	r3, [r7, #20]
 869 0016 0023     		movs	r3, #0
 870 0018 3B61     		str	r3, [r7, #16]
 871 001a BB68     		ldr	r3, [r7, #8]
 872 001c 002B     		cmp	r3, #0
 873 001e 08D1     		bne	.L70
 874 0020 3E23     		movs	r3, #62
 875 0022 FF33     		adds	r3, r3, #255
 876 0024 1A00     		movs	r2, r3
 877 0026 4349     		ldr	r1, .L77
 878 0028 434B     		ldr	r3, .L77+4
 879 002a 1800     		movs	r0, r3
 880 002c FFF7FEFF 		bl	atiny_printf
 881 0030 2AE0     		b	.L71
 882              	.L70:
 883 0032 BB68     		ldr	r3, [r7, #8]
 884 0034 5B88     		ldrh	r3, [r3, #2]
 885 0036 1C00     		movs	r4, r3
 886 0038 3E23     		movs	r3, #62
 887 003a FF33     		adds	r3, r3, #255
 888 003c 1A00     		movs	r2, r3
 889 003e 3D49     		ldr	r1, .L77
 890 0040 3E48     		ldr	r0, .L77+8
 891 0042 2300     		movs	r3, r4
 892 0044 FFF7FEFF 		bl	atiny_printf
 893 0048 BB68     		ldr	r3, [r7, #8]
 894 004a 1B78     		ldrb	r3, [r3]
 895 004c 1A00     		movs	r2, r3
 896 004e 0223     		movs	r3, #2
 897 0050 1340     		ands	r3, r2
 898 0052 07D0     		beq	.L72
 899 0054 BB68     		ldr	r3, [r7, #8]
 900 0056 9B88     		ldrh	r3, [r3, #4]
 901 0058 1A00     		movs	r2, r3
 902 005a 394B     		ldr	r3, .L77+12
 903 005c 1100     		movs	r1, r2
 904 005e 1800     		movs	r0, r3
 905 0060 FFF7FEFF 		bl	atiny_printf
 906              	.L72:
 907 0064 BB68     		ldr	r3, [r7, #8]
 908 0066 1B78     		ldrb	r3, [r3]
ARM GAS  C:\Users\SONG_J~1\AppData\Local\Temp\ccPyj9I7.s 			page 17


 909 0068 1A00     		movs	r2, r3
 910 006a 0123     		movs	r3, #1
 911 006c 1340     		ands	r3, r2
 912 006e 07D0     		beq	.L73
 913 0070 BB68     		ldr	r3, [r7, #8]
 914 0072 DB88     		ldrh	r3, [r3, #6]
 915 0074 1A00     		movs	r2, r3
 916 0076 324B     		ldr	r3, .L77+12
 917 0078 1100     		movs	r1, r2
 918 007a 1800     		movs	r0, r3
 919 007c FFF7FEFF 		bl	atiny_printf
 920              	.L73:
 921 0080 304B     		ldr	r3, .L77+16
 922 0082 1800     		movs	r0, r3
 923 0084 FFF7FEFF 		bl	atiny_printf
 924              	.L71:
 925 0088 1F26     		movs	r6, #31
 926 008a BC19     		adds	r4, r7, r6
 927 008c 1423     		movs	r3, #20
 928 008e FD18     		adds	r5, r7, r3
 929 0090 1023     		movs	r3, #16
 930 0092 9846     		mov	r8, r3
 931 0094 B844     		add	r8, r8, r7
 932 0096 B968     		ldr	r1, [r7, #8]
 933 0098 F868     		ldr	r0, [r7, #12]
 934 009a 3423     		movs	r3, #52
 935 009c 0822     		movs	r2, #8
 936 009e 9446     		mov	ip, r2
 937 00a0 BC44     		add	ip, ip, r7
 938 00a2 6344     		add	r3, r3, ip
 939 00a4 1B88     		ldrh	r3, [r3]
 940 00a6 0193     		str	r3, [sp, #4]
 941 00a8 0023     		movs	r3, #0
 942 00aa 0093     		str	r3, [sp]
 943 00ac 2B00     		movs	r3, r5
 944 00ae 4246     		mov	r2, r8
 945 00b0 FFF7FEFF 		bl	object_readData
 946 00b4 0300     		movs	r3, r0
 947 00b6 2370     		strb	r3, [r4]
 948 00b8 BB19     		adds	r3, r7, r6
 949 00ba 1B78     		ldrb	r3, [r3]
 950 00bc 452B     		cmp	r3, #69
 951 00be 15D1     		bne	.L74
 952 00c0 3969     		ldr	r1, [r7, #16]
 953 00c2 7A69     		ldr	r2, [r7, #20]
 954 00c4 7C68     		ldr	r4, [r7, #4]
 955 00c6 B868     		ldr	r0, [r7, #8]
 956 00c8 3B68     		ldr	r3, [r7]
 957 00ca 0093     		str	r3, [sp]
 958 00cc 2300     		movs	r3, r4
 959 00ce FFF7FEFF 		bl	lwm2m_data_serialize
 960 00d2 0300     		movs	r3, r0
 961 00d4 BB61     		str	r3, [r7, #24]
 962 00d6 BB69     		ldr	r3, [r7, #24]
 963 00d8 002B     		cmp	r3, #0
 964 00da 04DA     		bge	.L75
 965 00dc 1F23     		movs	r3, #31
ARM GAS  C:\Users\SONG_J~1\AppData\Local\Temp\ccPyj9I7.s 			page 18


 966 00de FB18     		adds	r3, r7, r3
 967 00e0 A022     		movs	r2, #160
 968 00e2 1A70     		strb	r2, [r3]
 969 00e4 02E0     		b	.L74
 970              	.L75:
 971 00e6 BA69     		ldr	r2, [r7, #24]
 972 00e8 BB6B     		ldr	r3, [r7, #56]
 973 00ea 1A60     		str	r2, [r3]
 974              	.L74:
 975 00ec 3B69     		ldr	r3, [r7, #16]
 976 00ee 7A69     		ldr	r2, [r7, #20]
 977 00f0 1100     		movs	r1, r2
 978 00f2 1800     		movs	r0, r3
 979 00f4 FFF7FEFF 		bl	lwm2m_data_free
 980 00f8 1F26     		movs	r6, #31
 981 00fa BB19     		adds	r3, r7, r6
 982 00fc 1B78     		ldrb	r3, [r3]
 983 00fe 5B09     		lsrs	r3, r3, #5
 984 0100 DBB2     		uxtb	r3, r3
 985 0102 1D00     		movs	r5, r3
 986 0104 BB19     		adds	r3, r7, r6
 987 0106 1B78     		ldrb	r3, [r3]
 988 0108 1F22     		movs	r2, #31
 989 010a 1A40     		ands	r2, r3
 990 010c BB6B     		ldr	r3, [r7, #56]
 991 010e 1B68     		ldr	r3, [r3]
 992 0110 A721     		movs	r1, #167
 993 0112 4C00     		lsls	r4, r1, #1
 994 0114 0749     		ldr	r1, .L77
 995 0116 0C48     		ldr	r0, .L77+20
 996 0118 0193     		str	r3, [sp, #4]
 997 011a 0092     		str	r2, [sp]
 998 011c 2B00     		movs	r3, r5
 999 011e 2200     		movs	r2, r4
 1000 0120 FFF7FEFF 		bl	atiny_printf
 1001 0124 BB19     		adds	r3, r7, r6
 1002 0126 1B78     		ldrb	r3, [r3]
 1003 0128 1800     		movs	r0, r3
 1004 012a BD46     		mov	sp, r7
 1005 012c 08B0     		add	sp, sp, #32
 1006              		@ sp needed
 1007 012e 04BC     		pop	{r2}
 1008 0130 9046     		mov	r8, r2
 1009 0132 F0BD     		pop	{r4, r5, r6, r7, pc}
 1010              	.L78:
 1011              		.align	2
 1012              	.L77:
 1013 0134 00000000 		.word	__func__.7508
 1014 0138 00000000 		.word	.LC1
 1015 013c 10000000 		.word	.LC3
 1016 0140 1C000000 		.word	.LC5
 1017 0144 20000000 		.word	.LC7
 1018 0148 48000000 		.word	.LC26
 1020              		.section	.rodata
 1021 006d 000000   		.align	2
 1022              	.LC33:
 1023 0070 5B25733A 		.ascii	"[%s:%d] result: %u.%2u\015\012\000"
ARM GAS  C:\Users\SONG_J~1\AppData\Local\Temp\ccPyj9I7.s 			page 19


 1023      25645D20 
 1023      72657375 
 1023      6C743A20 
 1023      25752E25 
 1024              		.section	.text.object_write,"ax",%progbits
 1025              		.align	1
 1026              		.global	object_write
 1027              		.syntax unified
 1028              		.code	16
 1029              		.thumb_func
 1030              		.fpu softvfp
 1032              	object_write:
 1033              		@ args = 4, pretend = 0, frame = 32
 1034              		@ frame_needed = 1, uses_anonymous_args = 0
 1035 0000 B0B5     		push	{r4, r5, r7, lr}
 1036 0002 8AB0     		sub	sp, sp, #40
 1037 0004 02AF     		add	r7, sp, #8
 1038 0006 F860     		str	r0, [r7, #12]
 1039 0008 B960     		str	r1, [r7, #8]
 1040 000a 3B60     		str	r3, [r7]
 1041 000c BB1D     		adds	r3, r7, #6
 1042 000e 1A80     		strh	r2, [r3]
 1043 0010 1F23     		movs	r3, #31
 1044 0012 FB18     		adds	r3, r7, r3
 1045 0014 0022     		movs	r2, #0
 1046 0016 1A70     		strb	r2, [r3]
 1047 0018 0023     		movs	r3, #0
 1048 001a 3B61     		str	r3, [r7, #16]
 1049 001c 0023     		movs	r3, #0
 1050 001e BB61     		str	r3, [r7, #24]
 1051 0020 BB68     		ldr	r3, [r7, #8]
 1052 0022 002B     		cmp	r3, #0
 1053 0024 07D1     		bne	.L80
 1054 0026 AF23     		movs	r3, #175
 1055 0028 5A00     		lsls	r2, r3, #1
 1056 002a 4849     		ldr	r1, .L89
 1057 002c 484B     		ldr	r3, .L89+4
 1058 002e 1800     		movs	r0, r3
 1059 0030 FFF7FEFF 		bl	atiny_printf
 1060 0034 29E0     		b	.L81
 1061              	.L80:
 1062 0036 BB68     		ldr	r3, [r7, #8]
 1063 0038 5B88     		ldrh	r3, [r3, #2]
 1064 003a 1C00     		movs	r4, r3
 1065 003c AF23     		movs	r3, #175
 1066 003e 5A00     		lsls	r2, r3, #1
 1067 0040 4249     		ldr	r1, .L89
 1068 0042 4448     		ldr	r0, .L89+8
 1069 0044 2300     		movs	r3, r4
 1070 0046 FFF7FEFF 		bl	atiny_printf
 1071 004a BB68     		ldr	r3, [r7, #8]
 1072 004c 1B78     		ldrb	r3, [r3]
 1073 004e 1A00     		movs	r2, r3
 1074 0050 0223     		movs	r3, #2
 1075 0052 1340     		ands	r3, r2
 1076 0054 07D0     		beq	.L82
 1077 0056 BB68     		ldr	r3, [r7, #8]
ARM GAS  C:\Users\SONG_J~1\AppData\Local\Temp\ccPyj9I7.s 			page 20


 1078 0058 9B88     		ldrh	r3, [r3, #4]
 1079 005a 1A00     		movs	r2, r3
 1080 005c 3E4B     		ldr	r3, .L89+12
 1081 005e 1100     		movs	r1, r2
 1082 0060 1800     		movs	r0, r3
 1083 0062 FFF7FEFF 		bl	atiny_printf
 1084              	.L82:
 1085 0066 BB68     		ldr	r3, [r7, #8]
 1086 0068 1B78     		ldrb	r3, [r3]
 1087 006a 1A00     		movs	r2, r3
 1088 006c 0123     		movs	r3, #1
 1089 006e 1340     		ands	r3, r2
 1090 0070 07D0     		beq	.L83
 1091 0072 BB68     		ldr	r3, [r7, #8]
 1092 0074 DB88     		ldrh	r3, [r3, #6]
 1093 0076 1A00     		movs	r2, r3
 1094 0078 374B     		ldr	r3, .L89+12
 1095 007a 1100     		movs	r1, r2
 1096 007c 1800     		movs	r0, r3
 1097 007e FFF7FEFF 		bl	atiny_printf
 1098              	.L83:
 1099 0082 364B     		ldr	r3, .L89+16
 1100 0084 1800     		movs	r0, r3
 1101 0086 FFF7FEFF 		bl	atiny_printf
 1102              	.L81:
 1103 008a FB68     		ldr	r3, [r7, #12]
 1104 008c 9A69     		ldr	r2, [r3, #24]
 1105 008e BB68     		ldr	r3, [r7, #8]
 1106 0090 5B88     		ldrh	r3, [r3, #2]
 1107 0092 1900     		movs	r1, r3
 1108 0094 1000     		movs	r0, r2
 1109 0096 FFF7FEFF 		bl	lwm2m_list_find
 1110 009a 0300     		movs	r3, r0
 1111 009c 7B61     		str	r3, [r7, #20]
 1112 009e 7B69     		ldr	r3, [r7, #20]
 1113 00a0 002B     		cmp	r3, #0
 1114 00a2 04D1     		bne	.L84
 1115 00a4 1F23     		movs	r3, #31
 1116 00a6 FB18     		adds	r3, r7, r3
 1117 00a8 8422     		movs	r2, #132
 1118 00aa 1A70     		strb	r2, [r3]
 1119 00ac 1CE0     		b	.L85
 1120              	.L84:
 1121 00ae 7B69     		ldr	r3, [r7, #20]
 1122 00b0 1B69     		ldr	r3, [r3, #16]
 1123 00b2 002B     		cmp	r3, #0
 1124 00b4 04D1     		bne	.L86
 1125 00b6 1F23     		movs	r3, #31
 1126 00b8 FB18     		adds	r3, r7, r3
 1127 00ba 8522     		movs	r2, #133
 1128 00bc 1A70     		strb	r2, [r3]
 1129 00be 13E0     		b	.L85
 1130              	.L86:
 1131 00c0 BB1D     		adds	r3, r7, #6
 1132 00c2 1C88     		ldrh	r4, [r3]
 1133 00c4 3A6B     		ldr	r2, [r7, #48]
 1134 00c6 3968     		ldr	r1, [r7]
ARM GAS  C:\Users\SONG_J~1\AppData\Local\Temp\ccPyj9I7.s 			page 21


 1135 00c8 B868     		ldr	r0, [r7, #8]
 1136 00ca 1023     		movs	r3, #16
 1137 00cc FB18     		adds	r3, r7, r3
 1138 00ce 0093     		str	r3, [sp]
 1139 00d0 2300     		movs	r3, r4
 1140 00d2 FFF7FEFF 		bl	lwm2m_data_parse
 1141 00d6 0300     		movs	r3, r0
 1142 00d8 BB61     		str	r3, [r7, #24]
 1143 00da BB69     		ldr	r3, [r7, #24]
 1144 00dc 002B     		cmp	r3, #0
 1145 00de 03D1     		bne	.L85
 1146 00e0 1F23     		movs	r3, #31
 1147 00e2 FB18     		adds	r3, r7, r3
 1148 00e4 8622     		movs	r2, #134
 1149 00e6 1A70     		strb	r2, [r3]
 1150              	.L85:
 1151 00e8 1F23     		movs	r3, #31
 1152 00ea FB18     		adds	r3, r7, r3
 1153 00ec 1B78     		ldrb	r3, [r3]
 1154 00ee 002B     		cmp	r3, #0
 1155 00f0 11D1     		bne	.L87
 1156 00f2 7B69     		ldr	r3, [r7, #20]
 1157 00f4 1D69     		ldr	r5, [r3, #16]
 1158 00f6 BB68     		ldr	r3, [r7, #8]
 1159 00f8 9888     		ldrh	r0, [r3, #4]
 1160 00fa 3A69     		ldr	r2, [r7, #16]
 1161 00fc 1F23     		movs	r3, #31
 1162 00fe FC18     		adds	r4, r7, r3
 1163 0100 7B69     		ldr	r3, [r7, #20]
 1164 0102 B969     		ldr	r1, [r7, #24]
 1165 0104 A847     		blx	r5
 1166 0106 0300     		movs	r3, r0
 1167 0108 2370     		strb	r3, [r4]
 1168 010a 3A69     		ldr	r2, [r7, #16]
 1169 010c BB69     		ldr	r3, [r7, #24]
 1170 010e 1100     		movs	r1, r2
 1171 0110 1800     		movs	r0, r3
 1172 0112 FFF7FEFF 		bl	lwm2m_data_free
 1173              	.L87:
 1174 0116 1F22     		movs	r2, #31
 1175 0118 BB18     		adds	r3, r7, r2
 1176 011a 1B78     		ldrb	r3, [r3]
 1177 011c 5B09     		lsrs	r3, r3, #5
 1178 011e DBB2     		uxtb	r3, r3
 1179 0120 1C00     		movs	r4, r3
 1180 0122 1500     		movs	r5, r2
 1181 0124 BB18     		adds	r3, r7, r2
 1182 0126 1B78     		ldrb	r3, [r3]
 1183 0128 1F22     		movs	r2, #31
 1184 012a 1340     		ands	r3, r2
 1185 012c BB22     		movs	r2, #187
 1186 012e 5200     		lsls	r2, r2, #1
 1187 0130 0649     		ldr	r1, .L89
 1188 0132 0B48     		ldr	r0, .L89+20
 1189 0134 0093     		str	r3, [sp]
 1190 0136 2300     		movs	r3, r4
 1191 0138 FFF7FEFF 		bl	atiny_printf
ARM GAS  C:\Users\SONG_J~1\AppData\Local\Temp\ccPyj9I7.s 			page 22


 1192 013c 2A00     		movs	r2, r5
 1193 013e BB18     		adds	r3, r7, r2
 1194 0140 1B78     		ldrb	r3, [r3]
 1195 0142 1800     		movs	r0, r3
 1196 0144 BD46     		mov	sp, r7
 1197 0146 08B0     		add	sp, sp, #32
 1198              		@ sp needed
 1199 0148 B0BD     		pop	{r4, r5, r7, pc}
 1200              	.L90:
 1201 014a C046     		.align	2
 1202              	.L89:
 1203 014c 00000000 		.word	__func__.7520
 1204 0150 00000000 		.word	.LC1
 1205 0154 10000000 		.word	.LC3
 1206 0158 1C000000 		.word	.LC5
 1207 015c 20000000 		.word	.LC7
 1208 0160 70000000 		.word	.LC33
 1210              		.section	.text.object_execute,"ax",%progbits
 1211              		.align	1
 1212              		.global	object_execute
 1213              		.syntax unified
 1214              		.code	16
 1215              		.thumb_func
 1216              		.fpu softvfp
 1218              	object_execute:
 1219              		@ args = 0, pretend = 0, frame = 24
 1220              		@ frame_needed = 1, uses_anonymous_args = 0
 1221 0000 B0B5     		push	{r4, r5, r7, lr}
 1222 0002 88B0     		sub	sp, sp, #32
 1223 0004 02AF     		add	r7, sp, #8
 1224 0006 F860     		str	r0, [r7, #12]
 1225 0008 B960     		str	r1, [r7, #8]
 1226 000a 7A60     		str	r2, [r7, #4]
 1227 000c 3B60     		str	r3, [r7]
 1228 000e BB68     		ldr	r3, [r7, #8]
 1229 0010 002B     		cmp	r3, #0
 1230 0012 07D1     		bne	.L92
 1231 0014 C123     		movs	r3, #193
 1232 0016 5A00     		lsls	r2, r3, #1
 1233 0018 3049     		ldr	r1, .L100
 1234 001a 314B     		ldr	r3, .L100+4
 1235 001c 1800     		movs	r0, r3
 1236 001e FFF7FEFF 		bl	atiny_printf
 1237 0022 29E0     		b	.L93
 1238              	.L92:
 1239 0024 BB68     		ldr	r3, [r7, #8]
 1240 0026 5B88     		ldrh	r3, [r3, #2]
 1241 0028 1C00     		movs	r4, r3
 1242 002a C123     		movs	r3, #193
 1243 002c 5A00     		lsls	r2, r3, #1
 1244 002e 2B49     		ldr	r1, .L100
 1245 0030 2C48     		ldr	r0, .L100+8
 1246 0032 2300     		movs	r3, r4
 1247 0034 FFF7FEFF 		bl	atiny_printf
 1248 0038 BB68     		ldr	r3, [r7, #8]
 1249 003a 1B78     		ldrb	r3, [r3]
 1250 003c 1A00     		movs	r2, r3
ARM GAS  C:\Users\SONG_J~1\AppData\Local\Temp\ccPyj9I7.s 			page 23


 1251 003e 0223     		movs	r3, #2
 1252 0040 1340     		ands	r3, r2
 1253 0042 07D0     		beq	.L94
 1254 0044 BB68     		ldr	r3, [r7, #8]
 1255 0046 9B88     		ldrh	r3, [r3, #4]
 1256 0048 1A00     		movs	r2, r3
 1257 004a 274B     		ldr	r3, .L100+12
 1258 004c 1100     		movs	r1, r2
 1259 004e 1800     		movs	r0, r3
 1260 0050 FFF7FEFF 		bl	atiny_printf
 1261              	.L94:
 1262 0054 BB68     		ldr	r3, [r7, #8]
 1263 0056 1B78     		ldrb	r3, [r3]
 1264 0058 1A00     		movs	r2, r3
 1265 005a 0123     		movs	r3, #1
 1266 005c 1340     		ands	r3, r2
 1267 005e 07D0     		beq	.L95
 1268 0060 BB68     		ldr	r3, [r7, #8]
 1269 0062 DB88     		ldrh	r3, [r3, #6]
 1270 0064 1A00     		movs	r2, r3
 1271 0066 204B     		ldr	r3, .L100+12
 1272 0068 1100     		movs	r1, r2
 1273 006a 1800     		movs	r0, r3
 1274 006c FFF7FEFF 		bl	atiny_printf
 1275              	.L95:
 1276 0070 1E4B     		ldr	r3, .L100+16
 1277 0072 1800     		movs	r0, r3
 1278 0074 FFF7FEFF 		bl	atiny_printf
 1279              	.L93:
 1280 0078 FB68     		ldr	r3, [r7, #12]
 1281 007a 9A69     		ldr	r2, [r3, #24]
 1282 007c BB68     		ldr	r3, [r7, #8]
 1283 007e 5B88     		ldrh	r3, [r3, #2]
 1284 0080 1900     		movs	r1, r3
 1285 0082 1000     		movs	r0, r2
 1286 0084 FFF7FEFF 		bl	lwm2m_list_find
 1287 0088 0300     		movs	r3, r0
 1288 008a 7B61     		str	r3, [r7, #20]
 1289 008c 7B69     		ldr	r3, [r7, #20]
 1290 008e 002B     		cmp	r3, #0
 1291 0090 01D1     		bne	.L96
 1292 0092 8423     		movs	r3, #132
 1293 0094 1EE0     		b	.L97
 1294              	.L96:
 1295 0096 7B69     		ldr	r3, [r7, #20]
 1296 0098 5B69     		ldr	r3, [r3, #20]
 1297 009a 002B     		cmp	r3, #0
 1298 009c 01D1     		bne	.L98
 1299 009e 8523     		movs	r3, #133
 1300 00a0 18E0     		b	.L97
 1301              	.L98:
 1302 00a2 7B69     		ldr	r3, [r7, #20]
 1303 00a4 9A68     		ldr	r2, [r3, #8]
 1304 00a6 BB68     		ldr	r3, [r7, #8]
 1305 00a8 9B88     		ldrh	r3, [r3, #4]
 1306 00aa 1900     		movs	r1, r3
 1307 00ac 1000     		movs	r0, r2
ARM GAS  C:\Users\SONG_J~1\AppData\Local\Temp\ccPyj9I7.s 			page 24


 1308 00ae FFF7FEFF 		bl	lwm2m_list_find
 1309 00b2 031E     		subs	r3, r0, #0
 1310 00b4 01D1     		bne	.L99
 1311 00b6 8423     		movs	r3, #132
 1312 00b8 0CE0     		b	.L97
 1313              	.L99:
 1314 00ba 7B69     		ldr	r3, [r7, #20]
 1315 00bc 5C69     		ldr	r4, [r3, #20]
 1316 00be BB68     		ldr	r3, [r7, #8]
 1317 00c0 9888     		ldrh	r0, [r3, #4]
 1318 00c2 BB68     		ldr	r3, [r7, #8]
 1319 00c4 D988     		ldrh	r1, [r3, #6]
 1320 00c6 3D68     		ldr	r5, [r7]
 1321 00c8 7A68     		ldr	r2, [r7, #4]
 1322 00ca 7B69     		ldr	r3, [r7, #20]
 1323 00cc 0093     		str	r3, [sp]
 1324 00ce 2B00     		movs	r3, r5
 1325 00d0 A047     		blx	r4
 1326 00d2 0300     		movs	r3, r0
 1327              	.L97:
 1328 00d4 1800     		movs	r0, r3
 1329 00d6 BD46     		mov	sp, r7
 1330 00d8 06B0     		add	sp, sp, #24
 1331              		@ sp needed
 1332 00da B0BD     		pop	{r4, r5, r7, pc}
 1333              	.L101:
 1334              		.align	2
 1335              	.L100:
 1336 00dc 00000000 		.word	__func__.7528
 1337 00e0 00000000 		.word	.LC1
 1338 00e4 10000000 		.word	.LC3
 1339 00e8 1C000000 		.word	.LC5
 1340 00ec 20000000 		.word	.LC7
 1342              		.section	.text.object_create,"ax",%progbits
 1343              		.align	1
 1344              		.global	object_create
 1345              		.syntax unified
 1346              		.code	16
 1347              		.thumb_func
 1348              		.fpu softvfp
 1350              	object_create:
 1351              		@ args = 4, pretend = 0, frame = 32
 1352              		@ frame_needed = 1, uses_anonymous_args = 0
 1353 0000 B0B5     		push	{r4, r5, r7, lr}
 1354 0002 8AB0     		sub	sp, sp, #40
 1355 0004 02AF     		add	r7, sp, #8
 1356 0006 F860     		str	r0, [r7, #12]
 1357 0008 B960     		str	r1, [r7, #8]
 1358 000a 3B60     		str	r3, [r7]
 1359 000c BB1D     		adds	r3, r7, #6
 1360 000e 1A80     		strh	r2, [r3]
 1361 0010 0023     		movs	r3, #0
 1362 0012 3B61     		str	r3, [r7, #16]
 1363 0014 0023     		movs	r3, #0
 1364 0016 BB61     		str	r3, [r7, #24]
 1365 0018 BB68     		ldr	r3, [r7, #8]
 1366 001a 002B     		cmp	r3, #0
ARM GAS  C:\Users\SONG_J~1\AppData\Local\Temp\ccPyj9I7.s 			page 25


 1367 001c 07D1     		bne	.L103
 1368 001e CB23     		movs	r3, #203
 1369 0020 5A00     		lsls	r2, r3, #1
 1370 0022 7049     		ldr	r1, .L122
 1371 0024 704B     		ldr	r3, .L122+4
 1372 0026 1800     		movs	r0, r3
 1373 0028 FFF7FEFF 		bl	atiny_printf
 1374 002c 29E0     		b	.L104
 1375              	.L103:
 1376 002e BB68     		ldr	r3, [r7, #8]
 1377 0030 5B88     		ldrh	r3, [r3, #2]
 1378 0032 1C00     		movs	r4, r3
 1379 0034 CB23     		movs	r3, #203
 1380 0036 5A00     		lsls	r2, r3, #1
 1381 0038 6A49     		ldr	r1, .L122
 1382 003a 6C48     		ldr	r0, .L122+8
 1383 003c 2300     		movs	r3, r4
 1384 003e FFF7FEFF 		bl	atiny_printf
 1385 0042 BB68     		ldr	r3, [r7, #8]
 1386 0044 1B78     		ldrb	r3, [r3]
 1387 0046 1A00     		movs	r2, r3
 1388 0048 0223     		movs	r3, #2
 1389 004a 1340     		ands	r3, r2
 1390 004c 07D0     		beq	.L105
 1391 004e BB68     		ldr	r3, [r7, #8]
 1392 0050 9B88     		ldrh	r3, [r3, #4]
 1393 0052 1A00     		movs	r2, r3
 1394 0054 664B     		ldr	r3, .L122+12
 1395 0056 1100     		movs	r1, r2
 1396 0058 1800     		movs	r0, r3
 1397 005a FFF7FEFF 		bl	atiny_printf
 1398              	.L105:
 1399 005e BB68     		ldr	r3, [r7, #8]
 1400 0060 1B78     		ldrb	r3, [r3]
 1401 0062 1A00     		movs	r2, r3
 1402 0064 0123     		movs	r3, #1
 1403 0066 1340     		ands	r3, r2
 1404 0068 07D0     		beq	.L106
 1405 006a BB68     		ldr	r3, [r7, #8]
 1406 006c DB88     		ldrh	r3, [r3, #6]
 1407 006e 1A00     		movs	r2, r3
 1408 0070 5F4B     		ldr	r3, .L122+12
 1409 0072 1100     		movs	r1, r2
 1410 0074 1800     		movs	r0, r3
 1411 0076 FFF7FEFF 		bl	atiny_printf
 1412              	.L106:
 1413 007a 5E4B     		ldr	r3, .L122+16
 1414 007c 1800     		movs	r0, r3
 1415 007e FFF7FEFF 		bl	atiny_printf
 1416              	.L104:
 1417 0082 3B6B     		ldr	r3, [r7, #48]
 1418 0084 002B     		cmp	r3, #0
 1419 0086 02D0     		beq	.L107
 1420 0088 3B68     		ldr	r3, [r7]
 1421 008a 002B     		cmp	r3, #0
 1422 008c 01D1     		bne	.L108
 1423              	.L107:
ARM GAS  C:\Users\SONG_J~1\AppData\Local\Temp\ccPyj9I7.s 			page 26


 1424 008e 8023     		movs	r3, #128
 1425 0090 A3E0     		b	.L120
 1426              	.L108:
 1427 0092 FB68     		ldr	r3, [r7, #12]
 1428 0094 9A69     		ldr	r2, [r3, #24]
 1429 0096 BB68     		ldr	r3, [r7, #8]
 1430 0098 5B88     		ldrh	r3, [r3, #2]
 1431 009a 1900     		movs	r1, r3
 1432 009c 1000     		movs	r0, r2
 1433 009e FFF7FEFF 		bl	lwm2m_list_find
 1434 00a2 0300     		movs	r3, r0
 1435 00a4 7B61     		str	r3, [r7, #20]
 1436 00a6 7B69     		ldr	r3, [r7, #20]
 1437 00a8 002B     		cmp	r3, #0
 1438 00aa 01D1     		bne	.L110
 1439 00ac 8423     		movs	r3, #132
 1440 00ae 94E0     		b	.L120
 1441              	.L110:
 1442 00b0 7B69     		ldr	r3, [r7, #20]
 1443 00b2 DB69     		ldr	r3, [r3, #28]
 1444 00b4 002B     		cmp	r3, #0
 1445 00b6 01D1     		bne	.L111
 1446 00b8 8523     		movs	r3, #133
 1447 00ba 8EE0     		b	.L120
 1448              	.L111:
 1449 00bc BB1D     		adds	r3, r7, #6
 1450 00be 1C88     		ldrh	r4, [r3]
 1451 00c0 3A6B     		ldr	r2, [r7, #48]
 1452 00c2 3968     		ldr	r1, [r7]
 1453 00c4 B868     		ldr	r0, [r7, #8]
 1454 00c6 1023     		movs	r3, #16
 1455 00c8 FB18     		adds	r3, r7, r3
 1456 00ca 0093     		str	r3, [sp]
 1457 00cc 2300     		movs	r3, r4
 1458 00ce FFF7FEFF 		bl	lwm2m_data_parse
 1459 00d2 0300     		movs	r3, r0
 1460 00d4 BB61     		str	r3, [r7, #24]
 1461 00d6 BB69     		ldr	r3, [r7, #24]
 1462 00d8 002B     		cmp	r3, #0
 1463 00da 01DC     		bgt	.L112
 1464 00dc 8023     		movs	r3, #128
 1465 00de 7CE0     		b	.L120
 1466              	.L112:
 1467 00e0 3B69     		ldr	r3, [r7, #16]
 1468 00e2 1B78     		ldrb	r3, [r3]
 1469 00e4 012B     		cmp	r3, #1
 1470 00e6 02D0     		beq	.L114
 1471 00e8 022B     		cmp	r3, #2
 1472 00ea 05D0     		beq	.L115
 1473 00ec 36E0     		b	.L121
 1474              	.L114:
 1475 00ee 1F23     		movs	r3, #31
 1476 00f0 FB18     		adds	r3, r7, r3
 1477 00f2 8022     		movs	r2, #128
 1478 00f4 1A70     		strb	r2, [r3]
 1479 00f6 54E0     		b	.L116
 1480              	.L115:
ARM GAS  C:\Users\SONG_J~1\AppData\Local\Temp\ccPyj9I7.s 			page 27


 1481 00f8 BB69     		ldr	r3, [r7, #24]
 1482 00fa 012B     		cmp	r3, #1
 1483 00fc 04D0     		beq	.L117
 1484 00fe 1F23     		movs	r3, #31
 1485 0100 FB18     		adds	r3, r7, r3
 1486 0102 8022     		movs	r2, #128
 1487 0104 1A70     		strb	r2, [r3]
 1488 0106 4CE0     		b	.L116
 1489              	.L117:
 1490 0108 7B69     		ldr	r3, [r7, #20]
 1491 010a 9A68     		ldr	r2, [r3, #8]
 1492 010c 3B69     		ldr	r3, [r7, #16]
 1493 010e 5B88     		ldrh	r3, [r3, #2]
 1494 0110 1900     		movs	r1, r3
 1495 0112 1000     		movs	r0, r2
 1496 0114 FFF7FEFF 		bl	lwm2m_list_find
 1497 0118 031E     		subs	r3, r0, #0
 1498 011a 04D0     		beq	.L118
 1499 011c 1F23     		movs	r3, #31
 1500 011e FB18     		adds	r3, r7, r3
 1501 0120 8622     		movs	r2, #134
 1502 0122 1A70     		strb	r2, [r3]
 1503 0124 3DE0     		b	.L116
 1504              	.L118:
 1505 0126 7B69     		ldr	r3, [r7, #20]
 1506 0128 DD69     		ldr	r5, [r3, #28]
 1507 012a 3B69     		ldr	r3, [r7, #16]
 1508 012c 5888     		ldrh	r0, [r3, #2]
 1509 012e 3B69     		ldr	r3, [r7, #16]
 1510 0130 9B68     		ldr	r3, [r3, #8]
 1511 0132 1900     		movs	r1, r3
 1512 0134 3B69     		ldr	r3, [r7, #16]
 1513 0136 DA68     		ldr	r2, [r3, #12]
 1514 0138 1F23     		movs	r3, #31
 1515 013a FC18     		adds	r4, r7, r3
 1516 013c 7B69     		ldr	r3, [r7, #20]
 1517 013e A847     		blx	r5
 1518 0140 0300     		movs	r3, r0
 1519 0142 2370     		strb	r3, [r4]
 1520 0144 3B69     		ldr	r3, [r7, #16]
 1521 0146 5A88     		ldrh	r2, [r3, #2]
 1522 0148 BB68     		ldr	r3, [r7, #8]
 1523 014a 9A80     		strh	r2, [r3, #4]
 1524 014c BB68     		ldr	r3, [r7, #8]
 1525 014e 1B78     		ldrb	r3, [r3]
 1526 0150 0222     		movs	r2, #2
 1527 0152 1343     		orrs	r3, r2
 1528 0154 DAB2     		uxtb	r2, r3
 1529 0156 BB68     		ldr	r3, [r7, #8]
 1530 0158 1A70     		strb	r2, [r3]
 1531 015a 22E0     		b	.L116
 1532              	.L121:
 1533 015c BB68     		ldr	r3, [r7, #8]
 1534 015e 1B78     		ldrb	r3, [r3]
 1535 0160 1A00     		movs	r2, r3
 1536 0162 0223     		movs	r3, #2
 1537 0164 1340     		ands	r3, r2
ARM GAS  C:\Users\SONG_J~1\AppData\Local\Temp\ccPyj9I7.s 			page 28


 1538 0166 0FD1     		bne	.L119
 1539 0168 7B69     		ldr	r3, [r7, #20]
 1540 016a 9B68     		ldr	r3, [r3, #8]
 1541 016c 1800     		movs	r0, r3
 1542 016e FFF7FEFF 		bl	lwm2m_list_newId
 1543 0172 0300     		movs	r3, r0
 1544 0174 1A00     		movs	r2, r3
 1545 0176 BB68     		ldr	r3, [r7, #8]
 1546 0178 9A80     		strh	r2, [r3, #4]
 1547 017a BB68     		ldr	r3, [r7, #8]
 1548 017c 1B78     		ldrb	r3, [r3]
 1549 017e 0222     		movs	r2, #2
 1550 0180 1343     		orrs	r3, r2
 1551 0182 DAB2     		uxtb	r2, r3
 1552 0184 BB68     		ldr	r3, [r7, #8]
 1553 0186 1A70     		strb	r2, [r3]
 1554              	.L119:
 1555 0188 7B69     		ldr	r3, [r7, #20]
 1556 018a DD69     		ldr	r5, [r3, #28]
 1557 018c BB68     		ldr	r3, [r7, #8]
 1558 018e 9888     		ldrh	r0, [r3, #4]
 1559 0190 3A69     		ldr	r2, [r7, #16]
 1560 0192 1F23     		movs	r3, #31
 1561 0194 FC18     		adds	r4, r7, r3
 1562 0196 7B69     		ldr	r3, [r7, #20]
 1563 0198 B969     		ldr	r1, [r7, #24]
 1564 019a A847     		blx	r5
 1565 019c 0300     		movs	r3, r0
 1566 019e 2370     		strb	r3, [r4]
 1567 01a0 C046     		nop
 1568              	.L116:
 1569 01a2 3A69     		ldr	r2, [r7, #16]
 1570 01a4 BB69     		ldr	r3, [r7, #24]
 1571 01a6 1100     		movs	r1, r2
 1572 01a8 1800     		movs	r0, r3
 1573 01aa FFF7FEFF 		bl	lwm2m_data_free
 1574 01ae 1F22     		movs	r2, #31
 1575 01b0 BB18     		adds	r3, r7, r2
 1576 01b2 1B78     		ldrb	r3, [r3]
 1577 01b4 5B09     		lsrs	r3, r3, #5
 1578 01b6 DBB2     		uxtb	r3, r3
 1579 01b8 1C00     		movs	r4, r3
 1580 01ba 1500     		movs	r5, r2
 1581 01bc BB18     		adds	r3, r7, r2
 1582 01be 1B78     		ldrb	r3, [r3]
 1583 01c0 1F22     		movs	r2, #31
 1584 01c2 1340     		ands	r3, r2
 1585 01c4 E422     		movs	r2, #228
 1586 01c6 5200     		lsls	r2, r2, #1
 1587 01c8 0649     		ldr	r1, .L122
 1588 01ca 0B48     		ldr	r0, .L122+20
 1589 01cc 0093     		str	r3, [sp]
 1590 01ce 2300     		movs	r3, r4
 1591 01d0 FFF7FEFF 		bl	atiny_printf
 1592 01d4 2A00     		movs	r2, r5
 1593 01d6 BB18     		adds	r3, r7, r2
 1594 01d8 1B78     		ldrb	r3, [r3]
ARM GAS  C:\Users\SONG_J~1\AppData\Local\Temp\ccPyj9I7.s 			page 29


 1595              	.L120:
 1596 01da 1800     		movs	r0, r3
 1597 01dc BD46     		mov	sp, r7
 1598 01de 08B0     		add	sp, sp, #32
 1599              		@ sp needed
 1600 01e0 B0BD     		pop	{r4, r5, r7, pc}
 1601              	.L123:
 1602 01e2 C046     		.align	2
 1603              	.L122:
 1604 01e4 00000000 		.word	__func__.7540
 1605 01e8 00000000 		.word	.LC1
 1606 01ec 10000000 		.word	.LC3
 1607 01f0 1C000000 		.word	.LC5
 1608 01f4 20000000 		.word	.LC7
 1609 01f8 70000000 		.word	.LC33
 1611              		.section	.rodata
 1612 0089 000000   		.align	2
 1613              	.LC51:
 1614 008c 5B25733A 		.ascii	"[%s:%d] Entering\015\012\000"
 1614      25645D20 
 1614      456E7465 
 1614      72696E67 
 1614      0D0A00
 1615              		.section	.text.object_delete,"ax",%progbits
 1616              		.align	1
 1617              		.global	object_delete
 1618              		.syntax unified
 1619              		.code	16
 1620              		.thumb_func
 1621              		.fpu softvfp
 1623              	object_delete:
 1624              		@ args = 0, pretend = 0, frame = 24
 1625              		@ frame_needed = 1, uses_anonymous_args = 0
 1626 0000 B0B5     		push	{r4, r5, r7, lr}
 1627 0002 88B0     		sub	sp, sp, #32
 1628 0004 02AF     		add	r7, sp, #8
 1629 0006 7860     		str	r0, [r7, #4]
 1630 0008 3960     		str	r1, [r7]
 1631 000a 3B68     		ldr	r3, [r7]
 1632 000c 002B     		cmp	r3, #0
 1633 000e 08D1     		bne	.L125
 1634 0010 D423     		movs	r3, #212
 1635 0012 FF33     		adds	r3, r3, #255
 1636 0014 1A00     		movs	r2, r3
 1637 0016 5E49     		ldr	r1, .L138
 1638 0018 5E4B     		ldr	r3, .L138+4
 1639 001a 1800     		movs	r0, r3
 1640 001c FFF7FEFF 		bl	atiny_printf
 1641 0020 2AE0     		b	.L126
 1642              	.L125:
 1643 0022 3B68     		ldr	r3, [r7]
 1644 0024 5B88     		ldrh	r3, [r3, #2]
 1645 0026 1C00     		movs	r4, r3
 1646 0028 D423     		movs	r3, #212
 1647 002a FF33     		adds	r3, r3, #255
 1648 002c 1A00     		movs	r2, r3
 1649 002e 5849     		ldr	r1, .L138
ARM GAS  C:\Users\SONG_J~1\AppData\Local\Temp\ccPyj9I7.s 			page 30


 1650 0030 5948     		ldr	r0, .L138+8
 1651 0032 2300     		movs	r3, r4
 1652 0034 FFF7FEFF 		bl	atiny_printf
 1653 0038 3B68     		ldr	r3, [r7]
 1654 003a 1B78     		ldrb	r3, [r3]
 1655 003c 1A00     		movs	r2, r3
 1656 003e 0223     		movs	r3, #2
 1657 0040 1340     		ands	r3, r2
 1658 0042 07D0     		beq	.L127
 1659 0044 3B68     		ldr	r3, [r7]
 1660 0046 9B88     		ldrh	r3, [r3, #4]
 1661 0048 1A00     		movs	r2, r3
 1662 004a 544B     		ldr	r3, .L138+12
 1663 004c 1100     		movs	r1, r2
 1664 004e 1800     		movs	r0, r3
 1665 0050 FFF7FEFF 		bl	atiny_printf
 1666              	.L127:
 1667 0054 3B68     		ldr	r3, [r7]
 1668 0056 1B78     		ldrb	r3, [r3]
 1669 0058 1A00     		movs	r2, r3
 1670 005a 0123     		movs	r3, #1
 1671 005c 1340     		ands	r3, r2
 1672 005e 07D0     		beq	.L128
 1673 0060 3B68     		ldr	r3, [r7]
 1674 0062 DB88     		ldrh	r3, [r3, #6]
 1675 0064 1A00     		movs	r2, r3
 1676 0066 4D4B     		ldr	r3, .L138+12
 1677 0068 1100     		movs	r1, r2
 1678 006a 1800     		movs	r0, r3
 1679 006c FFF7FEFF 		bl	atiny_printf
 1680              	.L128:
 1681 0070 4B4B     		ldr	r3, .L138+16
 1682 0072 1800     		movs	r0, r3
 1683 0074 FFF7FEFF 		bl	atiny_printf
 1684              	.L126:
 1685 0078 7B68     		ldr	r3, [r7, #4]
 1686 007a 9A69     		ldr	r2, [r3, #24]
 1687 007c 3B68     		ldr	r3, [r7]
 1688 007e 5B88     		ldrh	r3, [r3, #2]
 1689 0080 1900     		movs	r1, r3
 1690 0082 1000     		movs	r0, r2
 1691 0084 FFF7FEFF 		bl	lwm2m_list_find
 1692 0088 0300     		movs	r3, r0
 1693 008a FB60     		str	r3, [r7, #12]
 1694 008c FB68     		ldr	r3, [r7, #12]
 1695 008e 002B     		cmp	r3, #0
 1696 0090 01D1     		bne	.L129
 1697 0092 8423     		movs	r3, #132
 1698 0094 78E0     		b	.L130
 1699              	.L129:
 1700 0096 FB68     		ldr	r3, [r7, #12]
 1701 0098 1B6A     		ldr	r3, [r3, #32]
 1702 009a 002B     		cmp	r3, #0
 1703 009c 01D1     		bne	.L131
 1704 009e 8523     		movs	r3, #133
 1705 00a0 72E0     		b	.L130
 1706              	.L131:
ARM GAS  C:\Users\SONG_J~1\AppData\Local\Temp\ccPyj9I7.s 			page 31


 1707 00a2 EC23     		movs	r3, #236
 1708 00a4 5A00     		lsls	r2, r3, #1
 1709 00a6 3A49     		ldr	r1, .L138
 1710 00a8 3E4B     		ldr	r3, .L138+20
 1711 00aa 1800     		movs	r0, r3
 1712 00ac FFF7FEFF 		bl	atiny_printf
 1713 00b0 3B68     		ldr	r3, [r7]
 1714 00b2 1B78     		ldrb	r3, [r3]
 1715 00b4 1A00     		movs	r2, r3
 1716 00b6 0223     		movs	r3, #2
 1717 00b8 1340     		ands	r3, r2
 1718 00ba 15D0     		beq	.L132
 1719 00bc FB68     		ldr	r3, [r7, #12]
 1720 00be 1B6A     		ldr	r3, [r3, #32]
 1721 00c0 3A68     		ldr	r2, [r7]
 1722 00c2 9288     		ldrh	r2, [r2, #4]
 1723 00c4 1725     		movs	r5, #23
 1724 00c6 7C19     		adds	r4, r7, r5
 1725 00c8 F968     		ldr	r1, [r7, #12]
 1726 00ca 1000     		movs	r0, r2
 1727 00cc 9847     		blx	r3
 1728 00ce 0300     		movs	r3, r0
 1729 00d0 2370     		strb	r3, [r4]
 1730 00d2 7B19     		adds	r3, r7, r5
 1731 00d4 1B78     		ldrb	r3, [r3]
 1732 00d6 422B     		cmp	r3, #66
 1733 00d8 40D1     		bne	.L134
 1734 00da 3A68     		ldr	r2, [r7]
 1735 00dc 7B68     		ldr	r3, [r7, #4]
 1736 00de 1100     		movs	r1, r2
 1737 00e0 1800     		movs	r0, r3
 1738 00e2 FFF7FEFF 		bl	observe_clear
 1739 00e6 39E0     		b	.L134
 1740              	.L132:
 1741 00e8 1723     		movs	r3, #23
 1742 00ea FB18     		adds	r3, r7, r3
 1743 00ec 4222     		movs	r2, #66
 1744 00ee 1A70     		strb	r2, [r3]
 1745 00f0 FB68     		ldr	r3, [r7, #12]
 1746 00f2 9B68     		ldr	r3, [r3, #8]
 1747 00f4 3B61     		str	r3, [r7, #16]
 1748 00f6 29E0     		b	.L135
 1749              	.L137:
 1750 00f8 3B69     		ldr	r3, [r7, #16]
 1751 00fa 9A88     		ldrh	r2, [r3, #4]
 1752 00fc 3B68     		ldr	r3, [r7]
 1753 00fe 9A80     		strh	r2, [r3, #4]
 1754 0100 FB68     		ldr	r3, [r7, #12]
 1755 0102 1B6A     		ldr	r3, [r3, #32]
 1756 0104 3A69     		ldr	r2, [r7, #16]
 1757 0106 9288     		ldrh	r2, [r2, #4]
 1758 0108 1725     		movs	r5, #23
 1759 010a 7C19     		adds	r4, r7, r5
 1760 010c F968     		ldr	r1, [r7, #12]
 1761 010e 1000     		movs	r0, r2
 1762 0110 9847     		blx	r3
 1763 0112 0300     		movs	r3, r0
ARM GAS  C:\Users\SONG_J~1\AppData\Local\Temp\ccPyj9I7.s 			page 32


 1764 0114 2370     		strb	r3, [r4]
 1765 0116 7B19     		adds	r3, r7, r5
 1766 0118 1B78     		ldrb	r3, [r3]
 1767 011a 422B     		cmp	r3, #66
 1768 011c 13D1     		bne	.L136
 1769 011e 3B68     		ldr	r3, [r7]
 1770 0120 1B78     		ldrb	r3, [r3]
 1771 0122 0222     		movs	r2, #2
 1772 0124 1343     		orrs	r3, r2
 1773 0126 DAB2     		uxtb	r2, r3
 1774 0128 3B68     		ldr	r3, [r7]
 1775 012a 1A70     		strb	r2, [r3]
 1776 012c 3A68     		ldr	r2, [r7]
 1777 012e 7B68     		ldr	r3, [r7, #4]
 1778 0130 1100     		movs	r1, r2
 1779 0132 1800     		movs	r0, r3
 1780 0134 FFF7FEFF 		bl	observe_clear
 1781 0138 3B68     		ldr	r3, [r7]
 1782 013a 1B78     		ldrb	r3, [r3]
 1783 013c 0222     		movs	r2, #2
 1784 013e 9343     		bics	r3, r2
 1785 0140 DAB2     		uxtb	r2, r3
 1786 0142 3B68     		ldr	r3, [r7]
 1787 0144 1A70     		strb	r2, [r3]
 1788              	.L136:
 1789 0146 FB68     		ldr	r3, [r7, #12]
 1790 0148 9B68     		ldr	r3, [r3, #8]
 1791 014a 3B61     		str	r3, [r7, #16]
 1792              	.L135:
 1793 014c 3B69     		ldr	r3, [r7, #16]
 1794 014e 002B     		cmp	r3, #0
 1795 0150 04D0     		beq	.L134
 1796 0152 1723     		movs	r3, #23
 1797 0154 FB18     		adds	r3, r7, r3
 1798 0156 1B78     		ldrb	r3, [r3]
 1799 0158 422B     		cmp	r3, #66
 1800 015a CDD0     		beq	.L137
 1801              	.L134:
 1802 015c 1722     		movs	r2, #23
 1803 015e BB18     		adds	r3, r7, r2
 1804 0160 1B78     		ldrb	r3, [r3]
 1805 0162 5B09     		lsrs	r3, r3, #5
 1806 0164 DBB2     		uxtb	r3, r3
 1807 0166 1C00     		movs	r4, r3
 1808 0168 1500     		movs	r5, r2
 1809 016a BB18     		adds	r3, r7, r2
 1810 016c 1B78     		ldrb	r3, [r3]
 1811 016e 1F22     		movs	r2, #31
 1812 0170 1340     		ands	r3, r2
 1813 0172 F822     		movs	r2, #248
 1814 0174 FF32     		adds	r2, r2, #255
 1815 0176 0649     		ldr	r1, .L138
 1816 0178 0B48     		ldr	r0, .L138+24
 1817 017a 0093     		str	r3, [sp]
 1818 017c 2300     		movs	r3, r4
 1819 017e FFF7FEFF 		bl	atiny_printf
 1820 0182 2A00     		movs	r2, r5
ARM GAS  C:\Users\SONG_J~1\AppData\Local\Temp\ccPyj9I7.s 			page 33


 1821 0184 BB18     		adds	r3, r7, r2
 1822 0186 1B78     		ldrb	r3, [r3]
 1823              	.L130:
 1824 0188 1800     		movs	r0, r3
 1825 018a BD46     		mov	sp, r7
 1826 018c 06B0     		add	sp, sp, #24
 1827              		@ sp needed
 1828 018e B0BD     		pop	{r4, r5, r7, pc}
 1829              	.L139:
 1830              		.align	2
 1831              	.L138:
 1832 0190 00000000 		.word	__func__.7552
 1833 0194 00000000 		.word	.LC1
 1834 0198 10000000 		.word	.LC3
 1835 019c 1C000000 		.word	.LC5
 1836 01a0 20000000 		.word	.LC7
 1837 01a4 8C000000 		.word	.LC51
 1838 01a8 70000000 		.word	.LC33
 1840              		.section	.text.object_discover,"ax",%progbits
 1841              		.align	1
 1842              		.global	object_discover
 1843              		.syntax unified
 1844              		.code	16
 1845              		.thumb_func
 1846              		.fpu softvfp
 1848              	object_discover:
 1849              		@ args = 4, pretend = 0, frame = 48
 1850              		@ frame_needed = 1, uses_anonymous_args = 0
 1851 0000 B0B5     		push	{r4, r5, r7, lr}
 1852 0002 8EB0     		sub	sp, sp, #56
 1853 0004 02AF     		add	r7, sp, #8
 1854 0006 F860     		str	r0, [r7, #12]
 1855 0008 B960     		str	r1, [r7, #8]
 1856 000a 7A60     		str	r2, [r7, #4]
 1857 000c 3B60     		str	r3, [r7]
 1858 000e 0023     		movs	r3, #0
 1859 0010 BB61     		str	r3, [r7, #24]
 1860 0012 0023     		movs	r3, #0
 1861 0014 7B61     		str	r3, [r7, #20]
 1862 0016 BB68     		ldr	r3, [r7, #8]
 1863 0018 002B     		cmp	r3, #0
 1864 001a 06D1     		bne	.L141
 1865 001c 874A     		ldr	r2, .L161
 1866 001e 8849     		ldr	r1, .L161+4
 1867 0020 884B     		ldr	r3, .L161+8
 1868 0022 1800     		movs	r0, r3
 1869 0024 FFF7FEFF 		bl	atiny_printf
 1870 0028 26E0     		b	.L142
 1871              	.L141:
 1872 002a BB68     		ldr	r3, [r7, #8]
 1873 002c 5B88     		ldrh	r3, [r3, #2]
 1874 002e 834A     		ldr	r2, .L161
 1875 0030 8349     		ldr	r1, .L161+4
 1876 0032 8548     		ldr	r0, .L161+12
 1877 0034 FFF7FEFF 		bl	atiny_printf
 1878 0038 BB68     		ldr	r3, [r7, #8]
 1879 003a 1B78     		ldrb	r3, [r3]
ARM GAS  C:\Users\SONG_J~1\AppData\Local\Temp\ccPyj9I7.s 			page 34


 1880 003c 1A00     		movs	r2, r3
 1881 003e 0223     		movs	r3, #2
 1882 0040 1340     		ands	r3, r2
 1883 0042 07D0     		beq	.L143
 1884 0044 BB68     		ldr	r3, [r7, #8]
 1885 0046 9B88     		ldrh	r3, [r3, #4]
 1886 0048 1A00     		movs	r2, r3
 1887 004a 804B     		ldr	r3, .L161+16
 1888 004c 1100     		movs	r1, r2
 1889 004e 1800     		movs	r0, r3
 1890 0050 FFF7FEFF 		bl	atiny_printf
 1891              	.L143:
 1892 0054 BB68     		ldr	r3, [r7, #8]
 1893 0056 1B78     		ldrb	r3, [r3]
 1894 0058 1A00     		movs	r2, r3
 1895 005a 0123     		movs	r3, #1
 1896 005c 1340     		ands	r3, r2
 1897 005e 07D0     		beq	.L144
 1898 0060 BB68     		ldr	r3, [r7, #8]
 1899 0062 DB88     		ldrh	r3, [r3, #6]
 1900 0064 1A00     		movs	r2, r3
 1901 0066 794B     		ldr	r3, .L161+16
 1902 0068 1100     		movs	r1, r2
 1903 006a 1800     		movs	r0, r3
 1904 006c FFF7FEFF 		bl	atiny_printf
 1905              	.L144:
 1906 0070 774B     		ldr	r3, .L161+20
 1907 0072 1800     		movs	r0, r3
 1908 0074 FFF7FEFF 		bl	atiny_printf
 1909              	.L142:
 1910 0078 FB68     		ldr	r3, [r7, #12]
 1911 007a 9A69     		ldr	r2, [r3, #24]
 1912 007c BB68     		ldr	r3, [r7, #8]
 1913 007e 5B88     		ldrh	r3, [r3, #2]
 1914 0080 1900     		movs	r1, r3
 1915 0082 1000     		movs	r0, r2
 1916 0084 FFF7FEFF 		bl	lwm2m_list_find
 1917 0088 0300     		movs	r3, r0
 1918 008a 3B62     		str	r3, [r7, #32]
 1919 008c 3B6A     		ldr	r3, [r7, #32]
 1920 008e 002B     		cmp	r3, #0
 1921 0090 01D1     		bne	.L145
 1922 0092 8423     		movs	r3, #132
 1923 0094 CEE0     		b	.L160
 1924              	.L145:
 1925 0096 3B6A     		ldr	r3, [r7, #32]
 1926 0098 5B6A     		ldr	r3, [r3, #36]
 1927 009a 002B     		cmp	r3, #0
 1928 009c 01D1     		bne	.L147
 1929 009e A123     		movs	r3, #161
 1930 00a0 C8E0     		b	.L160
 1931              	.L147:
 1932 00a2 BB68     		ldr	r3, [r7, #8]
 1933 00a4 1B78     		ldrb	r3, [r3]
 1934 00a6 1A00     		movs	r2, r3
 1935 00a8 0223     		movs	r3, #2
 1936 00aa 1340     		ands	r3, r2
ARM GAS  C:\Users\SONG_J~1\AppData\Local\Temp\ccPyj9I7.s 			page 35


 1937 00ac 31D0     		beq	.L148
 1938 00ae 3B6A     		ldr	r3, [r7, #32]
 1939 00b0 9A68     		ldr	r2, [r3, #8]
 1940 00b2 BB68     		ldr	r3, [r7, #8]
 1941 00b4 9B88     		ldrh	r3, [r3, #4]
 1942 00b6 1900     		movs	r1, r3
 1943 00b8 1000     		movs	r0, r2
 1944 00ba FFF7FEFF 		bl	lwm2m_list_find
 1945 00be 031E     		subs	r3, r0, #0
 1946 00c0 01D1     		bne	.L149
 1947 00c2 8423     		movs	r3, #132
 1948 00c4 B6E0     		b	.L160
 1949              	.L149:
 1950 00c6 BB68     		ldr	r3, [r7, #8]
 1951 00c8 1B78     		ldrb	r3, [r3]
 1952 00ca 1A00     		movs	r2, r3
 1953 00cc 0123     		movs	r3, #1
 1954 00ce 1340     		ands	r3, r2
 1955 00d0 10D0     		beq	.L150
 1956 00d2 0123     		movs	r3, #1
 1957 00d4 7B61     		str	r3, [r7, #20]
 1958 00d6 7B69     		ldr	r3, [r7, #20]
 1959 00d8 1800     		movs	r0, r3
 1960 00da FFF7FEFF 		bl	lwm2m_data_new
 1961 00de 0300     		movs	r3, r0
 1962 00e0 BB61     		str	r3, [r7, #24]
 1963 00e2 BB69     		ldr	r3, [r7, #24]
 1964 00e4 002B     		cmp	r3, #0
 1965 00e6 01D1     		bne	.L151
 1966 00e8 A023     		movs	r3, #160
 1967 00ea A3E0     		b	.L160
 1968              	.L151:
 1969 00ec BB69     		ldr	r3, [r7, #24]
 1970 00ee BA68     		ldr	r2, [r7, #8]
 1971 00f0 D288     		ldrh	r2, [r2, #6]
 1972 00f2 5A80     		strh	r2, [r3, #2]
 1973              	.L150:
 1974 00f4 3B6A     		ldr	r3, [r7, #32]
 1975 00f6 5D6A     		ldr	r5, [r3, #36]
 1976 00f8 BB68     		ldr	r3, [r7, #8]
 1977 00fa 9888     		ldrh	r0, [r3, #4]
 1978 00fc 2F23     		movs	r3, #47
 1979 00fe FC18     		adds	r4, r7, r3
 1980 0100 3B6A     		ldr	r3, [r7, #32]
 1981 0102 1822     		movs	r2, #24
 1982 0104 BA18     		adds	r2, r7, r2
 1983 0106 1421     		movs	r1, #20
 1984 0108 7918     		adds	r1, r7, r1
 1985 010a A847     		blx	r5
 1986 010c 0300     		movs	r3, r0
 1987 010e 2370     		strb	r3, [r4]
 1988 0110 57E0     		b	.L152
 1989              	.L148:
 1990 0112 2F23     		movs	r3, #47
 1991 0114 FB18     		adds	r3, r7, r3
 1992 0116 4522     		movs	r2, #69
 1993 0118 1A70     		strb	r2, [r3]
ARM GAS  C:\Users\SONG_J~1\AppData\Local\Temp\ccPyj9I7.s 			page 36


 1994 011a 0023     		movs	r3, #0
 1995 011c 7B61     		str	r3, [r7, #20]
 1996 011e 3B6A     		ldr	r3, [r7, #32]
 1997 0120 9B68     		ldr	r3, [r3, #8]
 1998 0122 BB62     		str	r3, [r7, #40]
 1999 0124 05E0     		b	.L153
 2000              	.L154:
 2001 0126 7B69     		ldr	r3, [r7, #20]
 2002 0128 0133     		adds	r3, r3, #1
 2003 012a 7B61     		str	r3, [r7, #20]
 2004 012c BB6A     		ldr	r3, [r7, #40]
 2005 012e 1B68     		ldr	r3, [r3]
 2006 0130 BB62     		str	r3, [r7, #40]
 2007              	.L153:
 2008 0132 BB6A     		ldr	r3, [r7, #40]
 2009 0134 002B     		cmp	r3, #0
 2010 0136 F6D1     		bne	.L154
 2011 0138 7B69     		ldr	r3, [r7, #20]
 2012 013a 002B     		cmp	r3, #0
 2013 013c 41D0     		beq	.L152
 2014 013e 7B69     		ldr	r3, [r7, #20]
 2015 0140 1800     		movs	r0, r3
 2016 0142 FFF7FEFF 		bl	lwm2m_data_new
 2017 0146 0300     		movs	r3, r0
 2018 0148 BB61     		str	r3, [r7, #24]
 2019 014a BB69     		ldr	r3, [r7, #24]
 2020 014c 002B     		cmp	r3, #0
 2021 014e 01D1     		bne	.L155
 2022 0150 A023     		movs	r3, #160
 2023 0152 6FE0     		b	.L160
 2024              	.L155:
 2025 0154 3B6A     		ldr	r3, [r7, #32]
 2026 0156 9B68     		ldr	r3, [r3, #8]
 2027 0158 BB62     		str	r3, [r7, #40]
 2028 015a 0023     		movs	r3, #0
 2029 015c 7B62     		str	r3, [r7, #36]
 2030 015e 28E0     		b	.L156
 2031              	.L157:
 2032 0160 3B6A     		ldr	r3, [r7, #32]
 2033 0162 5D6A     		ldr	r5, [r3, #36]
 2034 0164 BB6A     		ldr	r3, [r7, #40]
 2035 0166 9888     		ldrh	r0, [r3, #4]
 2036 0168 BA69     		ldr	r2, [r7, #24]
 2037 016a 7B6A     		ldr	r3, [r7, #36]
 2038 016c 1B01     		lsls	r3, r3, #4
 2039 016e D318     		adds	r3, r2, r3
 2040 0170 0833     		adds	r3, r3, #8
 2041 0172 1900     		movs	r1, r3
 2042 0174 BA69     		ldr	r2, [r7, #24]
 2043 0176 7B6A     		ldr	r3, [r7, #36]
 2044 0178 1B01     		lsls	r3, r3, #4
 2045 017a D318     		adds	r3, r2, r3
 2046 017c 0C33     		adds	r3, r3, #12
 2047 017e 1A00     		movs	r2, r3
 2048 0180 2F23     		movs	r3, #47
 2049 0182 FC18     		adds	r4, r7, r3
 2050 0184 3B6A     		ldr	r3, [r7, #32]
ARM GAS  C:\Users\SONG_J~1\AppData\Local\Temp\ccPyj9I7.s 			page 37


 2051 0186 A847     		blx	r5
 2052 0188 0300     		movs	r3, r0
 2053 018a 2370     		strb	r3, [r4]
 2054 018c BA69     		ldr	r2, [r7, #24]
 2055 018e 7B6A     		ldr	r3, [r7, #36]
 2056 0190 1B01     		lsls	r3, r3, #4
 2057 0192 D318     		adds	r3, r2, r3
 2058 0194 0222     		movs	r2, #2
 2059 0196 1A70     		strb	r2, [r3]
 2060 0198 BA69     		ldr	r2, [r7, #24]
 2061 019a 7B6A     		ldr	r3, [r7, #36]
 2062 019c 1B01     		lsls	r3, r3, #4
 2063 019e D318     		adds	r3, r2, r3
 2064 01a0 BA6A     		ldr	r2, [r7, #40]
 2065 01a2 9288     		ldrh	r2, [r2, #4]
 2066 01a4 5A80     		strh	r2, [r3, #2]
 2067 01a6 7B6A     		ldr	r3, [r7, #36]
 2068 01a8 0133     		adds	r3, r3, #1
 2069 01aa 7B62     		str	r3, [r7, #36]
 2070 01ac BB6A     		ldr	r3, [r7, #40]
 2071 01ae 1B68     		ldr	r3, [r3]
 2072 01b0 BB62     		str	r3, [r7, #40]
 2073              	.L156:
 2074 01b2 BB6A     		ldr	r3, [r7, #40]
 2075 01b4 002B     		cmp	r3, #0
 2076 01b6 04D0     		beq	.L152
 2077 01b8 2F23     		movs	r3, #47
 2078 01ba FB18     		adds	r3, r7, r3
 2079 01bc 1B78     		ldrb	r3, [r3]
 2080 01be 452B     		cmp	r3, #69
 2081 01c0 CED0     		beq	.L157
 2082              	.L152:
 2083 01c2 2F23     		movs	r3, #47
 2084 01c4 FB18     		adds	r3, r7, r3
 2085 01c6 1B78     		ldrb	r3, [r3]
 2086 01c8 452B     		cmp	r3, #69
 2087 01ca 18D1     		bne	.L158
 2088 01cc 7D69     		ldr	r5, [r7, #20]
 2089 01ce BB69     		ldr	r3, [r7, #24]
 2090 01d0 7C68     		ldr	r4, [r7, #4]
 2091 01d2 B968     		ldr	r1, [r7, #8]
 2092 01d4 F868     		ldr	r0, [r7, #12]
 2093 01d6 3A68     		ldr	r2, [r7]
 2094 01d8 0192     		str	r2, [sp, #4]
 2095 01da 0093     		str	r3, [sp]
 2096 01dc 2B00     		movs	r3, r5
 2097 01de 2200     		movs	r2, r4
 2098 01e0 FFF7FEFF 		bl	discover_serialize
 2099 01e4 0300     		movs	r3, r0
 2100 01e6 FB61     		str	r3, [r7, #28]
 2101 01e8 FB69     		ldr	r3, [r7, #28]
 2102 01ea 002B     		cmp	r3, #0
 2103 01ec 04DC     		bgt	.L159
 2104 01ee 2F23     		movs	r3, #47
 2105 01f0 FB18     		adds	r3, r7, r3
 2106 01f2 A022     		movs	r2, #160
 2107 01f4 1A70     		strb	r2, [r3]
ARM GAS  C:\Users\SONG_J~1\AppData\Local\Temp\ccPyj9I7.s 			page 38


 2108 01f6 02E0     		b	.L158
 2109              	.L159:
 2110 01f8 FA69     		ldr	r2, [r7, #28]
 2111 01fa 3B6C     		ldr	r3, [r7, #64]
 2112 01fc 1A60     		str	r2, [r3]
 2113              	.L158:
 2114 01fe 7B69     		ldr	r3, [r7, #20]
 2115 0200 BA69     		ldr	r2, [r7, #24]
 2116 0202 1100     		movs	r1, r2
 2117 0204 1800     		movs	r0, r3
 2118 0206 FFF7FEFF 		bl	lwm2m_data_free
 2119 020a 2F22     		movs	r2, #47
 2120 020c BB18     		adds	r3, r7, r2
 2121 020e 1B78     		ldrb	r3, [r3]
 2122 0210 5B09     		lsrs	r3, r3, #5
 2123 0212 DBB2     		uxtb	r3, r3
 2124 0214 1C00     		movs	r4, r3
 2125 0216 1500     		movs	r5, r2
 2126 0218 BB18     		adds	r3, r7, r2
 2127 021a 1B78     		ldrb	r3, [r3]
 2128 021c 1F22     		movs	r2, #31
 2129 021e 1340     		ands	r3, r2
 2130 0220 0C4A     		ldr	r2, .L161+24
 2131 0222 0749     		ldr	r1, .L161+4
 2132 0224 0C48     		ldr	r0, .L161+28
 2133 0226 0093     		str	r3, [sp]
 2134 0228 2300     		movs	r3, r4
 2135 022a FFF7FEFF 		bl	atiny_printf
 2136 022e 2A00     		movs	r2, r5
 2137 0230 BB18     		adds	r3, r7, r2
 2138 0232 1B78     		ldrb	r3, [r3]
 2139              	.L160:
 2140 0234 1800     		movs	r0, r3
 2141 0236 BD46     		mov	sp, r7
 2142 0238 0CB0     		add	sp, sp, #48
 2143              		@ sp needed
 2144 023a B0BD     		pop	{r4, r5, r7, pc}
 2145              	.L162:
 2146              		.align	2
 2147              	.L161:
 2148 023c 07020000 		.word	519
 2149 0240 00000000 		.word	__func__.7568
 2150 0244 00000000 		.word	.LC1
 2151 0248 10000000 		.word	.LC3
 2152 024c 1C000000 		.word	.LC5
 2153 0250 20000000 		.word	.LC7
 2154 0254 46020000 		.word	582
 2155 0258 70000000 		.word	.LC33
 2157              		.section	.text.object_isInstanceNew,"ax",%progbits
 2158              		.align	1
 2159              		.global	object_isInstanceNew
 2160              		.syntax unified
 2161              		.code	16
 2162              		.thumb_func
 2163              		.fpu softvfp
 2165              	object_isInstanceNew:
 2166              		@ args = 0, pretend = 0, frame = 16
ARM GAS  C:\Users\SONG_J~1\AppData\Local\Temp\ccPyj9I7.s 			page 39


 2167              		@ frame_needed = 1, uses_anonymous_args = 0
 2168 0000 80B5     		push	{r7, lr}
 2169 0002 84B0     		sub	sp, sp, #16
 2170 0004 00AF     		add	r7, sp, #0
 2171 0006 7860     		str	r0, [r7, #4]
 2172 0008 0800     		movs	r0, r1
 2173 000a 1100     		movs	r1, r2
 2174 000c BB1C     		adds	r3, r7, #2
 2175 000e 021C     		adds	r2, r0, #0
 2176 0010 1A80     		strh	r2, [r3]
 2177 0012 3B00     		movs	r3, r7
 2178 0014 0A1C     		adds	r2, r1, #0
 2179 0016 1A80     		strh	r2, [r3]
 2180 0018 114A     		ldr	r2, .L166
 2181 001a 1249     		ldr	r1, .L166+4
 2182 001c 124B     		ldr	r3, .L166+8
 2183 001e 1800     		movs	r0, r3
 2184 0020 FFF7FEFF 		bl	atiny_printf
 2185 0024 7B68     		ldr	r3, [r7, #4]
 2186 0026 9A69     		ldr	r2, [r3, #24]
 2187 0028 BB1C     		adds	r3, r7, #2
 2188 002a 1B88     		ldrh	r3, [r3]
 2189 002c 1900     		movs	r1, r3
 2190 002e 1000     		movs	r0, r2
 2191 0030 FFF7FEFF 		bl	lwm2m_list_find
 2192 0034 0300     		movs	r3, r0
 2193 0036 FB60     		str	r3, [r7, #12]
 2194 0038 FB68     		ldr	r3, [r7, #12]
 2195 003a 002B     		cmp	r3, #0
 2196 003c 0BD0     		beq	.L164
 2197 003e FB68     		ldr	r3, [r7, #12]
 2198 0040 9A68     		ldr	r2, [r3, #8]
 2199 0042 3B00     		movs	r3, r7
 2200 0044 1B88     		ldrh	r3, [r3]
 2201 0046 1900     		movs	r1, r3
 2202 0048 1000     		movs	r0, r2
 2203 004a FFF7FEFF 		bl	lwm2m_list_find
 2204 004e 031E     		subs	r3, r0, #0
 2205 0050 01D0     		beq	.L164
 2206 0052 0023     		movs	r3, #0
 2207 0054 00E0     		b	.L165
 2208              	.L164:
 2209 0056 0123     		movs	r3, #1
 2210              	.L165:
 2211 0058 1800     		movs	r0, r3
 2212 005a BD46     		mov	sp, r7
 2213 005c 04B0     		add	sp, sp, #16
 2214              		@ sp needed
 2215 005e 80BD     		pop	{r7, pc}
 2216              	.L167:
 2217              		.align	2
 2218              	.L166:
 2219 0060 51020000 		.word	593
 2220 0064 00000000 		.word	__func__.7584
 2221 0068 8C000000 		.word	.LC51
 2223              		.section	.text.prv_getObjectTemplate,"ax",%progbits
 2224              		.align	1
ARM GAS  C:\Users\SONG_J~1\AppData\Local\Temp\ccPyj9I7.s 			page 40


 2225              		.syntax unified
 2226              		.code	16
 2227              		.thumb_func
 2228              		.fpu softvfp
 2230              	prv_getObjectTemplate:
 2231              		@ args = 0, pretend = 0, frame = 24
 2232              		@ frame_needed = 1, uses_anonymous_args = 0
 2233 0000 B0B5     		push	{r4, r5, r7, lr}
 2234 0002 86B0     		sub	sp, sp, #24
 2235 0004 00AF     		add	r7, sp, #0
 2236 0006 F860     		str	r0, [r7, #12]
 2237 0008 B960     		str	r1, [r7, #8]
 2238 000a BB1D     		adds	r3, r7, #6
 2239 000c 1A80     		strh	r2, [r3]
 2240 000e BB68     		ldr	r3, [r7, #8]
 2241 0010 042B     		cmp	r3, #4
 2242 0012 02D8     		bhi	.L169
 2243 0014 0123     		movs	r3, #1
 2244 0016 5B42     		rsbs	r3, r3, #0
 2245 0018 36E0     		b	.L170
 2246              	.L169:
 2247 001a FB68     		ldr	r3, [r7, #12]
 2248 001c 3C22     		movs	r2, #60
 2249 001e 1A70     		strb	r2, [r3]
 2250 0020 FB68     		ldr	r3, [r7, #12]
 2251 0022 0133     		adds	r3, r3, #1
 2252 0024 2F22     		movs	r2, #47
 2253 0026 1A70     		strb	r2, [r3]
 2254 0028 0223     		movs	r3, #2
 2255 002a 7B61     		str	r3, [r7, #20]
 2256 002c BB1D     		adds	r3, r7, #6
 2257 002e 1B88     		ldrh	r3, [r3]
 2258 0030 9BB2     		uxth	r3, r3
 2259 0032 1C00     		movs	r4, r3
 2260 0034 0023     		movs	r3, #0
 2261 0036 1D00     		movs	r5, r3
 2262 0038 7B69     		ldr	r3, [r7, #20]
 2263 003a FA68     		ldr	r2, [r7, #12]
 2264 003c D118     		adds	r1, r2, r3
 2265 003e 7B69     		ldr	r3, [r7, #20]
 2266 0040 BA68     		ldr	r2, [r7, #8]
 2267 0042 D31A     		subs	r3, r2, r3
 2268 0044 0A00     		movs	r2, r1
 2269 0046 2000     		movs	r0, r4
 2270 0048 2900     		movs	r1, r5
 2271 004a FFF7FEFF 		bl	utils_intToText
 2272 004e 0300     		movs	r3, r0
 2273 0050 3B61     		str	r3, [r7, #16]
 2274 0052 3B69     		ldr	r3, [r7, #16]
 2275 0054 002B     		cmp	r3, #0
 2276 0056 02D1     		bne	.L171
 2277 0058 0123     		movs	r3, #1
 2278 005a 5B42     		rsbs	r3, r3, #0
 2279 005c 14E0     		b	.L170
 2280              	.L171:
 2281 005e 7A69     		ldr	r2, [r7, #20]
 2282 0060 3B69     		ldr	r3, [r7, #16]
ARM GAS  C:\Users\SONG_J~1\AppData\Local\Temp\ccPyj9I7.s 			page 41


 2283 0062 D318     		adds	r3, r2, r3
 2284 0064 7B61     		str	r3, [r7, #20]
 2285 0066 7B69     		ldr	r3, [r7, #20]
 2286 0068 BA68     		ldr	r2, [r7, #8]
 2287 006a D31A     		subs	r3, r2, r3
 2288 006c 012B     		cmp	r3, #1
 2289 006e 02D8     		bhi	.L172
 2290 0070 0123     		movs	r3, #1
 2291 0072 5B42     		rsbs	r3, r3, #0
 2292 0074 08E0     		b	.L170
 2293              	.L172:
 2294 0076 7B69     		ldr	r3, [r7, #20]
 2295 0078 FA68     		ldr	r2, [r7, #12]
 2296 007a D318     		adds	r3, r2, r3
 2297 007c 2F22     		movs	r2, #47
 2298 007e 1A70     		strb	r2, [r3]
 2299 0080 7B69     		ldr	r3, [r7, #20]
 2300 0082 0133     		adds	r3, r3, #1
 2301 0084 7B61     		str	r3, [r7, #20]
 2302 0086 7B69     		ldr	r3, [r7, #20]
 2303              	.L170:
 2304 0088 1800     		movs	r0, r3
 2305 008a BD46     		mov	sp, r7
 2306 008c 06B0     		add	sp, sp, #24
 2307              		@ sp needed
 2308 008e B0BD     		pop	{r4, r5, r7, pc}
 2310              		.section	.text.object_getRegisterPayloadBufferLength,"ax",%progbits
 2311              		.align	1
 2312              		.global	object_getRegisterPayloadBufferLength
 2313              		.syntax unified
 2314              		.code	16
 2315              		.thumb_func
 2316              		.fpu softvfp
 2318              	object_getRegisterPayloadBufferLength:
 2319              		@ args = 0, pretend = 0, frame = 48
 2320              		@ frame_needed = 1, uses_anonymous_args = 0
 2321 0000 B0B5     		push	{r4, r5, r7, lr}
 2322 0002 8CB0     		sub	sp, sp, #48
 2323 0004 00AF     		add	r7, sp, #0
 2324 0006 7860     		str	r0, [r7, #4]
 2325 0008 444A     		ldr	r2, .L189
 2326 000a 4549     		ldr	r1, .L189+4
 2327 000c 454B     		ldr	r3, .L189+8
 2328 000e 1800     		movs	r0, r3
 2329 0010 FFF7FEFF 		bl	atiny_printf
 2330 0014 0123     		movs	r3, #1
 2331 0016 FB62     		str	r3, [r7, #44]
 2332 0018 7B68     		ldr	r3, [r7, #4]
 2333 001a DB68     		ldr	r3, [r3, #12]
 2334 001c 002B     		cmp	r3, #0
 2335 001e 0ED0     		beq	.L174
 2336 0020 7B68     		ldr	r3, [r7, #4]
 2337 0022 DB68     		ldr	r3, [r3, #12]
 2338 0024 1B78     		ldrb	r3, [r3]
 2339 0026 002B     		cmp	r3, #0
 2340 0028 09D0     		beq	.L174
 2341 002a 7B68     		ldr	r3, [r7, #4]
ARM GAS  C:\Users\SONG_J~1\AppData\Local\Temp\ccPyj9I7.s 			page 42


 2342 002c DB68     		ldr	r3, [r3, #12]
 2343 002e 1800     		movs	r0, r3
 2344 0030 FFF7FEFF 		bl	strlen
 2345 0034 0200     		movs	r2, r0
 2346 0036 FB6A     		ldr	r3, [r7, #44]
 2347 0038 9B18     		adds	r3, r3, r2
 2348 003a FB62     		str	r3, [r7, #44]
 2349 003c 02E0     		b	.L175
 2350              	.L174:
 2351 003e FB6A     		ldr	r3, [r7, #44]
 2352 0040 0133     		adds	r3, r3, #1
 2353 0042 FB62     		str	r3, [r7, #44]
 2354              	.L175:
 2355 0044 FB6A     		ldr	r3, [r7, #44]
 2356 0046 1133     		adds	r3, r3, #17
 2357 0048 FB62     		str	r3, [r7, #44]
 2358 004a 7B68     		ldr	r3, [r7, #4]
 2359 004c 9B69     		ldr	r3, [r3, #24]
 2360 004e BB62     		str	r3, [r7, #40]
 2361 0050 58E0     		b	.L176
 2362              	.L186:
 2363 0052 BB6A     		ldr	r3, [r7, #40]
 2364 0054 9B88     		ldrh	r3, [r3, #4]
 2365 0056 002B     		cmp	r3, #0
 2366 0058 50D0     		beq	.L188
 2367 005a FB6A     		ldr	r3, [r7, #44]
 2368 005c 3B62     		str	r3, [r7, #32]
 2369 005e BB6A     		ldr	r3, [r7, #40]
 2370 0060 9A88     		ldrh	r2, [r3, #4]
 2371 0062 0C23     		movs	r3, #12
 2372 0064 FB18     		adds	r3, r7, r3
 2373 0066 0A21     		movs	r1, #10
 2374 0068 1800     		movs	r0, r3
 2375 006a FFF7FEFF 		bl	prv_getObjectTemplate
 2376 006e 0300     		movs	r3, r0
 2377 0070 FB61     		str	r3, [r7, #28]
 2378 0072 FB69     		ldr	r3, [r7, #28]
 2379 0074 002B     		cmp	r3, #0
 2380 0076 01DA     		bge	.L179
 2381 0078 0023     		movs	r3, #0
 2382 007a 4AE0     		b	.L187
 2383              	.L179:
 2384 007c FB69     		ldr	r3, [r7, #28]
 2385 007e BB61     		str	r3, [r7, #24]
 2386 0080 FA6A     		ldr	r2, [r7, #44]
 2387 0082 BB69     		ldr	r3, [r7, #24]
 2388 0084 D318     		adds	r3, r2, r3
 2389 0086 FB62     		str	r3, [r7, #44]
 2390 0088 BB6A     		ldr	r3, [r7, #40]
 2391 008a 9B68     		ldr	r3, [r3, #8]
 2392 008c 002B     		cmp	r3, #0
 2393 008e 06D1     		bne	.L181
 2394 0090 FB6A     		ldr	r3, [r7, #44]
 2395 0092 013B     		subs	r3, r3, #1
 2396 0094 FB62     		str	r3, [r7, #44]
 2397 0096 FB6A     		ldr	r3, [r7, #44]
 2398 0098 0233     		adds	r3, r3, #2
ARM GAS  C:\Users\SONG_J~1\AppData\Local\Temp\ccPyj9I7.s 			page 43


 2399 009a FB62     		str	r3, [r7, #44]
 2400 009c 2FE0     		b	.L178
 2401              	.L181:
 2402 009e BB6A     		ldr	r3, [r7, #40]
 2403 00a0 9B68     		ldr	r3, [r3, #8]
 2404 00a2 7B62     		str	r3, [r7, #36]
 2405 00a4 26E0     		b	.L182
 2406              	.L185:
 2407 00a6 3A6A     		ldr	r2, [r7, #32]
 2408 00a8 BB69     		ldr	r3, [r7, #24]
 2409 00aa D318     		adds	r3, r2, r3
 2410 00ac FA6A     		ldr	r2, [r7, #44]
 2411 00ae 9A42     		cmp	r2, r3
 2412 00b0 03D0     		beq	.L183
 2413 00b2 FA6A     		ldr	r2, [r7, #44]
 2414 00b4 BB69     		ldr	r3, [r7, #24]
 2415 00b6 D318     		adds	r3, r2, r3
 2416 00b8 FB62     		str	r3, [r7, #44]
 2417              	.L183:
 2418 00ba 7B6A     		ldr	r3, [r7, #36]
 2419 00bc 9B88     		ldrh	r3, [r3, #4]
 2420 00be 1C00     		movs	r4, r3
 2421 00c0 0023     		movs	r3, #0
 2422 00c2 1D00     		movs	r5, r3
 2423 00c4 0C23     		movs	r3, #12
 2424 00c6 FA18     		adds	r2, r7, r3
 2425 00c8 0A23     		movs	r3, #10
 2426 00ca 2000     		movs	r0, r4
 2427 00cc 2900     		movs	r1, r5
 2428 00ce FFF7FEFF 		bl	utils_intToText
 2429 00d2 0300     		movs	r3, r0
 2430 00d4 FB61     		str	r3, [r7, #28]
 2431 00d6 FB69     		ldr	r3, [r7, #28]
 2432 00d8 002B     		cmp	r3, #0
 2433 00da 01D1     		bne	.L184
 2434 00dc 0023     		movs	r3, #0
 2435 00de 18E0     		b	.L187
 2436              	.L184:
 2437 00e0 FB69     		ldr	r3, [r7, #28]
 2438 00e2 FA6A     		ldr	r2, [r7, #44]
 2439 00e4 D318     		adds	r3, r2, r3
 2440 00e6 FB62     		str	r3, [r7, #44]
 2441 00e8 FB6A     		ldr	r3, [r7, #44]
 2442 00ea 0233     		adds	r3, r3, #2
 2443 00ec FB62     		str	r3, [r7, #44]
 2444 00ee 7B6A     		ldr	r3, [r7, #36]
 2445 00f0 1B68     		ldr	r3, [r3]
 2446 00f2 7B62     		str	r3, [r7, #36]
 2447              	.L182:
 2448 00f4 7B6A     		ldr	r3, [r7, #36]
 2449 00f6 002B     		cmp	r3, #0
 2450 00f8 D5D1     		bne	.L185
 2451 00fa 00E0     		b	.L178
 2452              	.L188:
 2453 00fc C046     		nop
 2454              	.L178:
 2455 00fe BB6A     		ldr	r3, [r7, #40]
ARM GAS  C:\Users\SONG_J~1\AppData\Local\Temp\ccPyj9I7.s 			page 44


 2456 0100 1B68     		ldr	r3, [r3]
 2457 0102 BB62     		str	r3, [r7, #40]
 2458              	.L176:
 2459 0104 BB6A     		ldr	r3, [r7, #40]
 2460 0106 002B     		cmp	r3, #0
 2461 0108 A3D1     		bne	.L186
 2462 010a FB6A     		ldr	r3, [r7, #44]
 2463 010c 0133     		adds	r3, r3, #1
 2464 010e FB62     		str	r3, [r7, #44]
 2465 0110 FB6A     		ldr	r3, [r7, #44]
 2466              	.L187:
 2467 0112 1800     		movs	r0, r3
 2468 0114 BD46     		mov	sp, r7
 2469 0116 0CB0     		add	sp, sp, #48
 2470              		@ sp needed
 2471 0118 B0BD     		pop	{r4, r5, r7, pc}
 2472              	.L190:
 2473 011a C046     		.align	2
 2474              	.L189:
 2475 011c 7D020000 		.word	637
 2476 0120 00000000 		.word	__func__.7599
 2477 0124 8C000000 		.word	.LC51
 2479              		.section	.rodata
 2480 009f 00       		.align	2
 2481              	.LC66:
 2482 00a0 3C00     		.ascii	"<\000"
 2483 00a2 0000     		.align	2
 2484              	.LC68:
 2485 00a4 2F00     		.ascii	"/\000"
 2486 00a6 0000     		.align	2
 2487              	.LC70:
 2488 00a8 3E3B7274 		.ascii	">;rt=\"oma.lwm2m\",\000"
 2488      3D226F6D 
 2488      612E6C77 
 2488      6D326D22 
 2488      2C00
 2489 00ba 0000     		.align	2
 2490              	.LC72:
 2491 00bc 3E2C00   		.ascii	">,\000"
 2492              		.section	.text.object_getRegisterPayload,"ax",%progbits
 2493              		.align	1
 2494              		.global	object_getRegisterPayload
 2495              		.syntax unified
 2496              		.code	16
 2497              		.thumb_func
 2498              		.fpu softvfp
 2500              	object_getRegisterPayload:
 2501              		@ args = 0, pretend = 0, frame = 40
 2502              		@ frame_needed = 1, uses_anonymous_args = 0
 2503 0000 B0B5     		push	{r4, r5, r7, lr}
 2504 0002 8AB0     		sub	sp, sp, #40
 2505 0004 00AF     		add	r7, sp, #0
 2506 0006 F860     		str	r0, [r7, #12]
 2507 0008 B960     		str	r1, [r7, #8]
 2508 000a 7A60     		str	r2, [r7, #4]
 2509 000c B123     		movs	r3, #177
 2510 000e 9A00     		lsls	r2, r3, #2
ARM GAS  C:\Users\SONG_J~1\AppData\Local\Temp\ccPyj9I7.s 			page 45


 2511 0010 8349     		ldr	r1, .L213
 2512 0012 844B     		ldr	r3, .L213+4
 2513 0014 1800     		movs	r0, r3
 2514 0016 FFF7FEFF 		bl	atiny_printf
 2515 001a 0023     		movs	r3, #0
 2516 001c 7B62     		str	r3, [r7, #36]
 2517 001e 824A     		ldr	r2, .L213+8
 2518 0020 7968     		ldr	r1, [r7, #4]
 2519 0022 BB68     		ldr	r3, [r7, #8]
 2520 0024 1800     		movs	r0, r3
 2521 0026 FFF7FEFF 		bl	utils_stringCopy
 2522 002a 0300     		movs	r3, r0
 2523 002c 3B62     		str	r3, [r7, #32]
 2524 002e 3B6A     		ldr	r3, [r7, #32]
 2525 0030 002B     		cmp	r3, #0
 2526 0032 01DA     		bge	.L192
 2527 0034 0023     		movs	r3, #0
 2528 0036 EFE0     		b	.L193
 2529              	.L192:
 2530 0038 3B6A     		ldr	r3, [r7, #32]
 2531 003a 7A6A     		ldr	r2, [r7, #36]
 2532 003c D318     		adds	r3, r2, r3
 2533 003e 7B62     		str	r3, [r7, #36]
 2534 0040 FB68     		ldr	r3, [r7, #12]
 2535 0042 DB68     		ldr	r3, [r3, #12]
 2536 0044 002B     		cmp	r3, #0
 2537 0046 12D0     		beq	.L194
 2538 0048 FB68     		ldr	r3, [r7, #12]
 2539 004a DB68     		ldr	r3, [r3, #12]
 2540 004c 1B78     		ldrb	r3, [r3]
 2541 004e 002B     		cmp	r3, #0
 2542 0050 0DD0     		beq	.L194
 2543 0052 BA68     		ldr	r2, [r7, #8]
 2544 0054 7B6A     		ldr	r3, [r7, #36]
 2545 0056 D018     		adds	r0, r2, r3
 2546 0058 7A68     		ldr	r2, [r7, #4]
 2547 005a 7B6A     		ldr	r3, [r7, #36]
 2548 005c D11A     		subs	r1, r2, r3
 2549 005e FB68     		ldr	r3, [r7, #12]
 2550 0060 DB68     		ldr	r3, [r3, #12]
 2551 0062 1A00     		movs	r2, r3
 2552 0064 FFF7FEFF 		bl	utils_stringCopy
 2553 0068 0300     		movs	r3, r0
 2554 006a 3B62     		str	r3, [r7, #32]
 2555 006c 0BE0     		b	.L195
 2556              	.L194:
 2557 006e BA68     		ldr	r2, [r7, #8]
 2558 0070 7B6A     		ldr	r3, [r7, #36]
 2559 0072 D018     		adds	r0, r2, r3
 2560 0074 7A68     		ldr	r2, [r7, #4]
 2561 0076 7B6A     		ldr	r3, [r7, #36]
 2562 0078 D31A     		subs	r3, r2, r3
 2563 007a 6C4A     		ldr	r2, .L213+12
 2564 007c 1900     		movs	r1, r3
 2565 007e FFF7FEFF 		bl	utils_stringCopy
 2566 0082 0300     		movs	r3, r0
 2567 0084 3B62     		str	r3, [r7, #32]
ARM GAS  C:\Users\SONG_J~1\AppData\Local\Temp\ccPyj9I7.s 			page 46


 2568              	.L195:
 2569 0086 3B6A     		ldr	r3, [r7, #32]
 2570 0088 002B     		cmp	r3, #0
 2571 008a 01DA     		bge	.L196
 2572 008c 0023     		movs	r3, #0
 2573 008e C3E0     		b	.L193
 2574              	.L196:
 2575 0090 3B6A     		ldr	r3, [r7, #32]
 2576 0092 7A6A     		ldr	r2, [r7, #36]
 2577 0094 D318     		adds	r3, r2, r3
 2578 0096 7B62     		str	r3, [r7, #36]
 2579 0098 BA68     		ldr	r2, [r7, #8]
 2580 009a 7B6A     		ldr	r3, [r7, #36]
 2581 009c D018     		adds	r0, r2, r3
 2582 009e 7A68     		ldr	r2, [r7, #4]
 2583 00a0 7B6A     		ldr	r3, [r7, #36]
 2584 00a2 D31A     		subs	r3, r2, r3
 2585 00a4 624A     		ldr	r2, .L213+16
 2586 00a6 1900     		movs	r1, r3
 2587 00a8 FFF7FEFF 		bl	utils_stringCopy
 2588 00ac 0300     		movs	r3, r0
 2589 00ae 3B62     		str	r3, [r7, #32]
 2590 00b0 3B6A     		ldr	r3, [r7, #32]
 2591 00b2 002B     		cmp	r3, #0
 2592 00b4 01DA     		bge	.L197
 2593 00b6 0023     		movs	r3, #0
 2594 00b8 AEE0     		b	.L193
 2595              	.L197:
 2596 00ba 3B6A     		ldr	r3, [r7, #32]
 2597 00bc 7A6A     		ldr	r2, [r7, #36]
 2598 00be D318     		adds	r3, r2, r3
 2599 00c0 7B62     		str	r3, [r7, #36]
 2600 00c2 FB68     		ldr	r3, [r7, #12]
 2601 00c4 9B69     		ldr	r3, [r3, #24]
 2602 00c6 FB61     		str	r3, [r7, #28]
 2603 00c8 96E0     		b	.L198
 2604              	.L210:
 2605 00ca FB69     		ldr	r3, [r7, #28]
 2606 00cc 9B88     		ldrh	r3, [r3, #4]
 2607 00ce 002B     		cmp	r3, #0
 2608 00d0 00D1     		bne	.LCB2844
 2609 00d2 8DE0     		b	.L212	@long jump
 2610              	.LCB2844:
 2611 00d4 7B6A     		ldr	r3, [r7, #36]
 2612 00d6 7B61     		str	r3, [r7, #20]
 2613 00d8 BA68     		ldr	r2, [r7, #8]
 2614 00da 7B6A     		ldr	r3, [r7, #36]
 2615 00dc D018     		adds	r0, r2, r3
 2616 00de 7A68     		ldr	r2, [r7, #4]
 2617 00e0 7B6A     		ldr	r3, [r7, #36]
 2618 00e2 D11A     		subs	r1, r2, r3
 2619 00e4 FB69     		ldr	r3, [r7, #28]
 2620 00e6 9B88     		ldrh	r3, [r3, #4]
 2621 00e8 1A00     		movs	r2, r3
 2622 00ea FFF7FEFF 		bl	prv_getObjectTemplate
 2623 00ee 0300     		movs	r3, r0
 2624 00f0 3B62     		str	r3, [r7, #32]
ARM GAS  C:\Users\SONG_J~1\AppData\Local\Temp\ccPyj9I7.s 			page 47


 2625 00f2 3B6A     		ldr	r3, [r7, #32]
 2626 00f4 002B     		cmp	r3, #0
 2627 00f6 01DA     		bge	.L201
 2628 00f8 0023     		movs	r3, #0
 2629 00fa 8DE0     		b	.L193
 2630              	.L201:
 2631 00fc 3B6A     		ldr	r3, [r7, #32]
 2632 00fe 3B61     		str	r3, [r7, #16]
 2633 0100 7A6A     		ldr	r2, [r7, #36]
 2634 0102 3B69     		ldr	r3, [r7, #16]
 2635 0104 D318     		adds	r3, r2, r3
 2636 0106 7B62     		str	r3, [r7, #36]
 2637 0108 FB69     		ldr	r3, [r7, #28]
 2638 010a 9B68     		ldr	r3, [r3, #8]
 2639 010c 002B     		cmp	r3, #0
 2640 010e 18D1     		bne	.L202
 2641 0110 7B6A     		ldr	r3, [r7, #36]
 2642 0112 013B     		subs	r3, r3, #1
 2643 0114 7B62     		str	r3, [r7, #36]
 2644 0116 BA68     		ldr	r2, [r7, #8]
 2645 0118 7B6A     		ldr	r3, [r7, #36]
 2646 011a D018     		adds	r0, r2, r3
 2647 011c 7A68     		ldr	r2, [r7, #4]
 2648 011e 7B6A     		ldr	r3, [r7, #36]
 2649 0120 D31A     		subs	r3, r2, r3
 2650 0122 444A     		ldr	r2, .L213+20
 2651 0124 1900     		movs	r1, r3
 2652 0126 FFF7FEFF 		bl	utils_stringCopy
 2653 012a 0300     		movs	r3, r0
 2654 012c 3B62     		str	r3, [r7, #32]
 2655 012e 3B6A     		ldr	r3, [r7, #32]
 2656 0130 002B     		cmp	r3, #0
 2657 0132 01DA     		bge	.L203
 2658 0134 0023     		movs	r3, #0
 2659 0136 6FE0     		b	.L193
 2660              	.L203:
 2661 0138 3B6A     		ldr	r3, [r7, #32]
 2662 013a 7A6A     		ldr	r2, [r7, #36]
 2663 013c D318     		adds	r3, r2, r3
 2664 013e 7B62     		str	r3, [r7, #36]
 2665 0140 57E0     		b	.L200
 2666              	.L202:
 2667 0142 FB69     		ldr	r3, [r7, #28]
 2668 0144 9B68     		ldr	r3, [r3, #8]
 2669 0146 BB61     		str	r3, [r7, #24]
 2670 0148 4EE0     		b	.L204
 2671              	.L209:
 2672 014a 7A69     		ldr	r2, [r7, #20]
 2673 014c 3B69     		ldr	r3, [r7, #16]
 2674 014e D318     		adds	r3, r2, r3
 2675 0150 7A6A     		ldr	r2, [r7, #36]
 2676 0152 9A42     		cmp	r2, r3
 2677 0154 15D0     		beq	.L205
 2678 0156 7A68     		ldr	r2, [r7, #4]
 2679 0158 7B6A     		ldr	r3, [r7, #36]
 2680 015a D31A     		subs	r3, r2, r3
 2681 015c 3A69     		ldr	r2, [r7, #16]
ARM GAS  C:\Users\SONG_J~1\AppData\Local\Temp\ccPyj9I7.s 			page 48


 2682 015e 9A42     		cmp	r2, r3
 2683 0160 01D3     		bcc	.L206
 2684 0162 0023     		movs	r3, #0
 2685 0164 58E0     		b	.L193
 2686              	.L206:
 2687 0166 BA68     		ldr	r2, [r7, #8]
 2688 0168 7B6A     		ldr	r3, [r7, #36]
 2689 016a D018     		adds	r0, r2, r3
 2690 016c BA68     		ldr	r2, [r7, #8]
 2691 016e 7B69     		ldr	r3, [r7, #20]
 2692 0170 D318     		adds	r3, r2, r3
 2693 0172 3A69     		ldr	r2, [r7, #16]
 2694 0174 1900     		movs	r1, r3
 2695 0176 FFF7FEFF 		bl	memcpy
 2696 017a 7A6A     		ldr	r2, [r7, #36]
 2697 017c 3B69     		ldr	r3, [r7, #16]
 2698 017e D318     		adds	r3, r2, r3
 2699 0180 7B62     		str	r3, [r7, #36]
 2700              	.L205:
 2701 0182 BB69     		ldr	r3, [r7, #24]
 2702 0184 9B88     		ldrh	r3, [r3, #4]
 2703 0186 1C00     		movs	r4, r3
 2704 0188 0023     		movs	r3, #0
 2705 018a 1D00     		movs	r5, r3
 2706 018c BA68     		ldr	r2, [r7, #8]
 2707 018e 7B6A     		ldr	r3, [r7, #36]
 2708 0190 D118     		adds	r1, r2, r3
 2709 0192 7A68     		ldr	r2, [r7, #4]
 2710 0194 7B6A     		ldr	r3, [r7, #36]
 2711 0196 D31A     		subs	r3, r2, r3
 2712 0198 0A00     		movs	r2, r1
 2713 019a 2000     		movs	r0, r4
 2714 019c 2900     		movs	r1, r5
 2715 019e FFF7FEFF 		bl	utils_intToText
 2716 01a2 0300     		movs	r3, r0
 2717 01a4 3B62     		str	r3, [r7, #32]
 2718 01a6 3B6A     		ldr	r3, [r7, #32]
 2719 01a8 002B     		cmp	r3, #0
 2720 01aa 01D1     		bne	.L207
 2721 01ac 0023     		movs	r3, #0
 2722 01ae 33E0     		b	.L193
 2723              	.L207:
 2724 01b0 3B6A     		ldr	r3, [r7, #32]
 2725 01b2 7A6A     		ldr	r2, [r7, #36]
 2726 01b4 D318     		adds	r3, r2, r3
 2727 01b6 7B62     		str	r3, [r7, #36]
 2728 01b8 BA68     		ldr	r2, [r7, #8]
 2729 01ba 7B6A     		ldr	r3, [r7, #36]
 2730 01bc D018     		adds	r0, r2, r3
 2731 01be 7A68     		ldr	r2, [r7, #4]
 2732 01c0 7B6A     		ldr	r3, [r7, #36]
 2733 01c2 D31A     		subs	r3, r2, r3
 2734 01c4 1B4A     		ldr	r2, .L213+20
 2735 01c6 1900     		movs	r1, r3
 2736 01c8 FFF7FEFF 		bl	utils_stringCopy
 2737 01cc 0300     		movs	r3, r0
 2738 01ce 3B62     		str	r3, [r7, #32]
ARM GAS  C:\Users\SONG_J~1\AppData\Local\Temp\ccPyj9I7.s 			page 49


 2739 01d0 3B6A     		ldr	r3, [r7, #32]
 2740 01d2 002B     		cmp	r3, #0
 2741 01d4 01DA     		bge	.L208
 2742 01d6 0023     		movs	r3, #0
 2743 01d8 1EE0     		b	.L193
 2744              	.L208:
 2745 01da 3B6A     		ldr	r3, [r7, #32]
 2746 01dc 7A6A     		ldr	r2, [r7, #36]
 2747 01de D318     		adds	r3, r2, r3
 2748 01e0 7B62     		str	r3, [r7, #36]
 2749 01e2 BB69     		ldr	r3, [r7, #24]
 2750 01e4 1B68     		ldr	r3, [r3]
 2751 01e6 BB61     		str	r3, [r7, #24]
 2752              	.L204:
 2753 01e8 BB69     		ldr	r3, [r7, #24]
 2754 01ea 002B     		cmp	r3, #0
 2755 01ec ADD1     		bne	.L209
 2756 01ee 00E0     		b	.L200
 2757              	.L212:
 2758 01f0 C046     		nop
 2759              	.L200:
 2760 01f2 FB69     		ldr	r3, [r7, #28]
 2761 01f4 1B68     		ldr	r3, [r3]
 2762 01f6 FB61     		str	r3, [r7, #28]
 2763              	.L198:
 2764 01f8 FB69     		ldr	r3, [r7, #28]
 2765 01fa 002B     		cmp	r3, #0
 2766 01fc 00D0     		beq	.LCB3020
 2767 01fe 64E7     		b	.L210	@long jump
 2768              	.LCB3020:
 2769 0200 7B6A     		ldr	r3, [r7, #36]
 2770 0202 002B     		cmp	r3, #0
 2771 0204 02D0     		beq	.L211
 2772 0206 7B6A     		ldr	r3, [r7, #36]
 2773 0208 013B     		subs	r3, r3, #1
 2774 020a 7B62     		str	r3, [r7, #36]
 2775              	.L211:
 2776 020c BA68     		ldr	r2, [r7, #8]
 2777 020e 7B6A     		ldr	r3, [r7, #36]
 2778 0210 D318     		adds	r3, r2, r3
 2779 0212 0022     		movs	r2, #0
 2780 0214 1A70     		strb	r2, [r3]
 2781 0216 7B6A     		ldr	r3, [r7, #36]
 2782              	.L193:
 2783 0218 1800     		movs	r0, r3
 2784 021a BD46     		mov	sp, r7
 2785 021c 0AB0     		add	sp, sp, #40
 2786              		@ sp needed
 2787 021e B0BD     		pop	{r4, r5, r7, pc}
 2788              	.L214:
 2789              		.align	2
 2790              	.L213:
 2791 0220 00000000 		.word	__func__.7618
 2792 0224 8C000000 		.word	.LC51
 2793 0228 A0000000 		.word	.LC66
 2794 022c A4000000 		.word	.LC68
 2795 0230 A8000000 		.word	.LC70
ARM GAS  C:\Users\SONG_J~1\AppData\Local\Temp\ccPyj9I7.s 			page 50


 2796 0234 BC000000 		.word	.LC72
 2798              		.section	.text.prv_findServerInstance,"ax",%progbits
 2799              		.align	1
 2800              		.syntax unified
 2801              		.code	16
 2802              		.thumb_func
 2803              		.fpu softvfp
 2805              	prv_findServerInstance:
 2806              		@ args = 0, pretend = 0, frame = 32
 2807              		@ frame_needed = 1, uses_anonymous_args = 0
 2808 0000 F0B5     		push	{r4, r5, r6, r7, lr}
 2809 0002 8BB0     		sub	sp, sp, #44
 2810 0004 02AF     		add	r7, sp, #8
 2811 0006 7860     		str	r0, [r7, #4]
 2812 0008 0A00     		movs	r2, r1
 2813 000a BB1C     		adds	r3, r7, #2
 2814 000c 1A80     		strh	r2, [r3]
 2815 000e 7B68     		ldr	r3, [r7, #4]
 2816 0010 9B68     		ldr	r3, [r3, #8]
 2817 0012 FB61     		str	r3, [r7, #28]
 2818 0014 4CE0     		b	.L216
 2819              	.L223:
 2820 0016 0123     		movs	r3, #1
 2821 0018 BB60     		str	r3, [r7, #8]
 2822 001a BB68     		ldr	r3, [r7, #8]
 2823 001c 1800     		movs	r0, r3
 2824 001e FFF7FEFF 		bl	lwm2m_data_new
 2825 0022 0300     		movs	r3, r0
 2826 0024 FB60     		str	r3, [r7, #12]
 2827 0026 FB68     		ldr	r3, [r7, #12]
 2828 0028 002B     		cmp	r3, #0
 2829 002a 01D1     		bne	.L217
 2830 002c 0023     		movs	r3, #0
 2831 002e 43E0     		b	.L222
 2832              	.L217:
 2833 0030 FB68     		ldr	r3, [r7, #12]
 2834 0032 0022     		movs	r2, #0
 2835 0034 5A80     		strh	r2, [r3, #2]
 2836 0036 7B68     		ldr	r3, [r7, #4]
 2837 0038 DC68     		ldr	r4, [r3, #12]
 2838 003a FB69     		ldr	r3, [r7, #28]
 2839 003c 9888     		ldrh	r0, [r3, #4]
 2840 003e 0C23     		movs	r3, #12
 2841 0040 FA18     		adds	r2, r7, r3
 2842 0042 0823     		movs	r3, #8
 2843 0044 F918     		adds	r1, r7, r3
 2844 0046 7B68     		ldr	r3, [r7, #4]
 2845 0048 0093     		str	r3, [sp]
 2846 004a 0023     		movs	r3, #0
 2847 004c A047     		blx	r4
 2848 004e 0300     		movs	r3, r0
 2849 0050 452B     		cmp	r3, #69
 2850 0052 07D0     		beq	.L219
 2851 0054 BB68     		ldr	r3, [r7, #8]
 2852 0056 FA68     		ldr	r2, [r7, #12]
 2853 0058 1100     		movs	r1, r2
 2854 005a 1800     		movs	r0, r3
ARM GAS  C:\Users\SONG_J~1\AppData\Local\Temp\ccPyj9I7.s 			page 51


 2855 005c FFF7FEFF 		bl	lwm2m_data_free
 2856 0060 0023     		movs	r3, #0
 2857 0062 29E0     		b	.L222
 2858              	.L219:
 2859 0064 FB68     		ldr	r3, [r7, #12]
 2860 0066 1022     		movs	r2, #16
 2861 0068 BA18     		adds	r2, r7, r2
 2862 006a 1100     		movs	r1, r2
 2863 006c 1800     		movs	r0, r3
 2864 006e FFF7FEFF 		bl	lwm2m_data_decode_int
 2865 0072 0300     		movs	r3, r0
 2866 0074 012B     		cmp	r3, #1
 2867 0076 12D1     		bne	.L220
 2868 0078 BB1C     		adds	r3, r7, #2
 2869 007a 1B88     		ldrh	r3, [r3]
 2870 007c 9BB2     		uxth	r3, r3
 2871 007e 1D00     		movs	r5, r3
 2872 0080 0023     		movs	r3, #0
 2873 0082 1E00     		movs	r6, r3
 2874 0084 3B69     		ldr	r3, [r7, #16]
 2875 0086 7C69     		ldr	r4, [r7, #20]
 2876 0088 9D42     		cmp	r5, r3
 2877 008a 08D1     		bne	.L220
 2878 008c A642     		cmp	r6, r4
 2879 008e 06D1     		bne	.L220
 2880 0090 BB68     		ldr	r3, [r7, #8]
 2881 0092 FA68     		ldr	r2, [r7, #12]
 2882 0094 1100     		movs	r1, r2
 2883 0096 1800     		movs	r0, r3
 2884 0098 FFF7FEFF 		bl	lwm2m_data_free
 2885 009c 0BE0     		b	.L221
 2886              	.L220:
 2887 009e BB68     		ldr	r3, [r7, #8]
 2888 00a0 FA68     		ldr	r2, [r7, #12]
 2889 00a2 1100     		movs	r1, r2
 2890 00a4 1800     		movs	r0, r3
 2891 00a6 FFF7FEFF 		bl	lwm2m_data_free
 2892 00aa FB69     		ldr	r3, [r7, #28]
 2893 00ac 1B68     		ldr	r3, [r3]
 2894 00ae FB61     		str	r3, [r7, #28]
 2895              	.L216:
 2896 00b0 FB69     		ldr	r3, [r7, #28]
 2897 00b2 002B     		cmp	r3, #0
 2898 00b4 AFD1     		bne	.L223
 2899              	.L221:
 2900 00b6 FB69     		ldr	r3, [r7, #28]
 2901              	.L222:
 2902 00b8 1800     		movs	r0, r3
 2903 00ba BD46     		mov	sp, r7
 2904 00bc 09B0     		add	sp, sp, #36
 2905              		@ sp needed
 2906 00be F0BD     		pop	{r4, r5, r6, r7, pc}
 2908              		.section	.text.prv_getMandatoryInfo,"ax",%progbits
 2909              		.align	1
 2910              		.syntax unified
 2911              		.code	16
 2912              		.thumb_func
ARM GAS  C:\Users\SONG_J~1\AppData\Local\Temp\ccPyj9I7.s 			page 52


 2913              		.fpu softvfp
 2915              	prv_getMandatoryInfo:
 2916              		@ args = 0, pretend = 0, frame = 32
 2917              		@ frame_needed = 1, uses_anonymous_args = 0
 2918 0000 90B5     		push	{r4, r7, lr}
 2919 0002 8BB0     		sub	sp, sp, #44
 2920 0004 02AF     		add	r7, sp, #8
 2921 0006 F860     		str	r0, [r7, #12]
 2922 0008 7A60     		str	r2, [r7, #4]
 2923 000a 0A23     		movs	r3, #10
 2924 000c FB18     		adds	r3, r7, r3
 2925 000e 0A1C     		adds	r2, r1, #0
 2926 0010 1A80     		strh	r2, [r3]
 2927 0012 0223     		movs	r3, #2
 2928 0014 BB61     		str	r3, [r7, #24]
 2929 0016 BB69     		ldr	r3, [r7, #24]
 2930 0018 1800     		movs	r0, r3
 2931 001a FFF7FEFF 		bl	lwm2m_data_new
 2932 001e 0300     		movs	r3, r0
 2933 0020 FB61     		str	r3, [r7, #28]
 2934 0022 FB69     		ldr	r3, [r7, #28]
 2935 0024 002B     		cmp	r3, #0
 2936 0026 02D1     		bne	.L225
 2937 0028 0123     		movs	r3, #1
 2938 002a 5B42     		rsbs	r3, r3, #0
 2939 002c 5AE0     		b	.L233
 2940              	.L225:
 2941 002e FB69     		ldr	r3, [r7, #28]
 2942 0030 0122     		movs	r2, #1
 2943 0032 5A80     		strh	r2, [r3, #2]
 2944 0034 FB69     		ldr	r3, [r7, #28]
 2945 0036 1033     		adds	r3, r3, #16
 2946 0038 0722     		movs	r2, #7
 2947 003a 5A80     		strh	r2, [r3, #2]
 2948 003c FB68     		ldr	r3, [r7, #12]
 2949 003e DC68     		ldr	r4, [r3, #12]
 2950 0040 1C23     		movs	r3, #28
 2951 0042 FA18     		adds	r2, r7, r3
 2952 0044 1823     		movs	r3, #24
 2953 0046 F918     		adds	r1, r7, r3
 2954 0048 0A23     		movs	r3, #10
 2955 004a FB18     		adds	r3, r7, r3
 2956 004c 1888     		ldrh	r0, [r3]
 2957 004e FB68     		ldr	r3, [r7, #12]
 2958 0050 0093     		str	r3, [sp]
 2959 0052 0023     		movs	r3, #0
 2960 0054 A047     		blx	r4
 2961 0056 0300     		movs	r3, r0
 2962 0058 452B     		cmp	r3, #69
 2963 005a 08D0     		beq	.L227
 2964 005c BB69     		ldr	r3, [r7, #24]
 2965 005e FA69     		ldr	r2, [r7, #28]
 2966 0060 1100     		movs	r1, r2
 2967 0062 1800     		movs	r0, r3
 2968 0064 FFF7FEFF 		bl	lwm2m_data_free
 2969 0068 0123     		movs	r3, #1
 2970 006a 5B42     		rsbs	r3, r3, #0
ARM GAS  C:\Users\SONG_J~1\AppData\Local\Temp\ccPyj9I7.s 			page 53


 2971 006c 3AE0     		b	.L233
 2972              	.L227:
 2973 006e FB69     		ldr	r3, [r7, #28]
 2974 0070 1022     		movs	r2, #16
 2975 0072 BA18     		adds	r2, r7, r2
 2976 0074 1100     		movs	r1, r2
 2977 0076 1800     		movs	r0, r3
 2978 0078 FFF7FEFF 		bl	lwm2m_data_decode_int
 2979 007c 031E     		subs	r3, r0, #0
 2980 007e 07D0     		beq	.L228
 2981 0080 3B69     		ldr	r3, [r7, #16]
 2982 0082 7C69     		ldr	r4, [r7, #20]
 2983 0084 002C     		cmp	r4, #0
 2984 0086 03DB     		blt	.L228
 2985 0088 3B69     		ldr	r3, [r7, #16]
 2986 008a 7C69     		ldr	r4, [r7, #20]
 2987 008c 002C     		cmp	r4, #0
 2988 008e 08DD     		ble	.L234
 2989              	.L228:
 2990 0090 BB69     		ldr	r3, [r7, #24]
 2991 0092 FA69     		ldr	r2, [r7, #28]
 2992 0094 1100     		movs	r1, r2
 2993 0096 1800     		movs	r0, r3
 2994 0098 FFF7FEFF 		bl	lwm2m_data_free
 2995 009c 0123     		movs	r3, #1
 2996 009e 5B42     		rsbs	r3, r3, #0
 2997 00a0 20E0     		b	.L233
 2998              	.L234:
 2999 00a2 3B69     		ldr	r3, [r7, #16]
 3000 00a4 7C69     		ldr	r4, [r7, #20]
 3001 00a6 7A68     		ldr	r2, [r7, #4]
 3002 00a8 9360     		str	r3, [r2, #8]
 3003 00aa D460     		str	r4, [r2, #12]
 3004 00ac FB69     		ldr	r3, [r7, #28]
 3005 00ae 1033     		adds	r3, r3, #16
 3006 00b0 DA68     		ldr	r2, [r3, #12]
 3007 00b2 FB69     		ldr	r3, [r7, #28]
 3008 00b4 1033     		adds	r3, r3, #16
 3009 00b6 9B68     		ldr	r3, [r3, #8]
 3010 00b8 1900     		movs	r1, r3
 3011 00ba 1000     		movs	r0, r2
 3012 00bc FFF7FEFF 		bl	utils_stringToBinding
 3013 00c0 0300     		movs	r3, r0
 3014 00c2 1A00     		movs	r2, r3
 3015 00c4 7B68     		ldr	r3, [r7, #4]
 3016 00c6 1A76     		strb	r2, [r3, #24]
 3017 00c8 BB69     		ldr	r3, [r7, #24]
 3018 00ca FA69     		ldr	r2, [r7, #28]
 3019 00cc 1100     		movs	r1, r2
 3020 00ce 1800     		movs	r0, r3
 3021 00d0 FFF7FEFF 		bl	lwm2m_data_free
 3022 00d4 7B68     		ldr	r3, [r7, #4]
 3023 00d6 1B7E     		ldrb	r3, [r3, #24]
 3024 00d8 002B     		cmp	r3, #0
 3025 00da 02D1     		bne	.L232
 3026 00dc 0123     		movs	r3, #1
 3027 00de 5B42     		rsbs	r3, r3, #0
ARM GAS  C:\Users\SONG_J~1\AppData\Local\Temp\ccPyj9I7.s 			page 54


 3028 00e0 00E0     		b	.L233
 3029              	.L232:
 3030 00e2 0023     		movs	r3, #0
 3031              	.L233:
 3032 00e4 1800     		movs	r0, r3
 3033 00e6 BD46     		mov	sp, r7
 3034 00e8 09B0     		add	sp, sp, #36
 3035              		@ sp needed
 3036 00ea 90BD     		pop	{r4, r7, pc}
 3038              		.section	.rodata
 3039 00bf 00       		.align	2
 3040              	.LC76:
 3041 00c0 5B25733A 		.ascii	"[%s:%d] objID %d\015\012\000"
 3041      25645D20 
 3041      6F626A49 
 3041      44202564 
 3041      0D0A00
 3042 00d3 00       		.align	2
 3043              	.LC78:
 3044 00d4 5B25733A 		.ascii	"[%s:%d] number %d\015\012\000"
 3044      25645D20 
 3044      6E756D62 
 3044      65722025 
 3044      640D0A00 
 3045              		.align	2
 3046              	.LC80:
 3047 00e8 5B25733A 		.ascii	"[%s:%d] securityObjP->readFunc fail id %d\015\012\000"
 3047      25645D20 
 3047      73656375 
 3047      72697479 
 3047      4F626A50 
 3048              		.align	2
 3049              	.LC82:
 3050 0114 5B25733A 		.ascii	"[%s:%d] lwm2m_malloc fail id %d\015\012\000"
 3050      25645D20 
 3050      6C776D32 
 3050      6D5F6D61 
 3050      6C6C6F63 
 3051 0136 0000     		.align	2
 3052              	.LC84:
 3053 0138 5B25733A 		.ascii	"[%s:%d] lwm2m_data_decode_bool fail id %d\015\012\000"
 3053      25645D20 
 3053      6C776D32 
 3053      6D5F6461 
 3053      74615F64 
 3054              		.align	2
 3055              	.LC86:
 3056 0164 5B25733A 		.ascii	"[%s:%d] lwm2m_data_decode_int fail id %d\015\012\000"
 3056      25645D20 
 3056      6C776D32 
 3056      6D5F6461 
 3056      74615F64 
 3057 018f 00       		.align	2
 3058              	.LC88:
 3059 0190 5B25733A 		.ascii	"[%s:%d] prv_getMandatoryInfo fail id %d\015\012\000"
 3059      25645D20 
 3059      7072765F 
ARM GAS  C:\Users\SONG_J~1\AppData\Local\Temp\ccPyj9I7.s 			page 55


 3059      6765744D 
 3059      616E6461 
 3060              		.section	.text.object_getServers,"ax",%progbits
 3061              		.align	1
 3062              		.global	object_getServers
 3063              		.syntax unified
 3064              		.code	16
 3065              		.thumb_func
 3066              		.fpu softvfp
 3068              	object_getServers:
 3069              		@ args = 0, pretend = 0, frame = 56
 3070              		@ frame_needed = 1, uses_anonymous_args = 0
 3071 0000 F0B5     		push	{r4, r5, r6, r7, lr}
 3072 0002 91B0     		sub	sp, sp, #68
 3073 0004 02AF     		add	r7, sp, #8
 3074 0006 7860     		str	r0, [r7, #4]
 3075 0008 0A00     		movs	r2, r1
 3076 000a FB1C     		adds	r3, r7, #3
 3077 000c 1A70     		strb	r2, [r3]
 3078 000e 0023     		movs	r3, #0
 3079 0010 3B63     		str	r3, [r7, #48]
 3080 0012 0023     		movs	r3, #0
 3081 0014 FB62     		str	r3, [r7, #44]
 3082 0016 0023     		movs	r3, #0
 3083 0018 7B62     		str	r3, [r7, #36]
 3084 001a C14A     		ldr	r2, .L267
 3085 001c C149     		ldr	r1, .L267+4
 3086 001e C24B     		ldr	r3, .L267+8
 3087 0020 1800     		movs	r0, r3
 3088 0022 FFF7FEFF 		bl	atiny_printf
 3089 0026 7B68     		ldr	r3, [r7, #4]
 3090 0028 9B69     		ldr	r3, [r3, #24]
 3091 002a 7B63     		str	r3, [r7, #52]
 3092 002c 19E0     		b	.L236
 3093              	.L239:
 3094 002e 7B6B     		ldr	r3, [r7, #52]
 3095 0030 9B88     		ldrh	r3, [r3, #4]
 3096 0032 002B     		cmp	r3, #0
 3097 0034 02D1     		bne	.L237
 3098 0036 7B6B     		ldr	r3, [r7, #52]
 3099 0038 3B63     		str	r3, [r7, #48]
 3100 003a 05E0     		b	.L238
 3101              	.L237:
 3102 003c 7B6B     		ldr	r3, [r7, #52]
 3103 003e 9B88     		ldrh	r3, [r3, #4]
 3104 0040 012B     		cmp	r3, #1
 3105 0042 01D1     		bne	.L238
 3106 0044 7B6B     		ldr	r3, [r7, #52]
 3107 0046 FB62     		str	r3, [r7, #44]
 3108              	.L238:
 3109 0048 7B6B     		ldr	r3, [r7, #52]
 3110 004a 9B88     		ldrh	r3, [r3, #4]
 3111 004c B74A     		ldr	r2, .L267+12
 3112 004e B549     		ldr	r1, .L267+4
 3113 0050 B748     		ldr	r0, .L267+16
 3114 0052 FFF7FEFF 		bl	atiny_printf
 3115 0056 7B6A     		ldr	r3, [r7, #36]
ARM GAS  C:\Users\SONG_J~1\AppData\Local\Temp\ccPyj9I7.s 			page 56


 3116 0058 0133     		adds	r3, r3, #1
 3117 005a 7B62     		str	r3, [r7, #36]
 3118 005c 7B6B     		ldr	r3, [r7, #52]
 3119 005e 1B68     		ldr	r3, [r3]
 3120 0060 7B63     		str	r3, [r7, #52]
 3121              	.L236:
 3122 0062 7B6B     		ldr	r3, [r7, #52]
 3123 0064 002B     		cmp	r3, #0
 3124 0066 E2D1     		bne	.L239
 3125 0068 7B6A     		ldr	r3, [r7, #36]
 3126 006a B24A     		ldr	r2, .L267+20
 3127 006c AD49     		ldr	r1, .L267+4
 3128 006e B248     		ldr	r0, .L267+24
 3129 0070 FFF7FEFF 		bl	atiny_printf
 3130 0074 3B6B     		ldr	r3, [r7, #48]
 3131 0076 002B     		cmp	r3, #0
 3132 0078 02D1     		bne	.L240
 3133 007a 0123     		movs	r3, #1
 3134 007c 5B42     		rsbs	r3, r3, #0
 3135 007e 8DE1     		b	.L241
 3136              	.L240:
 3137 0080 3B6B     		ldr	r3, [r7, #48]
 3138 0082 9B68     		ldr	r3, [r3, #8]
 3139 0084 BB62     		str	r3, [r7, #40]
 3140 0086 84E1     		b	.L242
 3141              	.L264:
 3142 0088 7B68     		ldr	r3, [r7, #4]
 3143 008a 1A69     		ldr	r2, [r3, #16]
 3144 008c BB6A     		ldr	r3, [r7, #40]
 3145 008e 9B88     		ldrh	r3, [r3, #4]
 3146 0090 1900     		movs	r1, r3
 3147 0092 1000     		movs	r0, r2
 3148 0094 FFF7FEFF 		bl	lwm2m_list_find
 3149 0098 031E     		subs	r3, r0, #0
 3150 009a 00D0     		beq	.LCB3412
 3151 009c 76E1     		b	.L243	@long jump
 3152              	.LCB3412:
 3153 009e 7B68     		ldr	r3, [r7, #4]
 3154 00a0 5A69     		ldr	r2, [r3, #20]
 3155 00a2 BB6A     		ldr	r3, [r7, #40]
 3156 00a4 9B88     		ldrh	r3, [r3, #4]
 3157 00a6 1900     		movs	r1, r3
 3158 00a8 1000     		movs	r0, r2
 3159 00aa FFF7FEFF 		bl	lwm2m_list_find
 3160 00ae 031E     		subs	r3, r0, #0
 3161 00b0 00D0     		beq	.LCB3422
 3162 00b2 6BE1     		b	.L243	@long jump
 3163              	.LCB3422:
 3164 00b4 0023     		movs	r3, #0
 3165 00b6 0024     		movs	r4, #0
 3166 00b8 BB60     		str	r3, [r7, #8]
 3167 00ba FC60     		str	r4, [r7, #12]
 3168 00bc 0323     		movs	r3, #3
 3169 00be 7B61     		str	r3, [r7, #20]
 3170 00c0 7B69     		ldr	r3, [r7, #20]
 3171 00c2 1800     		movs	r0, r3
 3172 00c4 FFF7FEFF 		bl	lwm2m_data_new
ARM GAS  C:\Users\SONG_J~1\AppData\Local\Temp\ccPyj9I7.s 			page 57


 3173 00c8 0300     		movs	r3, r0
 3174 00ca BB61     		str	r3, [r7, #24]
 3175 00cc BB69     		ldr	r3, [r7, #24]
 3176 00ce 002B     		cmp	r3, #0
 3177 00d0 02D1     		bne	.L244
 3178 00d2 0123     		movs	r3, #1
 3179 00d4 5B42     		rsbs	r3, r3, #0
 3180 00d6 61E1     		b	.L241
 3181              	.L244:
 3182 00d8 BB69     		ldr	r3, [r7, #24]
 3183 00da 0122     		movs	r2, #1
 3184 00dc 5A80     		strh	r2, [r3, #2]
 3185 00de BB69     		ldr	r3, [r7, #24]
 3186 00e0 1033     		adds	r3, r3, #16
 3187 00e2 0A22     		movs	r2, #10
 3188 00e4 5A80     		strh	r2, [r3, #2]
 3189 00e6 BB69     		ldr	r3, [r7, #24]
 3190 00e8 2033     		adds	r3, r3, #32
 3191 00ea 0B22     		movs	r2, #11
 3192 00ec 5A80     		strh	r2, [r3, #2]
 3193 00ee 3B6B     		ldr	r3, [r7, #48]
 3194 00f0 DC68     		ldr	r4, [r3, #12]
 3195 00f2 BB6A     		ldr	r3, [r7, #40]
 3196 00f4 9888     		ldrh	r0, [r3, #4]
 3197 00f6 1823     		movs	r3, #24
 3198 00f8 FA18     		adds	r2, r7, r3
 3199 00fa 1423     		movs	r3, #20
 3200 00fc F918     		adds	r1, r7, r3
 3201 00fe 3B6B     		ldr	r3, [r7, #48]
 3202 0100 0093     		str	r3, [sp]
 3203 0102 0023     		movs	r3, #0
 3204 0104 A047     		blx	r4
 3205 0106 0300     		movs	r3, r0
 3206 0108 452B     		cmp	r3, #69
 3207 010a 0FD0     		beq	.L246
 3208 010c BB6A     		ldr	r3, [r7, #40]
 3209 010e 9B88     		ldrh	r3, [r3, #4]
 3210 0110 8A4A     		ldr	r2, .L267+28
 3211 0112 8449     		ldr	r1, .L267+4
 3212 0114 8A48     		ldr	r0, .L267+32
 3213 0116 FFF7FEFF 		bl	atiny_printf
 3214 011a 7B69     		ldr	r3, [r7, #20]
 3215 011c BA69     		ldr	r2, [r7, #24]
 3216 011e 1100     		movs	r1, r2
 3217 0120 1800     		movs	r0, r3
 3218 0122 FFF7FEFF 		bl	lwm2m_data_free
 3219 0126 0123     		movs	r3, #1
 3220 0128 5B42     		rsbs	r3, r3, #0
 3221 012a 37E1     		b	.L241
 3222              	.L246:
 3223 012c 3020     		movs	r0, #48
 3224 012e FFF7FEFF 		bl	lwm2m_malloc
 3225 0132 0300     		movs	r3, r0
 3226 0134 3B62     		str	r3, [r7, #32]
 3227 0136 3B6A     		ldr	r3, [r7, #32]
 3228 0138 002B     		cmp	r3, #0
 3229 013a 0FD1     		bne	.L247
ARM GAS  C:\Users\SONG_J~1\AppData\Local\Temp\ccPyj9I7.s 			page 58


 3230 013c BB6A     		ldr	r3, [r7, #40]
 3231 013e 9B88     		ldrh	r3, [r3, #4]
 3232 0140 804A     		ldr	r2, .L267+36
 3233 0142 7849     		ldr	r1, .L267+4
 3234 0144 8048     		ldr	r0, .L267+40
 3235 0146 FFF7FEFF 		bl	atiny_printf
 3236 014a 7B69     		ldr	r3, [r7, #20]
 3237 014c BA69     		ldr	r2, [r7, #24]
 3238 014e 1100     		movs	r1, r2
 3239 0150 1800     		movs	r0, r3
 3240 0152 FFF7FEFF 		bl	lwm2m_data_free
 3241 0156 0123     		movs	r3, #1
 3242 0158 5B42     		rsbs	r3, r3, #0
 3243 015a 1FE1     		b	.L241
 3244              	.L247:
 3245 015c 3B6A     		ldr	r3, [r7, #32]
 3246 015e 3022     		movs	r2, #48
 3247 0160 0021     		movs	r1, #0
 3248 0162 1800     		movs	r0, r3
 3249 0164 FFF7FEFF 		bl	memset
 3250 0168 BB6A     		ldr	r3, [r7, #40]
 3251 016a 9A88     		ldrh	r2, [r3, #4]
 3252 016c 3B6A     		ldr	r3, [r7, #32]
 3253 016e 9A80     		strh	r2, [r3, #4]
 3254 0170 BB69     		ldr	r3, [r7, #24]
 3255 0172 1322     		movs	r2, #19
 3256 0174 BA18     		adds	r2, r7, r2
 3257 0176 1100     		movs	r1, r2
 3258 0178 1800     		movs	r0, r3
 3259 017a FFF7FEFF 		bl	lwm2m_data_decode_bool
 3260 017e 031E     		subs	r3, r0, #0
 3261 0180 13D1     		bne	.L248
 3262 0182 BB6A     		ldr	r3, [r7, #40]
 3263 0184 9B88     		ldrh	r3, [r3, #4]
 3264 0186 714A     		ldr	r2, .L267+44
 3265 0188 6649     		ldr	r1, .L267+4
 3266 018a 7148     		ldr	r0, .L267+48
 3267 018c FFF7FEFF 		bl	atiny_printf
 3268 0190 3B6A     		ldr	r3, [r7, #32]
 3269 0192 1800     		movs	r0, r3
 3270 0194 FFF7FEFF 		bl	lwm2m_free
 3271 0198 7B69     		ldr	r3, [r7, #20]
 3272 019a BA69     		ldr	r2, [r7, #24]
 3273 019c 1100     		movs	r1, r2
 3274 019e 1800     		movs	r0, r3
 3275 01a0 FFF7FEFF 		bl	lwm2m_data_free
 3276 01a4 0123     		movs	r3, #1
 3277 01a6 5B42     		rsbs	r3, r3, #0
 3278 01a8 F8E0     		b	.L241
 3279              	.L248:
 3280 01aa BB69     		ldr	r3, [r7, #24]
 3281 01ac 1033     		adds	r3, r3, #16
 3282 01ae 0822     		movs	r2, #8
 3283 01b0 BA18     		adds	r2, r7, r2
 3284 01b2 1100     		movs	r1, r2
 3285 01b4 1800     		movs	r0, r3
 3286 01b6 FFF7FEFF 		bl	lwm2m_data_decode_int
ARM GAS  C:\Users\SONG_J~1\AppData\Local\Temp\ccPyj9I7.s 			page 59


 3287 01ba 031E     		subs	r3, r0, #0
 3288 01bc 17D0     		beq	.L249
 3289 01be 1323     		movs	r3, #19
 3290 01c0 FB18     		adds	r3, r7, r3
 3291 01c2 1B78     		ldrb	r3, [r3]
 3292 01c4 0122     		movs	r2, #1
 3293 01c6 5340     		eors	r3, r2
 3294 01c8 DBB2     		uxtb	r3, r3
 3295 01ca 1D00     		movs	r5, r3
 3296 01cc 0023     		movs	r3, #0
 3297 01ce 1E00     		movs	r6, r3
 3298 01d0 BB68     		ldr	r3, [r7, #8]
 3299 01d2 FC68     		ldr	r4, [r7, #12]
 3300 01d4 A642     		cmp	r6, r4
 3301 01d6 0ADC     		bgt	.L249
 3302 01d8 01D1     		bne	.L265
 3303 01da 9D42     		cmp	r5, r3
 3304 01dc 07D8     		bhi	.L249
 3305              	.L265:
 3306 01de BB68     		ldr	r3, [r7, #8]
 3307 01e0 FC68     		ldr	r4, [r7, #12]
 3308 01e2 002C     		cmp	r4, #0
 3309 01e4 03DC     		bgt	.L249
 3310 01e6 16D1     		bne	.L251
 3311 01e8 5A4A     		ldr	r2, .L267+52
 3312 01ea 9342     		cmp	r3, r2
 3313 01ec 13D9     		bls	.L251
 3314              	.L249:
 3315 01ee BB6A     		ldr	r3, [r7, #40]
 3316 01f0 9B88     		ldrh	r3, [r3, #4]
 3317 01f2 594A     		ldr	r2, .L267+56
 3318 01f4 4B49     		ldr	r1, .L267+4
 3319 01f6 5948     		ldr	r0, .L267+60
 3320 01f8 FFF7FEFF 		bl	atiny_printf
 3321 01fc 3B6A     		ldr	r3, [r7, #32]
 3322 01fe 1800     		movs	r0, r3
 3323 0200 FFF7FEFF 		bl	lwm2m_free
 3324 0204 7B69     		ldr	r3, [r7, #20]
 3325 0206 BA69     		ldr	r2, [r7, #24]
 3326 0208 1100     		movs	r1, r2
 3327 020a 1800     		movs	r0, r3
 3328 020c FFF7FEFF 		bl	lwm2m_data_free
 3329 0210 0123     		movs	r3, #1
 3330 0212 5B42     		rsbs	r3, r3, #0
 3331 0214 C2E0     		b	.L241
 3332              	.L251:
 3333 0216 BB68     		ldr	r3, [r7, #8]
 3334 0218 FC68     		ldr	r4, [r7, #12]
 3335 021a 9AB2     		uxth	r2, r3
 3336 021c 3B6A     		ldr	r3, [r7, #32]
 3337 021e DA80     		strh	r2, [r3, #6]
 3338 0220 1323     		movs	r3, #19
 3339 0222 FB18     		adds	r3, r7, r3
 3340 0224 1B78     		ldrb	r3, [r3]
 3341 0226 002B     		cmp	r3, #0
 3342 0228 3ED0     		beq	.L253
 3343 022a BB69     		ldr	r3, [r7, #24]
ARM GAS  C:\Users\SONG_J~1\AppData\Local\Temp\ccPyj9I7.s 			page 60


 3344 022c 2033     		adds	r3, r3, #32
 3345 022e 0822     		movs	r2, #8
 3346 0230 BA18     		adds	r2, r7, r2
 3347 0232 1100     		movs	r1, r2
 3348 0234 1800     		movs	r0, r3
 3349 0236 FFF7FEFF 		bl	lwm2m_data_decode_int
 3350 023a 031E     		subs	r3, r0, #0
 3351 023c 07D0     		beq	.L254
 3352 023e BB68     		ldr	r3, [r7, #8]
 3353 0240 FC68     		ldr	r4, [r7, #12]
 3354 0242 002C     		cmp	r4, #0
 3355 0244 03DB     		blt	.L254
 3356 0246 BB68     		ldr	r3, [r7, #8]
 3357 0248 FC68     		ldr	r4, [r7, #12]
 3358 024a 002C     		cmp	r4, #0
 3359 024c 13DD     		ble	.L266
 3360              	.L254:
 3361 024e BB6A     		ldr	r3, [r7, #40]
 3362 0250 9B88     		ldrh	r3, [r3, #4]
 3363 0252 434A     		ldr	r2, .L267+64
 3364 0254 3349     		ldr	r1, .L267+4
 3365 0256 4148     		ldr	r0, .L267+60
 3366 0258 FFF7FEFF 		bl	atiny_printf
 3367 025c 3B6A     		ldr	r3, [r7, #32]
 3368 025e 1800     		movs	r0, r3
 3369 0260 FFF7FEFF 		bl	lwm2m_free
 3370 0264 7B69     		ldr	r3, [r7, #20]
 3371 0266 BA69     		ldr	r2, [r7, #24]
 3372 0268 1100     		movs	r1, r2
 3373 026a 1800     		movs	r0, r3
 3374 026c FFF7FEFF 		bl	lwm2m_data_free
 3375 0270 0123     		movs	r3, #1
 3376 0272 5B42     		rsbs	r3, r3, #0
 3377 0274 92E0     		b	.L241
 3378              	.L266:
 3379 0276 BB68     		ldr	r3, [r7, #8]
 3380 0278 FC68     		ldr	r4, [r7, #12]
 3381 027a 3A6A     		ldr	r2, [r7, #32]
 3382 027c 9360     		str	r3, [r2, #8]
 3383 027e D460     		str	r4, [r2, #12]
 3384 0280 FB1C     		adds	r3, r7, #3
 3385 0282 1B78     		ldrb	r3, [r3]
 3386 0284 002B     		cmp	r3, #0
 3387 0286 04D0     		beq	.L258
 3388 0288 3B6A     		ldr	r3, [r7, #32]
 3389 028a 1800     		movs	r0, r3
 3390 028c FFF7FEFF 		bl	lwm2m_free
 3391 0290 76E0     		b	.L260
 3392              	.L258:
 3393 0292 7B68     		ldr	r3, [r7, #4]
 3394 0294 1B69     		ldr	r3, [r3, #16]
 3395 0296 3A6A     		ldr	r2, [r7, #32]
 3396 0298 1100     		movs	r1, r2
 3397 029a 1800     		movs	r0, r3
 3398 029c FFF7FEFF 		bl	lwm2m_list_add
 3399 02a0 0200     		movs	r2, r0
 3400 02a2 7B68     		ldr	r3, [r7, #4]
ARM GAS  C:\Users\SONG_J~1\AppData\Local\Temp\ccPyj9I7.s 			page 61


 3401 02a4 1A61     		str	r2, [r3, #16]
 3402 02a6 6BE0     		b	.L260
 3403              	.L253:
 3404 02a8 3B6A     		ldr	r3, [r7, #32]
 3405 02aa DA88     		ldrh	r2, [r3, #6]
 3406 02ac FB6A     		ldr	r3, [r7, #44]
 3407 02ae 1100     		movs	r1, r2
 3408 02b0 1800     		movs	r0, r3
 3409 02b2 FFF7FEFF 		bl	prv_findServerInstance
 3410 02b6 0300     		movs	r3, r0
 3411 02b8 FB61     		str	r3, [r7, #28]
 3412 02ba FB69     		ldr	r3, [r7, #28]
 3413 02bc 002B     		cmp	r3, #0
 3414 02be 04D1     		bne	.L261
 3415 02c0 3B6A     		ldr	r3, [r7, #32]
 3416 02c2 1800     		movs	r0, r3
 3417 02c4 FFF7FEFF 		bl	lwm2m_free
 3418 02c8 5AE0     		b	.L260
 3419              	.L261:
 3420 02ca FB69     		ldr	r3, [r7, #28]
 3421 02cc 9988     		ldrh	r1, [r3, #4]
 3422 02ce 3A6A     		ldr	r2, [r7, #32]
 3423 02d0 FB6A     		ldr	r3, [r7, #44]
 3424 02d2 1800     		movs	r0, r3
 3425 02d4 FFF7FEFF 		bl	prv_getMandatoryInfo
 3426 02d8 031E     		subs	r3, r0, #0
 3427 02da 13D0     		beq	.L262
 3428 02dc BB6A     		ldr	r3, [r7, #40]
 3429 02de 9B88     		ldrh	r3, [r3, #4]
 3430 02e0 204A     		ldr	r2, .L267+68
 3431 02e2 1049     		ldr	r1, .L267+4
 3432 02e4 2048     		ldr	r0, .L267+72
 3433 02e6 FFF7FEFF 		bl	atiny_printf
 3434 02ea 3B6A     		ldr	r3, [r7, #32]
 3435 02ec 1800     		movs	r0, r3
 3436 02ee FFF7FEFF 		bl	lwm2m_free
 3437 02f2 7B69     		ldr	r3, [r7, #20]
 3438 02f4 BA69     		ldr	r2, [r7, #24]
 3439 02f6 1100     		movs	r1, r2
 3440 02f8 1800     		movs	r0, r3
 3441 02fa FFF7FEFF 		bl	lwm2m_data_free
 3442 02fe 0123     		movs	r3, #1
 3443 0300 5B42     		rsbs	r3, r3, #0
 3444 0302 4BE0     		b	.L241
 3445              	.L262:
 3446 0304 3B6A     		ldr	r3, [r7, #32]
 3447 0306 2022     		movs	r2, #32
 3448 0308 0021     		movs	r1, #0
 3449 030a 9954     		strb	r1, [r3, r2]
 3450 030c FB1C     		adds	r3, r7, #3
 3451 030e 1B78     		ldrb	r3, [r3]
 3452 0310 002B     		cmp	r3, #0
 3453 0312 2BD0     		beq	.L263
 3454 0314 3B6A     		ldr	r3, [r7, #32]
 3455 0316 1800     		movs	r0, r3
 3456 0318 FFF7FEFF 		bl	lwm2m_free
 3457 031c 30E0     		b	.L260
ARM GAS  C:\Users\SONG_J~1\AppData\Local\Temp\ccPyj9I7.s 			page 62


 3458              	.L268:
 3459 031e C046     		.align	2
 3460              	.L267:
 3461 0320 67030000 		.word	871
 3462 0324 00000000 		.word	__func__.7657
 3463 0328 8C000000 		.word	.LC51
 3464 032c 73030000 		.word	883
 3465 0330 C0000000 		.word	.LC76
 3466 0334 77030000 		.word	887
 3467 0338 D4000000 		.word	.LC78
 3468 033c 92030000 		.word	914
 3469 0340 E8000000 		.word	.LC80
 3470 0344 99030000 		.word	921
 3471 0348 14010000 		.word	.LC82
 3472 034c A2030000 		.word	930
 3473 0350 38010000 		.word	.LC84
 3474 0354 FFFF0000 		.word	65535
 3475 0358 AB030000 		.word	939
 3476 035c 64010000 		.word	.LC86
 3477 0360 B7030000 		.word	951
 3478 0364 D5030000 		.word	981
 3479 0368 90010000 		.word	.LC88
 3480              	.L263:
 3481 036c 7B68     		ldr	r3, [r7, #4]
 3482 036e 5B69     		ldr	r3, [r3, #20]
 3483 0370 3A6A     		ldr	r2, [r7, #32]
 3484 0372 1100     		movs	r1, r2
 3485 0374 1800     		movs	r0, r3
 3486 0376 FFF7FEFF 		bl	lwm2m_list_add
 3487 037a 0200     		movs	r2, r0
 3488 037c 7B68     		ldr	r3, [r7, #4]
 3489 037e 5A61     		str	r2, [r3, #20]
 3490              	.L260:
 3491 0380 7B69     		ldr	r3, [r7, #20]
 3492 0382 BA69     		ldr	r2, [r7, #24]
 3493 0384 1100     		movs	r1, r2
 3494 0386 1800     		movs	r0, r3
 3495 0388 FFF7FEFF 		bl	lwm2m_data_free
 3496              	.L243:
 3497 038c BB6A     		ldr	r3, [r7, #40]
 3498 038e 1B68     		ldr	r3, [r3]
 3499 0390 BB62     		str	r3, [r7, #40]
 3500              	.L242:
 3501 0392 BB6A     		ldr	r3, [r7, #40]
 3502 0394 002B     		cmp	r3, #0
 3503 0396 00D0     		beq	.LCB3787
 3504 0398 76E6     		b	.L264	@long jump
 3505              	.LCB3787:
 3506 039a 0023     		movs	r3, #0
 3507              	.L241:
 3508 039c 1800     		movs	r0, r3
 3509 039e BD46     		mov	sp, r7
 3510 03a0 0FB0     		add	sp, sp, #60
 3511              		@ sp needed
 3512 03a2 F0BD     		pop	{r4, r5, r6, r7, pc}
 3514              		.section	.rodata.__func__.7447,"a",%progbits
 3515              		.align	2
ARM GAS  C:\Users\SONG_J~1\AppData\Local\Temp\ccPyj9I7.s 			page 63


 3518              	__func__.7447:
 3519 0000 6F626A65 		.ascii	"object_checkReadable\000"
 3519      63745F63 
 3519      6865636B 
 3519      52656164 
 3519      61626C65 
 3520              		.section	.rodata.__func__.7456,"a",%progbits
 3521              		.align	2
 3524              	__func__.7456:
 3525 0000 6F626A65 		.ascii	"object_checkNumeric\000"
 3525      63745F63 
 3525      6865636B 
 3525      4E756D65 
 3525      72696300 
 3526              		.section	.rodata.__func__.7485,"a",%progbits
 3527              		.align	2
 3530              	__func__.7485:
 3531 0000 6F626A65 		.ascii	"object_readData\000"
 3531      63745F72 
 3531      65616444 
 3531      61746100 
 3532              		.section	.rodata.__func__.7508,"a",%progbits
 3533              		.align	2
 3536              	__func__.7508:
 3537 0000 6F626A65 		.ascii	"object_read\000"
 3537      63745F72 
 3537      65616400 
 3538              		.section	.rodata.__func__.7520,"a",%progbits
 3539              		.align	2
 3542              	__func__.7520:
 3543 0000 6F626A65 		.ascii	"object_write\000"
 3543      63745F77 
 3543      72697465 
 3543      00
 3544              		.section	.rodata.__func__.7528,"a",%progbits
 3545              		.align	2
 3548              	__func__.7528:
 3549 0000 6F626A65 		.ascii	"object_execute\000"
 3549      63745F65 
 3549      78656375 
 3549      746500
 3550              		.section	.rodata.__func__.7540,"a",%progbits
 3551              		.align	2
 3554              	__func__.7540:
 3555 0000 6F626A65 		.ascii	"object_create\000"
 3555      63745F63 
 3555      72656174 
 3555      6500
 3556              		.section	.rodata.__func__.7552,"a",%progbits
 3557              		.align	2
 3560              	__func__.7552:
 3561 0000 6F626A65 		.ascii	"object_delete\000"
 3561      63745F64 
 3561      656C6574 
 3561      6500
 3562              		.section	.rodata.__func__.7568,"a",%progbits
 3563              		.align	2
ARM GAS  C:\Users\SONG_J~1\AppData\Local\Temp\ccPyj9I7.s 			page 64


 3566              	__func__.7568:
 3567 0000 6F626A65 		.ascii	"object_discover\000"
 3567      63745F64 
 3567      6973636F 
 3567      76657200 
 3568              		.section	.rodata.__func__.7584,"a",%progbits
 3569              		.align	2
 3572              	__func__.7584:
 3573 0000 6F626A65 		.ascii	"object_isInstanceNew\000"
 3573      63745F69 
 3573      73496E73 
 3573      74616E63 
 3573      654E6577 
 3574              		.section	.rodata.__func__.7599,"a",%progbits
 3575              		.align	2
 3578              	__func__.7599:
 3579 0000 6F626A65 		.ascii	"object_getRegisterPayloadBufferLength\000"
 3579      63745F67 
 3579      65745265 
 3579      67697374 
 3579      65725061 
 3580              		.section	.rodata.__func__.7618,"a",%progbits
 3581              		.align	2
 3584              	__func__.7618:
 3585 0000 6F626A65 		.ascii	"object_getRegisterPayload\000"
 3585      63745F67 
 3585      65745265 
 3585      67697374 
 3585      65725061 
 3586              		.section	.rodata.__func__.7657,"a",%progbits
 3587              		.align	2
 3590              	__func__.7657:
 3591 0000 6F626A65 		.ascii	"object_getServers\000"
 3591      63745F67 
 3591      65745365 
 3591      72766572 
 3591      7300
 3592              		.ident	"GCC: (GNU Tools for Arm Embedded Processors 7-2017-q4-major) 7.2.1 20170904 (release) [ARM
ARM GAS  C:\Users\SONG_J~1\AppData\Local\Temp\ccPyj9I7.s 			page 65

