ARM GAS  C:\Users\SONG_J~1\AppData\Local\Temp\ccytckqg.s 			page 1


   1              		.cpu cortex-m0
   2              		.eabi_attribute 20, 1
   3              		.eabi_attribute 21, 1
   4              		.eabi_attribute 23, 3
   5              		.eabi_attribute 24, 1
   6              		.eabi_attribute 25, 1
   7              		.eabi_attribute 26, 1
   8              		.eabi_attribute 30, 6
   9              		.eabi_attribute 34, 0
  10              		.eabi_attribute 18, 4
  11              		.file	"object_server.c"
  12              		.section	.text.prv_get_value,"ax",%progbits
  13              		.align	1
  14              		.syntax unified
  15              		.code	16
  16              		.thumb_func
  17              		.fpu softvfp
  19              	prv_get_value:
  20              		@ args = 0, pretend = 0, frame = 40
  21              		@ frame_needed = 1, uses_anonymous_args = 0
  22 0000 B0B5     		push	{r4, r5, r7, lr}
  23 0002 8AB0     		sub	sp, sp, #40
  24 0004 00AF     		add	r7, sp, #0
  25 0006 7862     		str	r0, [r7, #36]
  26 0008 3962     		str	r1, [r7, #32]
  27 000a 7B6A     		ldr	r3, [r7, #36]
  28 000c 5B88     		ldrh	r3, [r3, #2]
  29 000e 082B     		cmp	r3, #8
  30 0010 5BD8     		bhi	.L2
  31 0012 9A00     		lsls	r2, r3, #2
  32 0014 2F4B     		ldr	r3, .L14
  33 0016 D318     		adds	r3, r2, r3
  34 0018 1B68     		ldr	r3, [r3]
  35 001a 9F46     		mov	pc, r3
  36              		.section	.rodata.prv_get_value,"a",%progbits
  37              		.align	2
  38              	.L4:
  39 0000 1C000000 		.word	.L3
  40 0004 36000000 		.word	.L5
  41 0008 50000000 		.word	.L6
  42 000c 6A000000 		.word	.L7
  43 0010 84000000 		.word	.L8
  44 0014 88000000 		.word	.L9
  45 0018 A2000000 		.word	.L10
  46 001c B4000000 		.word	.L11
  47 0020 C6000000 		.word	.L12
  48              		.section	.text.prv_get_value
  49              	.L3:
  50 001c 3B6A     		ldr	r3, [r7, #32]
  51 001e DB88     		ldrh	r3, [r3, #6]
  52 0020 BB61     		str	r3, [r7, #24]
  53 0022 0023     		movs	r3, #0
  54 0024 FB61     		str	r3, [r7, #28]
  55 0026 7B6A     		ldr	r3, [r7, #36]
  56 0028 1A00     		movs	r2, r3
  57 002a B869     		ldr	r0, [r7, #24]
  58 002c F969     		ldr	r1, [r7, #28]
ARM GAS  C:\Users\SONG_J~1\AppData\Local\Temp\ccytckqg.s 			page 2


  59 002e FFF7FEFF 		bl	lwm2m_data_encode_int
  60 0032 4523     		movs	r3, #69
  61 0034 4AE0     		b	.L13
  62              	.L5:
  63 0036 3B6A     		ldr	r3, [r7, #32]
  64 0038 9B68     		ldr	r3, [r3, #8]
  65 003a 3B61     		str	r3, [r7, #16]
  66 003c 0023     		movs	r3, #0
  67 003e 7B61     		str	r3, [r7, #20]
  68 0040 7B6A     		ldr	r3, [r7, #36]
  69 0042 1A00     		movs	r2, r3
  70 0044 3869     		ldr	r0, [r7, #16]
  71 0046 7969     		ldr	r1, [r7, #20]
  72 0048 FFF7FEFF 		bl	lwm2m_data_encode_int
  73 004c 4523     		movs	r3, #69
  74 004e 3DE0     		b	.L13
  75              	.L6:
  76 0050 3B6A     		ldr	r3, [r7, #32]
  77 0052 DB68     		ldr	r3, [r3, #12]
  78 0054 BB60     		str	r3, [r7, #8]
  79 0056 0023     		movs	r3, #0
  80 0058 FB60     		str	r3, [r7, #12]
  81 005a 7B6A     		ldr	r3, [r7, #36]
  82 005c 1A00     		movs	r2, r3
  83 005e B868     		ldr	r0, [r7, #8]
  84 0060 F968     		ldr	r1, [r7, #12]
  85 0062 FFF7FEFF 		bl	lwm2m_data_encode_int
  86 0066 4523     		movs	r3, #69
  87 0068 30E0     		b	.L13
  88              	.L7:
  89 006a 3B6A     		ldr	r3, [r7, #32]
  90 006c 1B69     		ldr	r3, [r3, #16]
  91 006e 3B60     		str	r3, [r7]
  92 0070 0023     		movs	r3, #0
  93 0072 7B60     		str	r3, [r7, #4]
  94 0074 7B6A     		ldr	r3, [r7, #36]
  95 0076 1A00     		movs	r2, r3
  96 0078 3868     		ldr	r0, [r7]
  97 007a 7968     		ldr	r1, [r7, #4]
  98 007c FFF7FEFF 		bl	lwm2m_data_encode_int
  99 0080 4523     		movs	r3, #69
 100 0082 23E0     		b	.L13
 101              	.L8:
 102 0084 8523     		movs	r3, #133
 103 0086 21E0     		b	.L13
 104              	.L9:
 105 0088 3B6A     		ldr	r3, [r7, #32]
 106 008a 5B69     		ldr	r3, [r3, #20]
 107 008c 1C00     		movs	r4, r3
 108 008e 0023     		movs	r3, #0
 109 0090 1D00     		movs	r5, r3
 110 0092 7B6A     		ldr	r3, [r7, #36]
 111 0094 1A00     		movs	r2, r3
 112 0096 2000     		movs	r0, r4
 113 0098 2900     		movs	r1, r5
 114 009a FFF7FEFF 		bl	lwm2m_data_encode_int
 115 009e 4523     		movs	r3, #69
ARM GAS  C:\Users\SONG_J~1\AppData\Local\Temp\ccytckqg.s 			page 3


 116 00a0 14E0     		b	.L13
 117              	.L10:
 118 00a2 3B6A     		ldr	r3, [r7, #32]
 119 00a4 1B7E     		ldrb	r3, [r3, #24]
 120 00a6 7A6A     		ldr	r2, [r7, #36]
 121 00a8 1100     		movs	r1, r2
 122 00aa 1800     		movs	r0, r3
 123 00ac FFF7FEFF 		bl	lwm2m_data_encode_bool
 124 00b0 4523     		movs	r3, #69
 125 00b2 0BE0     		b	.L13
 126              	.L11:
 127 00b4 3B6A     		ldr	r3, [r7, #32]
 128 00b6 1933     		adds	r3, r3, #25
 129 00b8 7A6A     		ldr	r2, [r7, #36]
 130 00ba 1100     		movs	r1, r2
 131 00bc 1800     		movs	r0, r3
 132 00be FFF7FEFF 		bl	lwm2m_data_encode_string
 133 00c2 4523     		movs	r3, #69
 134 00c4 02E0     		b	.L13
 135              	.L12:
 136 00c6 8523     		movs	r3, #133
 137 00c8 00E0     		b	.L13
 138              	.L2:
 139 00ca 8423     		movs	r3, #132
 140              	.L13:
 141 00cc 1800     		movs	r0, r3
 142 00ce BD46     		mov	sp, r7
 143 00d0 0AB0     		add	sp, sp, #40
 144              		@ sp needed
 145 00d2 B0BD     		pop	{r4, r5, r7, pc}
 146              	.L15:
 147              		.align	2
 148              	.L14:
 149 00d4 00000000 		.word	.L4
 151              		.section	.rodata
 152              		.align	2
 153              	.LC0:
 154 0000 0000     		.short	0
 155 0002 0100     		.short	1
 156 0004 0200     		.short	2
 157 0006 0300     		.short	3
 158 0008 0500     		.short	5
 159 000a 0600     		.short	6
 160 000c 0700     		.short	7
 161              		.section	.text.prv_server_read,"ax",%progbits
 162              		.align	1
 163              		.syntax unified
 164              		.code	16
 165              		.thumb_func
 166              		.fpu softvfp
 168              	prv_server_read:
 169              		@ args = 4, pretend = 0, frame = 48
 170              		@ frame_needed = 1, uses_anonymous_args = 0
 171 0000 90B5     		push	{r4, r7, lr}
 172 0002 8DB0     		sub	sp, sp, #52
 173 0004 00AF     		add	r7, sp, #0
 174 0006 B960     		str	r1, [r7, #8]
ARM GAS  C:\Users\SONG_J~1\AppData\Local\Temp\ccytckqg.s 			page 4


 175 0008 7A60     		str	r2, [r7, #4]
 176 000a 3B60     		str	r3, [r7]
 177 000c 0E21     		movs	r1, #14
 178 000e 7B18     		adds	r3, r7, r1
 179 0010 021C     		adds	r2, r0, #0
 180 0012 1A80     		strh	r2, [r3]
 181 0014 3B6C     		ldr	r3, [r7, #64]
 182 0016 9A68     		ldr	r2, [r3, #8]
 183 0018 7B18     		adds	r3, r7, r1
 184 001a 1B88     		ldrh	r3, [r3]
 185 001c 1900     		movs	r1, r3
 186 001e 1000     		movs	r0, r2
 187 0020 FFF7FEFF 		bl	lwm2m_list_find
 188 0024 0300     		movs	r3, r0
 189 0026 BB62     		str	r3, [r7, #40]
 190 0028 BB6A     		ldr	r3, [r7, #40]
 191 002a 002B     		cmp	r3, #0
 192 002c 01D1     		bne	.L17
 193 002e 8423     		movs	r3, #132
 194 0030 51E0     		b	.L18
 195              	.L17:
 196 0032 BB68     		ldr	r3, [r7, #8]
 197 0034 1B68     		ldr	r3, [r3]
 198 0036 002B     		cmp	r3, #0
 199 0038 2DD1     		bne	.L19
 200 003a 1423     		movs	r3, #20
 201 003c FB18     		adds	r3, r7, r3
 202 003e 284A     		ldr	r2, .L25
 203 0040 13CA     		ldmia	r2!, {r0, r1, r4}
 204 0042 13C3     		stmia	r3!, {r0, r1, r4}
 205 0044 1288     		ldrh	r2, [r2]
 206 0046 1A80     		strh	r2, [r3]
 207 0048 0723     		movs	r3, #7
 208 004a 7B62     		str	r3, [r7, #36]
 209 004c 7B6A     		ldr	r3, [r7, #36]
 210 004e 1800     		movs	r0, r3
 211 0050 FFF7FEFF 		bl	lwm2m_data_new
 212 0054 0200     		movs	r2, r0
 213 0056 7B68     		ldr	r3, [r7, #4]
 214 0058 1A60     		str	r2, [r3]
 215 005a 7B68     		ldr	r3, [r7, #4]
 216 005c 1B68     		ldr	r3, [r3]
 217 005e 002B     		cmp	r3, #0
 218 0060 01D1     		bne	.L20
 219 0062 A023     		movs	r3, #160
 220 0064 37E0     		b	.L18
 221              	.L20:
 222 0066 BB68     		ldr	r3, [r7, #8]
 223 0068 7A6A     		ldr	r2, [r7, #36]
 224 006a 1A60     		str	r2, [r3]
 225 006c 0023     		movs	r3, #0
 226 006e FB62     		str	r3, [r7, #44]
 227 0070 0DE0     		b	.L21
 228              	.L22:
 229 0072 7B68     		ldr	r3, [r7, #4]
 230 0074 1A68     		ldr	r2, [r3]
 231 0076 FB6A     		ldr	r3, [r7, #44]
ARM GAS  C:\Users\SONG_J~1\AppData\Local\Temp\ccytckqg.s 			page 5


 232 0078 1B01     		lsls	r3, r3, #4
 233 007a D318     		adds	r3, r2, r3
 234 007c 1422     		movs	r2, #20
 235 007e BA18     		adds	r2, r7, r2
 236 0080 F96A     		ldr	r1, [r7, #44]
 237 0082 4900     		lsls	r1, r1, #1
 238 0084 8A5A     		ldrh	r2, [r1, r2]
 239 0086 5A80     		strh	r2, [r3, #2]
 240 0088 FB6A     		ldr	r3, [r7, #44]
 241 008a 0133     		adds	r3, r3, #1
 242 008c FB62     		str	r3, [r7, #44]
 243              	.L21:
 244 008e FA6A     		ldr	r2, [r7, #44]
 245 0090 7B6A     		ldr	r3, [r7, #36]
 246 0092 9A42     		cmp	r2, r3
 247 0094 EDDB     		blt	.L22
 248              	.L19:
 249 0096 0023     		movs	r3, #0
 250 0098 FB62     		str	r3, [r7, #44]
 251              	.L24:
 252 009a 7B68     		ldr	r3, [r7, #4]
 253 009c 1A68     		ldr	r2, [r3]
 254 009e FB6A     		ldr	r3, [r7, #44]
 255 00a0 1B01     		lsls	r3, r3, #4
 256 00a2 D318     		adds	r3, r2, r3
 257 00a4 2322     		movs	r2, #35
 258 00a6 BC18     		adds	r4, r7, r2
 259 00a8 BA6A     		ldr	r2, [r7, #40]
 260 00aa 1100     		movs	r1, r2
 261 00ac 1800     		movs	r0, r3
 262 00ae FFF7FEFF 		bl	prv_get_value
 263 00b2 0300     		movs	r3, r0
 264 00b4 2370     		strb	r3, [r4]
 265 00b6 FB6A     		ldr	r3, [r7, #44]
 266 00b8 0133     		adds	r3, r3, #1
 267 00ba FB62     		str	r3, [r7, #44]
 268 00bc BB68     		ldr	r3, [r7, #8]
 269 00be 1B68     		ldr	r3, [r3]
 270 00c0 FA6A     		ldr	r2, [r7, #44]
 271 00c2 9A42     		cmp	r2, r3
 272 00c4 04DA     		bge	.L23
 273 00c6 2323     		movs	r3, #35
 274 00c8 FB18     		adds	r3, r7, r3
 275 00ca 1B78     		ldrb	r3, [r3]
 276 00cc 452B     		cmp	r3, #69
 277 00ce E4D0     		beq	.L24
 278              	.L23:
 279 00d0 2323     		movs	r3, #35
 280 00d2 FB18     		adds	r3, r7, r3
 281 00d4 1B78     		ldrb	r3, [r3]
 282              	.L18:
 283 00d6 1800     		movs	r0, r3
 284 00d8 BD46     		mov	sp, r7
 285 00da 0DB0     		add	sp, sp, #52
 286              		@ sp needed
 287 00dc 90BD     		pop	{r4, r7, pc}
 288              	.L26:
ARM GAS  C:\Users\SONG_J~1\AppData\Local\Temp\ccytckqg.s 			page 6


 289 00de C046     		.align	2
 290              	.L25:
 291 00e0 00000000 		.word	.LC0
 293              		.section	.rodata
 294 000e 0000     		.align	2
 295              	.LC1:
 296 0010 0000     		.short	0
 297 0012 0100     		.short	1
 298 0014 0200     		.short	2
 299 0016 0300     		.short	3
 300 0018 0400     		.short	4
 301 001a 0500     		.short	5
 302 001c 0600     		.short	6
 303 001e 0700     		.short	7
 304 0020 0800     		.short	8
 305              		.section	.text.prv_server_discover,"ax",%progbits
 306              		.align	1
 307              		.syntax unified
 308              		.code	16
 309              		.thumb_func
 310              		.fpu softvfp
 312              	prv_server_discover:
 313              		@ args = 0, pretend = 0, frame = 48
 314              		@ frame_needed = 1, uses_anonymous_args = 0
 315 0000 90B5     		push	{r4, r7, lr}
 316 0002 8DB0     		sub	sp, sp, #52
 317 0004 00AF     		add	r7, sp, #0
 318 0006 B960     		str	r1, [r7, #8]
 319 0008 7A60     		str	r2, [r7, #4]
 320 000a 3B60     		str	r3, [r7]
 321 000c 0E23     		movs	r3, #14
 322 000e FB18     		adds	r3, r7, r3
 323 0010 021C     		adds	r2, r0, #0
 324 0012 1A80     		strh	r2, [r3]
 325 0014 2F23     		movs	r3, #47
 326 0016 FB18     		adds	r3, r7, r3
 327 0018 4522     		movs	r2, #69
 328 001a 1A70     		strb	r2, [r3]
 329 001c BB68     		ldr	r3, [r7, #8]
 330 001e 1B68     		ldr	r3, [r3]
 331 0020 002B     		cmp	r3, #0
 332 0022 30D1     		bne	.L28
 333 0024 1023     		movs	r3, #16
 334 0026 FB18     		adds	r3, r7, r3
 335 0028 2A4A     		ldr	r2, .L40
 336 002a 13CA     		ldmia	r2!, {r0, r1, r4}
 337 002c 13C3     		stmia	r3!, {r0, r1, r4}
 338 002e 1168     		ldr	r1, [r2]
 339 0030 1960     		str	r1, [r3]
 340 0032 9288     		ldrh	r2, [r2, #4]
 341 0034 9A80     		strh	r2, [r3, #4]
 342 0036 0923     		movs	r3, #9
 343 0038 7B62     		str	r3, [r7, #36]
 344 003a 7B6A     		ldr	r3, [r7, #36]
 345 003c 1800     		movs	r0, r3
 346 003e FFF7FEFF 		bl	lwm2m_data_new
 347 0042 0200     		movs	r2, r0
ARM GAS  C:\Users\SONG_J~1\AppData\Local\Temp\ccytckqg.s 			page 7


 348 0044 7B68     		ldr	r3, [r7, #4]
 349 0046 1A60     		str	r2, [r3]
 350 0048 7B68     		ldr	r3, [r7, #4]
 351 004a 1B68     		ldr	r3, [r3]
 352 004c 002B     		cmp	r3, #0
 353 004e 01D1     		bne	.L29
 354 0050 A023     		movs	r3, #160
 355 0052 3AE0     		b	.L30
 356              	.L29:
 357 0054 BB68     		ldr	r3, [r7, #8]
 358 0056 7A6A     		ldr	r2, [r7, #36]
 359 0058 1A60     		str	r2, [r3]
 360 005a 0023     		movs	r3, #0
 361 005c BB62     		str	r3, [r7, #40]
 362 005e 0DE0     		b	.L31
 363              	.L32:
 364 0060 7B68     		ldr	r3, [r7, #4]
 365 0062 1A68     		ldr	r2, [r3]
 366 0064 BB6A     		ldr	r3, [r7, #40]
 367 0066 1B01     		lsls	r3, r3, #4
 368 0068 D318     		adds	r3, r2, r3
 369 006a 1022     		movs	r2, #16
 370 006c BA18     		adds	r2, r7, r2
 371 006e B96A     		ldr	r1, [r7, #40]
 372 0070 4900     		lsls	r1, r1, #1
 373 0072 8A5A     		ldrh	r2, [r1, r2]
 374 0074 5A80     		strh	r2, [r3, #2]
 375 0076 BB6A     		ldr	r3, [r7, #40]
 376 0078 0133     		adds	r3, r3, #1
 377 007a BB62     		str	r3, [r7, #40]
 378              	.L31:
 379 007c BA6A     		ldr	r2, [r7, #40]
 380 007e 7B6A     		ldr	r3, [r7, #36]
 381 0080 9A42     		cmp	r2, r3
 382 0082 EDDB     		blt	.L32
 383 0084 1EE0     		b	.L33
 384              	.L28:
 385 0086 0023     		movs	r3, #0
 386 0088 BB62     		str	r3, [r7, #40]
 387 008a 11E0     		b	.L34
 388              	.L38:
 389 008c 7B68     		ldr	r3, [r7, #4]
 390 008e 1A68     		ldr	r2, [r3]
 391 0090 BB6A     		ldr	r3, [r7, #40]
 392 0092 1B01     		lsls	r3, r3, #4
 393 0094 D318     		adds	r3, r2, r3
 394 0096 5B88     		ldrh	r3, [r3, #2]
 395 0098 0033     		adds	r3, r3, #0
 396 009a 082B     		cmp	r3, #8
 397 009c 04D9     		bls	.L39
 398 009e 2F23     		movs	r3, #47
 399 00a0 FB18     		adds	r3, r7, r3
 400 00a2 8422     		movs	r2, #132
 401 00a4 1A70     		strb	r2, [r3]
 402 00a6 00E0     		b	.L37
 403              	.L39:
 404 00a8 C046     		nop
ARM GAS  C:\Users\SONG_J~1\AppData\Local\Temp\ccytckqg.s 			page 8


 405              	.L37:
 406 00aa BB6A     		ldr	r3, [r7, #40]
 407 00ac 0133     		adds	r3, r3, #1
 408 00ae BB62     		str	r3, [r7, #40]
 409              	.L34:
 410 00b0 BB68     		ldr	r3, [r7, #8]
 411 00b2 1B68     		ldr	r3, [r3]
 412 00b4 BA6A     		ldr	r2, [r7, #40]
 413 00b6 9A42     		cmp	r2, r3
 414 00b8 04DA     		bge	.L33
 415 00ba 2F23     		movs	r3, #47
 416 00bc FB18     		adds	r3, r7, r3
 417 00be 1B78     		ldrb	r3, [r3]
 418 00c0 452B     		cmp	r3, #69
 419 00c2 E3D0     		beq	.L38
 420              	.L33:
 421 00c4 2F23     		movs	r3, #47
 422 00c6 FB18     		adds	r3, r7, r3
 423 00c8 1B78     		ldrb	r3, [r3]
 424              	.L30:
 425 00ca 1800     		movs	r0, r3
 426 00cc BD46     		mov	sp, r7
 427 00ce 0DB0     		add	sp, sp, #52
 428              		@ sp needed
 429 00d0 90BD     		pop	{r4, r7, pc}
 430              	.L41:
 431 00d2 C046     		.align	2
 432              	.L40:
 433 00d4 10000000 		.word	.LC1
 435              		.section	.text.prv_set_int_value,"ax",%progbits
 436              		.align	1
 437              		.syntax unified
 438              		.code	16
 439              		.thumb_func
 440              		.fpu softvfp
 442              	prv_set_int_value:
 443              		@ args = 0, pretend = 0, frame = 24
 444              		@ frame_needed = 1, uses_anonymous_args = 0
 445 0000 90B5     		push	{r4, r7, lr}
 446 0002 87B0     		sub	sp, sp, #28
 447 0004 00AF     		add	r7, sp, #0
 448 0006 7860     		str	r0, [r7, #4]
 449 0008 3960     		str	r1, [r7]
 450 000a 0823     		movs	r3, #8
 451 000c FA18     		adds	r2, r7, r3
 452 000e 7B68     		ldr	r3, [r7, #4]
 453 0010 1100     		movs	r1, r2
 454 0012 1800     		movs	r0, r3
 455 0014 FFF7FEFF 		bl	lwm2m_data_decode_int
 456 0018 0300     		movs	r3, r0
 457 001a 012B     		cmp	r3, #1
 458 001c 16D1     		bne	.L43
 459 001e BB68     		ldr	r3, [r7, #8]
 460 0020 FC68     		ldr	r4, [r7, #12]
 461 0022 002C     		cmp	r4, #0
 462 0024 0DDB     		blt	.L44
 463 0026 BB68     		ldr	r3, [r7, #8]
ARM GAS  C:\Users\SONG_J~1\AppData\Local\Temp\ccytckqg.s 			page 9


 464 0028 FC68     		ldr	r4, [r7, #12]
 465 002a 002C     		cmp	r4, #0
 466 002c 09DC     		bgt	.L44
 467 002e BB68     		ldr	r3, [r7, #8]
 468 0030 FC68     		ldr	r4, [r7, #12]
 469 0032 1A00     		movs	r2, r3
 470 0034 3B68     		ldr	r3, [r7]
 471 0036 1A60     		str	r2, [r3]
 472 0038 1723     		movs	r3, #23
 473 003a FB18     		adds	r3, r7, r3
 474 003c 4422     		movs	r2, #68
 475 003e 1A70     		strb	r2, [r3]
 476 0040 08E0     		b	.L48
 477              	.L44:
 478 0042 1723     		movs	r3, #23
 479 0044 FB18     		adds	r3, r7, r3
 480 0046 8622     		movs	r2, #134
 481 0048 1A70     		strb	r2, [r3]
 482 004a 03E0     		b	.L48
 483              	.L43:
 484 004c 1723     		movs	r3, #23
 485 004e FB18     		adds	r3, r7, r3
 486 0050 8022     		movs	r2, #128
 487 0052 1A70     		strb	r2, [r3]
 488              	.L48:
 489 0054 1723     		movs	r3, #23
 490 0056 FB18     		adds	r3, r7, r3
 491 0058 1B78     		ldrb	r3, [r3]
 492 005a 1800     		movs	r0, r3
 493 005c BD46     		mov	sp, r7
 494 005e 07B0     		add	sp, sp, #28
 495              		@ sp needed
 496 0060 90BD     		pop	{r4, r7, pc}
 498              		.section	.rodata
 499 0022 0000     		.align	2
 500              	.LC5:
 501 0024 5500     		.ascii	"U\000"
 502 0026 0000     		.align	2
 503              	.LC7:
 504 0028 555100   		.ascii	"UQ\000"
 505 002b 00       		.align	2
 506              	.LC9:
 507 002c 5300     		.ascii	"S\000"
 508 002e 0000     		.align	2
 509              	.LC11:
 510 0030 535100   		.ascii	"SQ\000"
 511 0033 00       		.align	2
 512              	.LC13:
 513 0034 555300   		.ascii	"US\000"
 514 0037 00       		.align	2
 515              	.LC15:
 516 0038 55515300 		.ascii	"UQS\000"
 517              		.section	.text.prv_server_check_binding_valid,"ax",%progbits
 518              		.align	1
 519              		.global	prv_server_check_binding_valid
 520              		.syntax unified
 521              		.code	16
ARM GAS  C:\Users\SONG_J~1\AppData\Local\Temp\ccytckqg.s 			page 10


 522              		.thumb_func
 523              		.fpu softvfp
 525              	prv_server_check_binding_valid:
 526              		@ args = 0, pretend = 0, frame = 8
 527              		@ frame_needed = 1, uses_anonymous_args = 0
 528 0000 80B5     		push	{r7, lr}
 529 0002 82B0     		sub	sp, sp, #8
 530 0004 00AF     		add	r7, sp, #0
 531 0006 7860     		str	r0, [r7, #4]
 532 0008 3960     		str	r1, [r7]
 533 000a 3A68     		ldr	r2, [r7]
 534 000c 1A49     		ldr	r1, .L54
 535 000e 7B68     		ldr	r3, [r7, #4]
 536 0010 1800     		movs	r0, r3
 537 0012 FFF7FEFF 		bl	strncmp
 538 0016 031E     		subs	r3, r0, #0
 539 0018 27D0     		beq	.L51
 540 001a 3A68     		ldr	r2, [r7]
 541 001c 1749     		ldr	r1, .L54+4
 542 001e 7B68     		ldr	r3, [r7, #4]
 543 0020 1800     		movs	r0, r3
 544 0022 FFF7FEFF 		bl	strncmp
 545 0026 031E     		subs	r3, r0, #0
 546 0028 1FD0     		beq	.L51
 547 002a 3A68     		ldr	r2, [r7]
 548 002c 1449     		ldr	r1, .L54+8
 549 002e 7B68     		ldr	r3, [r7, #4]
 550 0030 1800     		movs	r0, r3
 551 0032 FFF7FEFF 		bl	strncmp
 552 0036 031E     		subs	r3, r0, #0
 553 0038 17D0     		beq	.L51
 554 003a 3A68     		ldr	r2, [r7]
 555 003c 1149     		ldr	r1, .L54+12
 556 003e 7B68     		ldr	r3, [r7, #4]
 557 0040 1800     		movs	r0, r3
 558 0042 FFF7FEFF 		bl	strncmp
 559 0046 031E     		subs	r3, r0, #0
 560 0048 0FD0     		beq	.L51
 561 004a 3A68     		ldr	r2, [r7]
 562 004c 0E49     		ldr	r1, .L54+16
 563 004e 7B68     		ldr	r3, [r7, #4]
 564 0050 1800     		movs	r0, r3
 565 0052 FFF7FEFF 		bl	strncmp
 566 0056 031E     		subs	r3, r0, #0
 567 0058 07D0     		beq	.L51
 568 005a 3A68     		ldr	r2, [r7]
 569 005c 0B49     		ldr	r1, .L54+20
 570 005e 7B68     		ldr	r3, [r7, #4]
 571 0060 1800     		movs	r0, r3
 572 0062 FFF7FEFF 		bl	strncmp
 573 0066 031E     		subs	r3, r0, #0
 574 0068 01D1     		bne	.L52
 575              	.L51:
 576 006a 0123     		movs	r3, #1
 577 006c 00E0     		b	.L53
 578              	.L52:
 579 006e 0023     		movs	r3, #0
ARM GAS  C:\Users\SONG_J~1\AppData\Local\Temp\ccytckqg.s 			page 11


 580              	.L53:
 581 0070 1800     		movs	r0, r3
 582 0072 BD46     		mov	sp, r7
 583 0074 02B0     		add	sp, sp, #8
 584              		@ sp needed
 585 0076 80BD     		pop	{r7, pc}
 586              	.L55:
 587              		.align	2
 588              	.L54:
 589 0078 24000000 		.word	.LC5
 590 007c 28000000 		.word	.LC7
 591 0080 2C000000 		.word	.LC9
 592 0084 30000000 		.word	.LC11
 593 0088 34000000 		.word	.LC13
 594 008c 38000000 		.word	.LC15
 596              		.section	.text.prv_server_write,"ax",%progbits
 597              		.align	1
 598              		.syntax unified
 599              		.code	16
 600              		.thumb_func
 601              		.fpu softvfp
 603              	prv_server_write:
 604              		@ args = 0, pretend = 0, frame = 40
 605              		@ frame_needed = 1, uses_anonymous_args = 0
 606 0000 B0B5     		push	{r4, r5, r7, lr}
 607 0002 8AB0     		sub	sp, sp, #40
 608 0004 00AF     		add	r7, sp, #0
 609 0006 B960     		str	r1, [r7, #8]
 610 0008 7A60     		str	r2, [r7, #4]
 611 000a 3B60     		str	r3, [r7]
 612 000c 0E21     		movs	r1, #14
 613 000e 7B18     		adds	r3, r7, r1
 614 0010 021C     		adds	r2, r0, #0
 615 0012 1A80     		strh	r2, [r3]
 616 0014 3B68     		ldr	r3, [r7]
 617 0016 9A68     		ldr	r2, [r3, #8]
 618 0018 7B18     		adds	r3, r7, r1
 619 001a 1B88     		ldrh	r3, [r3]
 620 001c 1900     		movs	r1, r3
 621 001e 1000     		movs	r0, r2
 622 0020 FFF7FEFF 		bl	lwm2m_list_find
 623 0024 0300     		movs	r3, r0
 624 0026 FB61     		str	r3, [r7, #28]
 625 0028 FB69     		ldr	r3, [r7, #28]
 626 002a 002B     		cmp	r3, #0
 627 002c 01D1     		bne	.L57
 628 002e 8423     		movs	r3, #132
 629 0030 03E1     		b	.L58
 630              	.L57:
 631 0032 0023     		movs	r3, #0
 632 0034 7B62     		str	r3, [r7, #36]
 633              	.L80:
 634 0036 7B6A     		ldr	r3, [r7, #36]
 635 0038 1B01     		lsls	r3, r3, #4
 636 003a 7A68     		ldr	r2, [r7, #4]
 637 003c D318     		adds	r3, r2, r3
 638 003e 5B88     		ldrh	r3, [r3, #2]
ARM GAS  C:\Users\SONG_J~1\AppData\Local\Temp\ccytckqg.s 			page 12


 639 0040 082B     		cmp	r3, #8
 640 0042 00D9     		bls	.LCB632
 641 0044 E6E0     		b	.L59	@long jump
 642              	.LCB632:
 643 0046 9A00     		lsls	r2, r3, #2
 644 0048 7E4B     		ldr	r3, .L82
 645 004a D318     		adds	r3, r2, r3
 646 004c 1B68     		ldr	r3, [r3]
 647 004e 9F46     		mov	pc, r3
 648              		.section	.rodata.prv_server_write,"a",%progbits
 649              		.align	2
 650              	.L61:
 651 0000 50000000 		.word	.L60
 652 0004 9E000000 		.word	.L62
 653 0008 BC000000 		.word	.L63
 654 000c DA000000 		.word	.L64
 655 0010 F8000000 		.word	.L65
 656 0014 02010000 		.word	.L66
 657 0018 20010000 		.word	.L67
 658 001c 72010000 		.word	.L68
 659 0020 0A020000 		.word	.L69
 660              		.section	.text.prv_server_write
 661              	.L60:
 662 0050 FB69     		ldr	r3, [r7, #28]
 663 0052 DB88     		ldrh	r3, [r3, #6]
 664 0054 BB61     		str	r3, [r7, #24]
 665 0056 7B6A     		ldr	r3, [r7, #36]
 666 0058 1B01     		lsls	r3, r3, #4
 667 005a 7A68     		ldr	r2, [r7, #4]
 668 005c D318     		adds	r3, r2, r3
 669 005e 2325     		movs	r5, #35
 670 0060 7C19     		adds	r4, r7, r5
 671 0062 1822     		movs	r2, #24
 672 0064 BA18     		adds	r2, r7, r2
 673 0066 1100     		movs	r1, r2
 674 0068 1800     		movs	r0, r3
 675 006a FFF7FEFF 		bl	prv_set_int_value
 676 006e 0300     		movs	r3, r0
 677 0070 2370     		strb	r3, [r4]
 678 0072 7B19     		adds	r3, r7, r5
 679 0074 1B78     		ldrb	r3, [r3]
 680 0076 442B     		cmp	r3, #68
 681 0078 00D0     		beq	.LCB664
 682 007a CDE0     		b	.L81	@long jump
 683              	.LCB664:
 684 007c BB69     		ldr	r3, [r7, #24]
 685 007e 002B     		cmp	r3, #0
 686 0080 08D0     		beq	.L71
 687 0082 BB69     		ldr	r3, [r7, #24]
 688 0084 704A     		ldr	r2, .L82+4
 689 0086 9342     		cmp	r3, r2
 690 0088 04D8     		bhi	.L71
 691 008a BB69     		ldr	r3, [r7, #24]
 692 008c 9AB2     		uxth	r2, r3
 693 008e FB69     		ldr	r3, [r7, #28]
 694 0090 DA80     		strh	r2, [r3, #6]
 695 0092 C1E0     		b	.L81
ARM GAS  C:\Users\SONG_J~1\AppData\Local\Temp\ccytckqg.s 			page 13


 696              	.L71:
 697 0094 2323     		movs	r3, #35
 698 0096 FB18     		adds	r3, r7, r3
 699 0098 8622     		movs	r2, #134
 700 009a 1A70     		strb	r2, [r3]
 701 009c BCE0     		b	.L81
 702              	.L62:
 703 009e 7B6A     		ldr	r3, [r7, #36]
 704 00a0 1B01     		lsls	r3, r3, #4
 705 00a2 7A68     		ldr	r2, [r7, #4]
 706 00a4 D218     		adds	r2, r2, r3
 707 00a6 FB69     		ldr	r3, [r7, #28]
 708 00a8 0833     		adds	r3, r3, #8
 709 00aa 2321     		movs	r1, #35
 710 00ac 7C18     		adds	r4, r7, r1
 711 00ae 1900     		movs	r1, r3
 712 00b0 1000     		movs	r0, r2
 713 00b2 FFF7FEFF 		bl	prv_set_int_value
 714 00b6 0300     		movs	r3, r0
 715 00b8 2370     		strb	r3, [r4]
 716 00ba AEE0     		b	.L72
 717              	.L63:
 718 00bc 7B6A     		ldr	r3, [r7, #36]
 719 00be 1B01     		lsls	r3, r3, #4
 720 00c0 7A68     		ldr	r2, [r7, #4]
 721 00c2 D218     		adds	r2, r2, r3
 722 00c4 FB69     		ldr	r3, [r7, #28]
 723 00c6 0C33     		adds	r3, r3, #12
 724 00c8 2321     		movs	r1, #35
 725 00ca 7C18     		adds	r4, r7, r1
 726 00cc 1900     		movs	r1, r3
 727 00ce 1000     		movs	r0, r2
 728 00d0 FFF7FEFF 		bl	prv_set_int_value
 729 00d4 0300     		movs	r3, r0
 730 00d6 2370     		strb	r3, [r4]
 731 00d8 9FE0     		b	.L72
 732              	.L64:
 733 00da 7B6A     		ldr	r3, [r7, #36]
 734 00dc 1B01     		lsls	r3, r3, #4
 735 00de 7A68     		ldr	r2, [r7, #4]
 736 00e0 D218     		adds	r2, r2, r3
 737 00e2 FB69     		ldr	r3, [r7, #28]
 738 00e4 1033     		adds	r3, r3, #16
 739 00e6 2321     		movs	r1, #35
 740 00e8 7C18     		adds	r4, r7, r1
 741 00ea 1900     		movs	r1, r3
 742 00ec 1000     		movs	r0, r2
 743 00ee FFF7FEFF 		bl	prv_set_int_value
 744 00f2 0300     		movs	r3, r0
 745 00f4 2370     		strb	r3, [r4]
 746 00f6 90E0     		b	.L72
 747              	.L65:
 748 00f8 2323     		movs	r3, #35
 749 00fa FB18     		adds	r3, r7, r3
 750 00fc 8522     		movs	r2, #133
 751 00fe 1A70     		strb	r2, [r3]
 752 0100 8BE0     		b	.L72
ARM GAS  C:\Users\SONG_J~1\AppData\Local\Temp\ccytckqg.s 			page 14


 753              	.L66:
 754 0102 7B6A     		ldr	r3, [r7, #36]
 755 0104 1B01     		lsls	r3, r3, #4
 756 0106 7A68     		ldr	r2, [r7, #4]
 757 0108 D218     		adds	r2, r2, r3
 758 010a FB69     		ldr	r3, [r7, #28]
 759 010c 1433     		adds	r3, r3, #20
 760 010e 2321     		movs	r1, #35
 761 0110 7C18     		adds	r4, r7, r1
 762 0112 1900     		movs	r1, r3
 763 0114 1000     		movs	r0, r2
 764 0116 FFF7FEFF 		bl	prv_set_int_value
 765 011a 0300     		movs	r3, r0
 766 011c 2370     		strb	r3, [r4]
 767 011e 7CE0     		b	.L72
 768              	.L67:
 769 0120 7B6A     		ldr	r3, [r7, #36]
 770 0122 1B01     		lsls	r3, r3, #4
 771 0124 7A68     		ldr	r2, [r7, #4]
 772 0126 D318     		adds	r3, r2, r3
 773 0128 1722     		movs	r2, #23
 774 012a BA18     		adds	r2, r7, r2
 775 012c 1100     		movs	r1, r2
 776 012e 1800     		movs	r0, r3
 777 0130 FFF7FEFF 		bl	lwm2m_data_decode_bool
 778 0134 0300     		movs	r3, r0
 779 0136 012B     		cmp	r3, #1
 780 0138 16D1     		bne	.L73
 781 013a 1721     		movs	r1, #23
 782 013c 7B18     		adds	r3, r7, r1
 783 013e 1A78     		ldrb	r2, [r3]
 784 0140 FB69     		ldr	r3, [r7, #28]
 785 0142 1A76     		strb	r2, [r3, #24]
 786 0144 7B18     		adds	r3, r7, r1
 787 0146 1B78     		ldrb	r3, [r3]
 788 0148 0122     		movs	r2, #1
 789 014a 5340     		eors	r3, r2
 790 014c DBB2     		uxtb	r3, r3
 791 014e 002B     		cmp	r3, #0
 792 0150 05D0     		beq	.L74
 793 0152 1723     		movs	r3, #23
 794 0154 FB18     		adds	r3, r7, r3
 795 0156 1B78     		ldrb	r3, [r3]
 796 0158 1800     		movs	r0, r3
 797 015a FFF7FEFF 		bl	set_binary_app_data_object_rpt_max_cnt
 798              	.L74:
 799 015e 2323     		movs	r3, #35
 800 0160 FB18     		adds	r3, r7, r3
 801 0162 4422     		movs	r2, #68
 802 0164 1A70     		strb	r2, [r3]
 803 0166 58E0     		b	.L72
 804              	.L73:
 805 0168 2323     		movs	r3, #35
 806 016a FB18     		adds	r3, r7, r3
 807 016c 8022     		movs	r2, #128
 808 016e 1A70     		strb	r2, [r3]
 809 0170 53E0     		b	.L72
ARM GAS  C:\Users\SONG_J~1\AppData\Local\Temp\ccytckqg.s 			page 15


 810              	.L68:
 811 0172 7B6A     		ldr	r3, [r7, #36]
 812 0174 1B01     		lsls	r3, r3, #4
 813 0176 7A68     		ldr	r2, [r7, #4]
 814 0178 D318     		adds	r3, r2, r3
 815 017a 1B78     		ldrb	r3, [r3]
 816 017c 042B     		cmp	r3, #4
 817 017e 06D0     		beq	.L76
 818 0180 7B6A     		ldr	r3, [r7, #36]
 819 0182 1B01     		lsls	r3, r3, #4
 820 0184 7A68     		ldr	r2, [r7, #4]
 821 0186 D318     		adds	r3, r2, r3
 822 0188 1B78     		ldrb	r3, [r3]
 823 018a 052B     		cmp	r3, #5
 824 018c 38D1     		bne	.L77
 825              	.L76:
 826 018e 7B6A     		ldr	r3, [r7, #36]
 827 0190 1B01     		lsls	r3, r3, #4
 828 0192 7A68     		ldr	r2, [r7, #4]
 829 0194 D318     		adds	r3, r2, r3
 830 0196 9B68     		ldr	r3, [r3, #8]
 831 0198 002B     		cmp	r3, #0
 832 019a 31D0     		beq	.L77
 833 019c 7B6A     		ldr	r3, [r7, #36]
 834 019e 1B01     		lsls	r3, r3, #4
 835 01a0 7A68     		ldr	r2, [r7, #4]
 836 01a2 D318     		adds	r3, r2, r3
 837 01a4 9B68     		ldr	r3, [r3, #8]
 838 01a6 032B     		cmp	r3, #3
 839 01a8 2AD8     		bhi	.L77
 840 01aa 7B6A     		ldr	r3, [r7, #36]
 841 01ac 1B01     		lsls	r3, r3, #4
 842 01ae 7A68     		ldr	r2, [r7, #4]
 843 01b0 D318     		adds	r3, r2, r3
 844 01b2 D868     		ldr	r0, [r3, #12]
 845 01b4 7B6A     		ldr	r3, [r7, #36]
 846 01b6 1B01     		lsls	r3, r3, #4
 847 01b8 7A68     		ldr	r2, [r7, #4]
 848 01ba D318     		adds	r3, r2, r3
 849 01bc 9B68     		ldr	r3, [r3, #8]
 850 01be 1900     		movs	r1, r3
 851 01c0 FFF7FEFF 		bl	prv_server_check_binding_valid
 852 01c4 031E     		subs	r3, r0, #0
 853 01c6 1BD0     		beq	.L77
 854 01c8 FB69     		ldr	r3, [r7, #28]
 855 01ca 1933     		adds	r3, r3, #25
 856 01cc 0422     		movs	r2, #4
 857 01ce 0021     		movs	r1, #0
 858 01d0 1800     		movs	r0, r3
 859 01d2 FFF7FEFF 		bl	memset
 860 01d6 FB69     		ldr	r3, [r7, #28]
 861 01d8 1933     		adds	r3, r3, #25
 862 01da 1800     		movs	r0, r3
 863 01dc 7B6A     		ldr	r3, [r7, #36]
 864 01de 1B01     		lsls	r3, r3, #4
 865 01e0 7A68     		ldr	r2, [r7, #4]
 866 01e2 D318     		adds	r3, r2, r3
ARM GAS  C:\Users\SONG_J~1\AppData\Local\Temp\ccytckqg.s 			page 16


 867 01e4 D968     		ldr	r1, [r3, #12]
 868 01e6 7B6A     		ldr	r3, [r7, #36]
 869 01e8 1B01     		lsls	r3, r3, #4
 870 01ea 7A68     		ldr	r2, [r7, #4]
 871 01ec D318     		adds	r3, r2, r3
 872 01ee 9B68     		ldr	r3, [r3, #8]
 873 01f0 1A00     		movs	r2, r3
 874 01f2 FFF7FEFF 		bl	strncpy
 875 01f6 2323     		movs	r3, #35
 876 01f8 FB18     		adds	r3, r7, r3
 877 01fa 4422     		movs	r2, #68
 878 01fc 1A70     		strb	r2, [r3]
 879 01fe 0CE0     		b	.L72
 880              	.L77:
 881 0200 2323     		movs	r3, #35
 882 0202 FB18     		adds	r3, r7, r3
 883 0204 8022     		movs	r2, #128
 884 0206 1A70     		strb	r2, [r3]
 885 0208 07E0     		b	.L72
 886              	.L69:
 887 020a 2323     		movs	r3, #35
 888 020c FB18     		adds	r3, r7, r3
 889 020e 8522     		movs	r2, #133
 890 0210 1A70     		strb	r2, [r3]
 891 0212 02E0     		b	.L72
 892              	.L59:
 893 0214 8423     		movs	r3, #132
 894 0216 10E0     		b	.L58
 895              	.L81:
 896 0218 C046     		nop
 897              	.L72:
 898 021a 7B6A     		ldr	r3, [r7, #36]
 899 021c 0133     		adds	r3, r3, #1
 900 021e 7B62     		str	r3, [r7, #36]
 901 0220 7A6A     		ldr	r2, [r7, #36]
 902 0222 BB68     		ldr	r3, [r7, #8]
 903 0224 9A42     		cmp	r2, r3
 904 0226 05DA     		bge	.L79
 905 0228 2323     		movs	r3, #35
 906 022a FB18     		adds	r3, r7, r3
 907 022c 1B78     		ldrb	r3, [r3]
 908 022e 442B     		cmp	r3, #68
 909 0230 00D1     		bne	.LCB920
 910 0232 00E7     		b	.L80	@long jump
 911              	.LCB920:
 912              	.L79:
 913 0234 2323     		movs	r3, #35
 914 0236 FB18     		adds	r3, r7, r3
 915 0238 1B78     		ldrb	r3, [r3]
 916              	.L58:
 917 023a 1800     		movs	r0, r3
 918 023c BD46     		mov	sp, r7
 919 023e 0AB0     		add	sp, sp, #40
 920              		@ sp needed
 921 0240 B0BD     		pop	{r4, r5, r7, pc}
 922              	.L83:
 923 0242 C046     		.align	2
ARM GAS  C:\Users\SONG_J~1\AppData\Local\Temp\ccytckqg.s 			page 17


 924              	.L82:
 925 0244 00000000 		.word	.L61
 926 0248 FFFF0000 		.word	65535
 928              		.section	.text.prv_server_execute,"ax",%progbits
 929              		.align	1
 930              		.syntax unified
 931              		.code	16
 932              		.thumb_func
 933              		.fpu softvfp
 935              	prv_server_execute:
 936              		@ args = 4, pretend = 0, frame = 24
 937              		@ frame_needed = 1, uses_anonymous_args = 0
 938 0000 90B5     		push	{r4, r7, lr}
 939 0002 87B0     		sub	sp, sp, #28
 940 0004 00AF     		add	r7, sp, #0
 941 0006 BA60     		str	r2, [r7, #8]
 942 0008 7B60     		str	r3, [r7, #4]
 943 000a 0E24     		movs	r4, #14
 944 000c 3B19     		adds	r3, r7, r4
 945 000e 021C     		adds	r2, r0, #0
 946 0010 1A80     		strh	r2, [r3]
 947 0012 0C23     		movs	r3, #12
 948 0014 FB18     		adds	r3, r7, r3
 949 0016 0A1C     		adds	r2, r1, #0
 950 0018 1A80     		strh	r2, [r3]
 951 001a BB6A     		ldr	r3, [r7, #40]
 952 001c 9A68     		ldr	r2, [r3, #8]
 953 001e 3B19     		adds	r3, r7, r4
 954 0020 1B88     		ldrh	r3, [r3]
 955 0022 1900     		movs	r1, r3
 956 0024 1000     		movs	r0, r2
 957 0026 FFF7FEFF 		bl	lwm2m_list_find
 958 002a 0300     		movs	r3, r0
 959 002c 7B61     		str	r3, [r7, #20]
 960 002e 7B69     		ldr	r3, [r7, #20]
 961 0030 002B     		cmp	r3, #0
 962 0032 01D1     		bne	.L85
 963 0034 8423     		movs	r3, #132
 964 0036 12E0     		b	.L86
 965              	.L85:
 966 0038 0C23     		movs	r3, #12
 967 003a FB18     		adds	r3, r7, r3
 968 003c 1B88     		ldrh	r3, [r3]
 969 003e 042B     		cmp	r3, #4
 970 0040 02D0     		beq	.L88
 971 0042 082B     		cmp	r3, #8
 972 0044 08D0     		beq	.L89
 973 0046 09E0     		b	.L91
 974              	.L88:
 975 0048 7B69     		ldr	r3, [r7, #20]
 976 004a 5B69     		ldr	r3, [r3, #20]
 977 004c 002B     		cmp	r3, #0
 978 004e 01D0     		beq	.L90
 979 0050 4423     		movs	r3, #68
 980 0052 04E0     		b	.L86
 981              	.L90:
 982 0054 8523     		movs	r3, #133
ARM GAS  C:\Users\SONG_J~1\AppData\Local\Temp\ccytckqg.s 			page 18


 983 0056 02E0     		b	.L86
 984              	.L89:
 985 0058 4423     		movs	r3, #68
 986 005a 00E0     		b	.L86
 987              	.L91:
 988 005c 8523     		movs	r3, #133
 989              	.L86:
 990 005e 1800     		movs	r0, r3
 991 0060 BD46     		mov	sp, r7
 992 0062 07B0     		add	sp, sp, #28
 993              		@ sp needed
 994 0064 90BD     		pop	{r4, r7, pc}
 996              		.section	.text.prv_server_delete,"ax",%progbits
 997              		.align	1
 998              		.syntax unified
 999              		.code	16
 1000              		.thumb_func
 1001              		.fpu softvfp
 1003              	prv_server_delete:
 1004              		@ args = 0, pretend = 0, frame = 16
 1005              		@ frame_needed = 1, uses_anonymous_args = 0
 1006 0000 80B5     		push	{r7, lr}
 1007 0002 84B0     		sub	sp, sp, #16
 1008 0004 00AF     		add	r7, sp, #0
 1009 0006 0200     		movs	r2, r0
 1010 0008 3960     		str	r1, [r7]
 1011 000a BB1D     		adds	r3, r7, #6
 1012 000c 1A80     		strh	r2, [r3]
 1013 000e 3B68     		ldr	r3, [r7]
 1014 0010 9868     		ldr	r0, [r3, #8]
 1015 0012 0C23     		movs	r3, #12
 1016 0014 FA18     		adds	r2, r7, r3
 1017 0016 BB1D     		adds	r3, r7, #6
 1018 0018 1B88     		ldrh	r3, [r3]
 1019 001a 1900     		movs	r1, r3
 1020 001c FFF7FEFF 		bl	lwm2m_list_remove
 1021 0020 0200     		movs	r2, r0
 1022 0022 3B68     		ldr	r3, [r7]
 1023 0024 9A60     		str	r2, [r3, #8]
 1024 0026 FB68     		ldr	r3, [r7, #12]
 1025 0028 002B     		cmp	r3, #0
 1026 002a 01D1     		bne	.L93
 1027 002c 8423     		movs	r3, #132
 1028 002e 04E0     		b	.L95
 1029              	.L93:
 1030 0030 FB68     		ldr	r3, [r7, #12]
 1031 0032 1800     		movs	r0, r3
 1032 0034 FFF7FEFF 		bl	lwm2m_free
 1033 0038 4223     		movs	r3, #66
 1034              	.L95:
 1035 003a 1800     		movs	r0, r3
 1036 003c BD46     		mov	sp, r7
 1037 003e 04B0     		add	sp, sp, #16
 1038              		@ sp needed
 1039 0040 80BD     		pop	{r7, pc}
 1041              		.section	.text.prv_server_create,"ax",%progbits
 1042              		.align	1
ARM GAS  C:\Users\SONG_J~1\AppData\Local\Temp\ccytckqg.s 			page 19


 1043              		.syntax unified
 1044              		.code	16
 1045              		.thumb_func
 1046              		.fpu softvfp
 1048              	prv_server_create:
 1049              		@ args = 0, pretend = 0, frame = 24
 1050              		@ frame_needed = 1, uses_anonymous_args = 0
 1051 0000 F0B5     		push	{r4, r5, r6, r7, lr}
 1052 0002 87B0     		sub	sp, sp, #28
 1053 0004 00AF     		add	r7, sp, #0
 1054 0006 B960     		str	r1, [r7, #8]
 1055 0008 7A60     		str	r2, [r7, #4]
 1056 000a 3B60     		str	r3, [r7]
 1057 000c 0E23     		movs	r3, #14
 1058 000e FB18     		adds	r3, r7, r3
 1059 0010 021C     		adds	r2, r0, #0
 1060 0012 1A80     		strh	r2, [r3]
 1061 0014 2020     		movs	r0, #32
 1062 0016 FFF7FEFF 		bl	lwm2m_malloc
 1063 001a 0300     		movs	r3, r0
 1064 001c 3B61     		str	r3, [r7, #16]
 1065 001e 3B69     		ldr	r3, [r7, #16]
 1066 0020 002B     		cmp	r3, #0
 1067 0022 01D1     		bne	.L97
 1068 0024 A023     		movs	r3, #160
 1069 0026 35E0     		b	.L98
 1070              	.L97:
 1071 0028 3B69     		ldr	r3, [r7, #16]
 1072 002a 2022     		movs	r2, #32
 1073 002c 0021     		movs	r1, #0
 1074 002e 1800     		movs	r0, r3
 1075 0030 FFF7FEFF 		bl	memset
 1076 0034 3B69     		ldr	r3, [r7, #16]
 1077 0036 0E26     		movs	r6, #14
 1078 0038 BA19     		adds	r2, r7, r6
 1079 003a 1288     		ldrh	r2, [r2]
 1080 003c 9A80     		strh	r2, [r3, #4]
 1081 003e 3B68     		ldr	r3, [r7]
 1082 0040 9B68     		ldr	r3, [r3, #8]
 1083 0042 3A69     		ldr	r2, [r7, #16]
 1084 0044 1100     		movs	r1, r2
 1085 0046 1800     		movs	r0, r3
 1086 0048 FFF7FEFF 		bl	lwm2m_list_add
 1087 004c 0200     		movs	r2, r0
 1088 004e 3B68     		ldr	r3, [r7]
 1089 0050 9A60     		str	r2, [r3, #8]
 1090 0052 1723     		movs	r3, #23
 1091 0054 FC18     		adds	r4, r7, r3
 1092 0056 3D68     		ldr	r5, [r7]
 1093 0058 7A68     		ldr	r2, [r7, #4]
 1094 005a B968     		ldr	r1, [r7, #8]
 1095 005c BB19     		adds	r3, r7, r6
 1096 005e 1888     		ldrh	r0, [r3]
 1097 0060 2B00     		movs	r3, r5
 1098 0062 FFF7FEFF 		bl	prv_server_write
 1099 0066 0300     		movs	r3, r0
 1100 0068 2370     		strb	r3, [r4]
ARM GAS  C:\Users\SONG_J~1\AppData\Local\Temp\ccytckqg.s 			page 20


 1101 006a 1723     		movs	r3, #23
 1102 006c FB18     		adds	r3, r7, r3
 1103 006e 1B78     		ldrb	r3, [r3]
 1104 0070 442B     		cmp	r3, #68
 1105 0072 08D0     		beq	.L99
 1106 0074 3A68     		ldr	r2, [r7]
 1107 0076 0E23     		movs	r3, #14
 1108 0078 FB18     		adds	r3, r7, r3
 1109 007a 1B88     		ldrh	r3, [r3]
 1110 007c 1100     		movs	r1, r2
 1111 007e 1800     		movs	r0, r3
 1112 0080 FFF7FEFF 		bl	prv_server_delete
 1113 0084 03E0     		b	.L100
 1114              	.L99:
 1115 0086 1723     		movs	r3, #23
 1116 0088 FB18     		adds	r3, r7, r3
 1117 008a 4122     		movs	r2, #65
 1118 008c 1A70     		strb	r2, [r3]
 1119              	.L100:
 1120 008e 1723     		movs	r3, #23
 1121 0090 FB18     		adds	r3, r7, r3
 1122 0092 1B78     		ldrb	r3, [r3]
 1123              	.L98:
 1124 0094 1800     		movs	r0, r3
 1125 0096 BD46     		mov	sp, r7
 1126 0098 07B0     		add	sp, sp, #28
 1127              		@ sp needed
 1128 009a F0BD     		pop	{r4, r5, r6, r7, pc}
 1130              		.section	.text.copy_server_object,"ax",%progbits
 1131              		.align	1
 1132              		.global	copy_server_object
 1133              		.syntax unified
 1134              		.code	16
 1135              		.thumb_func
 1136              		.fpu softvfp
 1138              	copy_server_object:
 1139              		@ args = 0, pretend = 0, frame = 24
 1140              		@ frame_needed = 1, uses_anonymous_args = 0
 1141 0000 80B5     		push	{r7, lr}
 1142 0002 86B0     		sub	sp, sp, #24
 1143 0004 00AF     		add	r7, sp, #0
 1144 0006 7860     		str	r0, [r7, #4]
 1145 0008 3960     		str	r1, [r7]
 1146 000a 0023     		movs	r3, #0
 1147 000c 7B61     		str	r3, [r7, #20]
 1148 000e 0023     		movs	r3, #0
 1149 0010 3B61     		str	r3, [r7, #16]
 1150 0012 3968     		ldr	r1, [r7]
 1151 0014 7B68     		ldr	r3, [r7, #4]
 1152 0016 2C22     		movs	r2, #44
 1153 0018 1800     		movs	r0, r3
 1154 001a FFF7FEFF 		bl	memcpy
 1155 001e 7B68     		ldr	r3, [r7, #4]
 1156 0020 0022     		movs	r2, #0
 1157 0022 9A60     		str	r2, [r3, #8]
 1158 0024 7B68     		ldr	r3, [r7, #4]
 1159 0026 0022     		movs	r2, #0
ARM GAS  C:\Users\SONG_J~1\AppData\Local\Temp\ccytckqg.s 			page 21


 1160 0028 9A62     		str	r2, [r3, #40]
 1161 002a 3B68     		ldr	r3, [r7]
 1162 002c 9B68     		ldr	r3, [r3, #8]
 1163 002e 7B61     		str	r3, [r7, #20]
 1164 0030 25E0     		b	.L102
 1165              	.L107:
 1166 0032 2020     		movs	r0, #32
 1167 0034 FFF7FEFF 		bl	lwm2m_malloc
 1168 0038 0300     		movs	r3, r0
 1169 003a FB60     		str	r3, [r7, #12]
 1170 003c FB68     		ldr	r3, [r7, #12]
 1171 003e 002B     		cmp	r3, #0
 1172 0040 21D0     		beq	.L108
 1173 0042 7969     		ldr	r1, [r7, #20]
 1174 0044 FB68     		ldr	r3, [r7, #12]
 1175 0046 2022     		movs	r2, #32
 1176 0048 1800     		movs	r0, r3
 1177 004a FFF7FEFF 		bl	memcpy
 1178 004e FB68     		ldr	r3, [r7, #12]
 1179 0050 1933     		adds	r3, r3, #25
 1180 0052 1800     		movs	r0, r3
 1181 0054 7B69     		ldr	r3, [r7, #20]
 1182 0056 1933     		adds	r3, r3, #25
 1183 0058 0422     		movs	r2, #4
 1184 005a 1900     		movs	r1, r3
 1185 005c FFF7FEFF 		bl	strncpy
 1186 0060 7B69     		ldr	r3, [r7, #20]
 1187 0062 1B68     		ldr	r3, [r3]
 1188 0064 7B61     		str	r3, [r7, #20]
 1189 0066 3B69     		ldr	r3, [r7, #16]
 1190 0068 002B     		cmp	r3, #0
 1191 006a 03D1     		bne	.L105
 1192 006c 7B68     		ldr	r3, [r7, #4]
 1193 006e FA68     		ldr	r2, [r7, #12]
 1194 0070 9A60     		str	r2, [r3, #8]
 1195 0072 02E0     		b	.L106
 1196              	.L105:
 1197 0074 3B69     		ldr	r3, [r7, #16]
 1198 0076 FA68     		ldr	r2, [r7, #12]
 1199 0078 1A60     		str	r2, [r3]
 1200              	.L106:
 1201 007a FB68     		ldr	r3, [r7, #12]
 1202 007c 3B61     		str	r3, [r7, #16]
 1203              	.L102:
 1204 007e 7B69     		ldr	r3, [r7, #20]
 1205 0080 002B     		cmp	r3, #0
 1206 0082 D6D1     		bne	.L107
 1207 0084 00E0     		b	.L101
 1208              	.L108:
 1209 0086 C046     		nop
 1210              	.L101:
 1211 0088 BD46     		mov	sp, r7
 1212 008a 06B0     		add	sp, sp, #24
 1213              		@ sp needed
 1214 008c 80BD     		pop	{r7, pc}
 1216              		.section	.text.display_server_object,"ax",%progbits
 1217              		.align	1
ARM GAS  C:\Users\SONG_J~1\AppData\Local\Temp\ccytckqg.s 			page 22


 1218              		.global	display_server_object
 1219              		.syntax unified
 1220              		.code	16
 1221              		.thumb_func
 1222              		.fpu softvfp
 1224              	display_server_object:
 1225              		@ args = 0, pretend = 0, frame = 8
 1226              		@ frame_needed = 1, uses_anonymous_args = 0
 1227 0000 80B5     		push	{r7, lr}
 1228 0002 82B0     		sub	sp, sp, #8
 1229 0004 00AF     		add	r7, sp, #0
 1230 0006 7860     		str	r0, [r7, #4]
 1231 0008 C046     		nop
 1232 000a BD46     		mov	sp, r7
 1233 000c 02B0     		add	sp, sp, #8
 1234              		@ sp needed
 1235 000e 80BD     		pop	{r7, pc}
 1237              		.section	.text.get_server_object,"ax",%progbits
 1238              		.align	1
 1239              		.global	get_server_object
 1240              		.syntax unified
 1241              		.code	16
 1242              		.thumb_func
 1243              		.fpu softvfp
 1245              	get_server_object:
 1246              		@ args = 0, pretend = 0, frame = 24
 1247              		@ frame_needed = 1, uses_anonymous_args = 0
 1248 0000 90B5     		push	{r4, r7, lr}
 1249 0002 87B0     		sub	sp, sp, #28
 1250 0004 00AF     		add	r7, sp, #0
 1251 0006 F860     		str	r0, [r7, #12]
 1252 0008 B960     		str	r1, [r7, #8]
 1253 000a 7A60     		str	r2, [r7, #4]
 1254 000c 1A00     		movs	r2, r3
 1255 000e FB1C     		adds	r3, r7, #3
 1256 0010 1A70     		strb	r2, [r3]
 1257 0012 2C20     		movs	r0, #44
 1258 0014 FFF7FEFF 		bl	lwm2m_malloc
 1259 0018 0300     		movs	r3, r0
 1260 001a 7B61     		str	r3, [r7, #20]
 1261 001c 7B69     		ldr	r3, [r7, #20]
 1262 001e 002B     		cmp	r3, #0
 1263 0020 72D0     		beq	.L111
 1264 0022 7B69     		ldr	r3, [r7, #20]
 1265 0024 2C22     		movs	r2, #44
 1266 0026 0021     		movs	r1, #0
 1267 0028 1800     		movs	r0, r3
 1268 002a FFF7FEFF 		bl	memset
 1269 002e 7B69     		ldr	r3, [r7, #20]
 1270 0030 0122     		movs	r2, #1
 1271 0032 9A80     		strh	r2, [r3, #4]
 1272 0034 2020     		movs	r0, #32
 1273 0036 FFF7FEFF 		bl	lwm2m_malloc
 1274 003a 0300     		movs	r3, r0
 1275 003c 3B61     		str	r3, [r7, #16]
 1276 003e 3B69     		ldr	r3, [r7, #16]
 1277 0040 002B     		cmp	r3, #0
ARM GAS  C:\Users\SONG_J~1\AppData\Local\Temp\ccytckqg.s 			page 23


 1278 0042 05D1     		bne	.L112
 1279 0044 7B69     		ldr	r3, [r7, #20]
 1280 0046 1800     		movs	r0, r3
 1281 0048 FFF7FEFF 		bl	lwm2m_free
 1282 004c 0023     		movs	r3, #0
 1283 004e 5CE0     		b	.L113
 1284              	.L112:
 1285 0050 3B69     		ldr	r3, [r7, #16]
 1286 0052 2022     		movs	r2, #32
 1287 0054 0021     		movs	r1, #0
 1288 0056 1800     		movs	r0, r3
 1289 0058 FFF7FEFF 		bl	memset
 1290 005c 3B69     		ldr	r3, [r7, #16]
 1291 005e 0022     		movs	r2, #0
 1292 0060 9A80     		strh	r2, [r3, #4]
 1293 0062 FB68     		ldr	r3, [r7, #12]
 1294 0064 9AB2     		uxth	r2, r3
 1295 0066 3B69     		ldr	r3, [r7, #16]
 1296 0068 DA80     		strh	r2, [r3, #6]
 1297 006a 7B68     		ldr	r3, [r7, #4]
 1298 006c 002B     		cmp	r3, #0
 1299 006e 03DC     		bgt	.L114
 1300 0070 3B69     		ldr	r3, [r7, #16]
 1301 0072 284A     		ldr	r2, .L118
 1302 0074 9A60     		str	r2, [r3, #8]
 1303 0076 02E0     		b	.L115
 1304              	.L114:
 1305 0078 7A68     		ldr	r2, [r7, #4]
 1306 007a 3B69     		ldr	r3, [r7, #16]
 1307 007c 9A60     		str	r2, [r3, #8]
 1308              	.L115:
 1309 007e 3B69     		ldr	r3, [r7, #16]
 1310 0080 FA1C     		adds	r2, r7, #3
 1311 0082 1278     		ldrb	r2, [r2]
 1312 0084 1A76     		strb	r2, [r3, #24]
 1313 0086 BB68     		ldr	r3, [r7, #8]
 1314 0088 1800     		movs	r0, r3
 1315 008a FFF7FEFF 		bl	strlen
 1316 008e 0200     		movs	r2, r0
 1317 0090 BB68     		ldr	r3, [r7, #8]
 1318 0092 1100     		movs	r1, r2
 1319 0094 1800     		movs	r0, r3
 1320 0096 FFF7FEFF 		bl	prv_server_check_binding_valid
 1321 009a 031E     		subs	r3, r0, #0
 1322 009c 2AD0     		beq	.L116
 1323 009e 3B69     		ldr	r3, [r7, #16]
 1324 00a0 1933     		adds	r3, r3, #25
 1325 00a2 1C00     		movs	r4, r3
 1326 00a4 BB68     		ldr	r3, [r7, #8]
 1327 00a6 1800     		movs	r0, r3
 1328 00a8 FFF7FEFF 		bl	strlen
 1329 00ac 0300     		movs	r3, r0
 1330 00ae 5A1C     		adds	r2, r3, #1
 1331 00b0 BB68     		ldr	r3, [r7, #8]
 1332 00b2 1900     		movs	r1, r3
 1333 00b4 2000     		movs	r0, r4
 1334 00b6 FFF7FEFF 		bl	memcpy
ARM GAS  C:\Users\SONG_J~1\AppData\Local\Temp\ccytckqg.s 			page 24


 1335 00ba 7B69     		ldr	r3, [r7, #20]
 1336 00bc 9B68     		ldr	r3, [r3, #8]
 1337 00be 3A69     		ldr	r2, [r7, #16]
 1338 00c0 1100     		movs	r1, r2
 1339 00c2 1800     		movs	r0, r3
 1340 00c4 FFF7FEFF 		bl	lwm2m_list_add
 1341 00c8 0200     		movs	r2, r0
 1342 00ca 7B69     		ldr	r3, [r7, #20]
 1343 00cc 9A60     		str	r2, [r3, #8]
 1344 00ce 7B69     		ldr	r3, [r7, #20]
 1345 00d0 114A     		ldr	r2, .L118+4
 1346 00d2 DA60     		str	r2, [r3, #12]
 1347 00d4 7B69     		ldr	r3, [r7, #20]
 1348 00d6 114A     		ldr	r2, .L118+8
 1349 00d8 5A62     		str	r2, [r3, #36]
 1350 00da 7B69     		ldr	r3, [r7, #20]
 1351 00dc 104A     		ldr	r2, .L118+12
 1352 00de 1A61     		str	r2, [r3, #16]
 1353 00e0 7B69     		ldr	r3, [r7, #20]
 1354 00e2 104A     		ldr	r2, .L118+16
 1355 00e4 DA61     		str	r2, [r3, #28]
 1356 00e6 7B69     		ldr	r3, [r7, #20]
 1357 00e8 0F4A     		ldr	r2, .L118+20
 1358 00ea 1A62     		str	r2, [r3, #32]
 1359 00ec 7B69     		ldr	r3, [r7, #20]
 1360 00ee 0F4A     		ldr	r2, .L118+24
 1361 00f0 5A61     		str	r2, [r3, #20]
 1362 00f2 09E0     		b	.L111
 1363              	.L116:
 1364 00f4 7B69     		ldr	r3, [r7, #20]
 1365 00f6 1800     		movs	r0, r3
 1366 00f8 FFF7FEFF 		bl	lwm2m_free
 1367 00fc 3B69     		ldr	r3, [r7, #16]
 1368 00fe 1800     		movs	r0, r3
 1369 0100 FFF7FEFF 		bl	lwm2m_free
 1370 0104 0023     		movs	r3, #0
 1371 0106 00E0     		b	.L113
 1372              	.L111:
 1373 0108 7B69     		ldr	r3, [r7, #20]
 1374              	.L113:
 1375 010a 1800     		movs	r0, r3
 1376 010c BD46     		mov	sp, r7
 1377 010e 07B0     		add	sp, sp, #28
 1378              		@ sp needed
 1379 0110 90BD     		pop	{r4, r7, pc}
 1380              	.L119:
 1381 0112 C046     		.align	2
 1382              	.L118:
 1383 0114 80510100 		.word	86400
 1384 0118 00000000 		.word	prv_server_read
 1385 011c 00000000 		.word	prv_server_discover
 1386 0120 00000000 		.word	prv_server_write
 1387 0124 00000000 		.word	prv_server_create
 1388 0128 00000000 		.word	prv_server_delete
 1389 012c 00000000 		.word	prv_server_execute
 1391              		.section	.text.clean_server_object,"ax",%progbits
 1392              		.align	1
ARM GAS  C:\Users\SONG_J~1\AppData\Local\Temp\ccytckqg.s 			page 25


 1393              		.global	clean_server_object
 1394              		.syntax unified
 1395              		.code	16
 1396              		.thumb_func
 1397              		.fpu softvfp
 1399              	clean_server_object:
 1400              		@ args = 0, pretend = 0, frame = 16
 1401              		@ frame_needed = 1, uses_anonymous_args = 0
 1402 0000 80B5     		push	{r7, lr}
 1403 0002 84B0     		sub	sp, sp, #16
 1404 0004 00AF     		add	r7, sp, #0
 1405 0006 7860     		str	r0, [r7, #4]
 1406 0008 7B68     		ldr	r3, [r7, #4]
 1407 000a 002B     		cmp	r3, #0
 1408 000c 15D0     		beq	.L125
 1409 000e 0BE0     		b	.L123
 1410              	.L124:
 1411 0010 7B68     		ldr	r3, [r7, #4]
 1412 0012 9B68     		ldr	r3, [r3, #8]
 1413 0014 FB60     		str	r3, [r7, #12]
 1414 0016 7B68     		ldr	r3, [r7, #4]
 1415 0018 9B68     		ldr	r3, [r3, #8]
 1416 001a 1A68     		ldr	r2, [r3]
 1417 001c 7B68     		ldr	r3, [r7, #4]
 1418 001e 9A60     		str	r2, [r3, #8]
 1419 0020 FB68     		ldr	r3, [r7, #12]
 1420 0022 1800     		movs	r0, r3
 1421 0024 FFF7FEFF 		bl	lwm2m_free
 1422              	.L123:
 1423 0028 7B68     		ldr	r3, [r7, #4]
 1424 002a 9B68     		ldr	r3, [r3, #8]
 1425 002c 002B     		cmp	r3, #0
 1426 002e EFD1     		bne	.L124
 1427 0030 7B68     		ldr	r3, [r7, #4]
 1428 0032 1800     		movs	r0, r3
 1429 0034 FFF7FEFF 		bl	lwm2m_free
 1430 0038 00E0     		b	.L120
 1431              	.L125:
 1432 003a C046     		nop
 1433              	.L120:
 1434 003c BD46     		mov	sp, r7
 1435 003e 04B0     		add	sp, sp, #16
 1436              		@ sp needed
 1437 0040 80BD     		pop	{r7, pc}
 1439              		.ident	"GCC: (GNU Tools for Arm Embedded Processors 7-2017-q4-major) 7.2.1 20170904 (release) [ARM
ARM GAS  C:\Users\SONG_J~1\AppData\Local\Temp\ccytckqg.s 			page 26

