ARM GAS  C:\Users\SONG_J~1\AppData\Local\Temp\cciLRu33.s 			page 1


   1              		.cpu cortex-m0
   2              		.eabi_attribute 20, 1
   3              		.eabi_attribute 21, 1
   4              		.eabi_attribute 23, 3
   5              		.eabi_attribute 24, 1
   6              		.eabi_attribute 25, 1
   7              		.eabi_attribute 26, 1
   8              		.eabi_attribute 30, 6
   9              		.eabi_attribute 34, 0
  10              		.eabi_attribute 18, 4
  11              		.file	"object_security.c"
  12              		.section	.text.prv_get_value,"ax",%progbits
  13              		.align	1
  14              		.syntax unified
  15              		.code	16
  16              		.thumb_func
  17              		.fpu softvfp
  19              	prv_get_value:
  20              		@ args = 0, pretend = 0, frame = 40
  21              		@ frame_needed = 1, uses_anonymous_args = 0
  22 0000 B0B5     		push	{r4, r5, r7, lr}
  23 0002 8AB0     		sub	sp, sp, #40
  24 0004 00AF     		add	r7, sp, #0
  25 0006 7862     		str	r0, [r7, #36]
  26 0008 3962     		str	r1, [r7, #32]
  27 000a 7B6A     		ldr	r3, [r7, #36]
  28 000c 5B88     		ldrh	r3, [r3, #2]
  29 000e 0C2B     		cmp	r3, #12
  30 0010 00D9     		bls	.LCB12
  31 0012 97E0     		b	.L2	@long jump
  32              	.LCB12:
  33 0014 9A00     		lsls	r2, r3, #2
  34 0016 4E4B     		ldr	r3, .L18
  35 0018 D318     		adds	r3, r2, r3
  36 001a 1B68     		ldr	r3, [r3]
  37 001c 9F46     		mov	pc, r3
  38              		.section	.rodata.prv_get_value,"a",%progbits
  39              		.align	2
  40              	.L4:
  41 0000 1E000000 		.word	.L3
  42 0004 30000000 		.word	.L5
  43 0008 42000000 		.word	.L6
  44 000c 5C000000 		.word	.L7
  45 0010 72000000 		.word	.L8
  46 0014 88000000 		.word	.L9
  47 0018 9E000000 		.word	.L10
  48 001c BA000000 		.word	.L11
  49 0020 D0000000 		.word	.L12
  50 0024 E6000000 		.word	.L13
  51 0028 F6000000 		.word	.L14
  52 002c 10010000 		.word	.L15
  53 0030 2A010000 		.word	.L16
  54              		.section	.text.prv_get_value
  55              	.L3:
  56 001e 3B6A     		ldr	r3, [r7, #32]
  57 0020 9B68     		ldr	r3, [r3, #8]
  58 0022 7A6A     		ldr	r2, [r7, #36]
ARM GAS  C:\Users\SONG_J~1\AppData\Local\Temp\cciLRu33.s 			page 2


  59 0024 1100     		movs	r1, r2
  60 0026 1800     		movs	r0, r3
  61 0028 FFF7FEFF 		bl	lwm2m_data_encode_string
  62 002c 4523     		movs	r3, #69
  63 002e 8AE0     		b	.L17
  64              	.L5:
  65 0030 3B6A     		ldr	r3, [r7, #32]
  66 0032 1B7B     		ldrb	r3, [r3, #12]
  67 0034 7A6A     		ldr	r2, [r7, #36]
  68 0036 1100     		movs	r1, r2
  69 0038 1800     		movs	r0, r3
  70 003a FFF7FEFF 		bl	lwm2m_data_encode_bool
  71 003e 4523     		movs	r3, #69
  72 0040 81E0     		b	.L17
  73              	.L6:
  74 0042 3B6A     		ldr	r3, [r7, #32]
  75 0044 5B7B     		ldrb	r3, [r3, #13]
  76 0046 BB61     		str	r3, [r7, #24]
  77 0048 0023     		movs	r3, #0
  78 004a FB61     		str	r3, [r7, #28]
  79 004c 7B6A     		ldr	r3, [r7, #36]
  80 004e 1A00     		movs	r2, r3
  81 0050 B869     		ldr	r0, [r7, #24]
  82 0052 F969     		ldr	r1, [r7, #28]
  83 0054 FFF7FEFF 		bl	lwm2m_data_encode_int
  84 0058 4523     		movs	r3, #69
  85 005a 74E0     		b	.L17
  86              	.L7:
  87 005c 3B6A     		ldr	r3, [r7, #32]
  88 005e 1869     		ldr	r0, [r3, #16]
  89 0060 3B6A     		ldr	r3, [r7, #32]
  90 0062 9B8A     		ldrh	r3, [r3, #20]
  91 0064 1900     		movs	r1, r3
  92 0066 7B6A     		ldr	r3, [r7, #36]
  93 0068 1A00     		movs	r2, r3
  94 006a FFF7FEFF 		bl	lwm2m_data_encode_opaque
  95 006e 4523     		movs	r3, #69
  96 0070 69E0     		b	.L17
  97              	.L8:
  98 0072 3B6A     		ldr	r3, [r7, #32]
  99 0074 9869     		ldr	r0, [r3, #24]
 100 0076 3B6A     		ldr	r3, [r7, #32]
 101 0078 9B8B     		ldrh	r3, [r3, #28]
 102 007a 1900     		movs	r1, r3
 103 007c 7B6A     		ldr	r3, [r7, #36]
 104 007e 1A00     		movs	r2, r3
 105 0080 FFF7FEFF 		bl	lwm2m_data_encode_opaque
 106 0084 4523     		movs	r3, #69
 107 0086 5EE0     		b	.L17
 108              	.L9:
 109 0088 3B6A     		ldr	r3, [r7, #32]
 110 008a 186A     		ldr	r0, [r3, #32]
 111 008c 3B6A     		ldr	r3, [r7, #32]
 112 008e 9B8C     		ldrh	r3, [r3, #36]
 113 0090 1900     		movs	r1, r3
 114 0092 7B6A     		ldr	r3, [r7, #36]
 115 0094 1A00     		movs	r2, r3
ARM GAS  C:\Users\SONG_J~1\AppData\Local\Temp\cciLRu33.s 			page 3


 116 0096 FFF7FEFF 		bl	lwm2m_data_encode_opaque
 117 009a 4523     		movs	r3, #69
 118 009c 53E0     		b	.L17
 119              	.L10:
 120 009e 3B6A     		ldr	r3, [r7, #32]
 121 00a0 2622     		movs	r2, #38
 122 00a2 9B5C     		ldrb	r3, [r3, r2]
 123 00a4 3B61     		str	r3, [r7, #16]
 124 00a6 0023     		movs	r3, #0
 125 00a8 7B61     		str	r3, [r7, #20]
 126 00aa 7B6A     		ldr	r3, [r7, #36]
 127 00ac 1A00     		movs	r2, r3
 128 00ae 3869     		ldr	r0, [r7, #16]
 129 00b0 7969     		ldr	r1, [r7, #20]
 130 00b2 FFF7FEFF 		bl	lwm2m_data_encode_int
 131 00b6 4523     		movs	r3, #69
 132 00b8 45E0     		b	.L17
 133              	.L11:
 134 00ba 3B6A     		ldr	r3, [r7, #32]
 135 00bc 986A     		ldr	r0, [r3, #40]
 136 00be 3B6A     		ldr	r3, [r7, #32]
 137 00c0 9B8D     		ldrh	r3, [r3, #44]
 138 00c2 1900     		movs	r1, r3
 139 00c4 7B6A     		ldr	r3, [r7, #36]
 140 00c6 1A00     		movs	r2, r3
 141 00c8 FFF7FEFF 		bl	lwm2m_data_encode_opaque
 142 00cc 4523     		movs	r3, #69
 143 00ce 3AE0     		b	.L17
 144              	.L12:
 145 00d0 3B6A     		ldr	r3, [r7, #32]
 146 00d2 186B     		ldr	r0, [r3, #48]
 147 00d4 3B6A     		ldr	r3, [r7, #32]
 148 00d6 9B8E     		ldrh	r3, [r3, #52]
 149 00d8 1900     		movs	r1, r3
 150 00da 7B6A     		ldr	r3, [r7, #36]
 151 00dc 1A00     		movs	r2, r3
 152 00de FFF7FEFF 		bl	lwm2m_data_encode_opaque
 153 00e2 4523     		movs	r3, #69
 154 00e4 2FE0     		b	.L17
 155              	.L13:
 156 00e6 7B6A     		ldr	r3, [r7, #36]
 157 00e8 1A00     		movs	r2, r3
 158 00ea 0020     		movs	r0, #0
 159 00ec 0021     		movs	r1, #0
 160 00ee FFF7FEFF 		bl	lwm2m_data_encode_int
 161 00f2 4523     		movs	r3, #69
 162 00f4 27E0     		b	.L17
 163              	.L14:
 164 00f6 3B6A     		ldr	r3, [r7, #32]
 165 00f8 DB8E     		ldrh	r3, [r3, #54]
 166 00fa BB60     		str	r3, [r7, #8]
 167 00fc 0023     		movs	r3, #0
 168 00fe FB60     		str	r3, [r7, #12]
 169 0100 7B6A     		ldr	r3, [r7, #36]
 170 0102 1A00     		movs	r2, r3
 171 0104 B868     		ldr	r0, [r7, #8]
 172 0106 F968     		ldr	r1, [r7, #12]
ARM GAS  C:\Users\SONG_J~1\AppData\Local\Temp\cciLRu33.s 			page 4


 173 0108 FFF7FEFF 		bl	lwm2m_data_encode_int
 174 010c 4523     		movs	r3, #69
 175 010e 1AE0     		b	.L17
 176              	.L15:
 177 0110 3B6A     		ldr	r3, [r7, #32]
 178 0112 9B6B     		ldr	r3, [r3, #56]
 179 0114 3B60     		str	r3, [r7]
 180 0116 0023     		movs	r3, #0
 181 0118 7B60     		str	r3, [r7, #4]
 182 011a 7B6A     		ldr	r3, [r7, #36]
 183 011c 1A00     		movs	r2, r3
 184 011e 3868     		ldr	r0, [r7]
 185 0120 7968     		ldr	r1, [r7, #4]
 186 0122 FFF7FEFF 		bl	lwm2m_data_encode_int
 187 0126 4523     		movs	r3, #69
 188 0128 0DE0     		b	.L17
 189              	.L16:
 190 012a 3B6A     		ldr	r3, [r7, #32]
 191 012c DB6B     		ldr	r3, [r3, #60]
 192 012e 1C00     		movs	r4, r3
 193 0130 0023     		movs	r3, #0
 194 0132 1D00     		movs	r5, r3
 195 0134 7B6A     		ldr	r3, [r7, #36]
 196 0136 1A00     		movs	r2, r3
 197 0138 2000     		movs	r0, r4
 198 013a 2900     		movs	r1, r5
 199 013c FFF7FEFF 		bl	lwm2m_data_encode_int
 200 0140 4523     		movs	r3, #69
 201 0142 00E0     		b	.L17
 202              	.L2:
 203 0144 8423     		movs	r3, #132
 204              	.L17:
 205 0146 1800     		movs	r0, r3
 206 0148 BD46     		mov	sp, r7
 207 014a 0AB0     		add	sp, sp, #40
 208              		@ sp needed
 209 014c B0BD     		pop	{r4, r5, r7, pc}
 210              	.L19:
 211 014e C046     		.align	2
 212              	.L18:
 213 0150 00000000 		.word	.L4
 215              		.section	.rodata
 216              		.align	2
 217              	.LC0:
 218 0000 0000     		.short	0
 219 0002 0100     		.short	1
 220 0004 0200     		.short	2
 221 0006 0300     		.short	3
 222 0008 0400     		.short	4
 223 000a 0500     		.short	5
 224 000c 0600     		.short	6
 225 000e 0700     		.short	7
 226 0010 0800     		.short	8
 227 0012 0900     		.short	9
 228 0014 0A00     		.short	10
 229 0016 0B00     		.short	11
 230 0018 0C00     		.short	12
ARM GAS  C:\Users\SONG_J~1\AppData\Local\Temp\cciLRu33.s 			page 5


 231              		.section	.text.prv_security_read,"ax",%progbits
 232              		.align	1
 233              		.syntax unified
 234              		.code	16
 235              		.thumb_func
 236              		.fpu softvfp
 238              	prv_security_read:
 239              		@ args = 4, pretend = 0, frame = 56
 240              		@ frame_needed = 1, uses_anonymous_args = 0
 241 0000 90B5     		push	{r4, r7, lr}
 242 0002 8FB0     		sub	sp, sp, #60
 243 0004 00AF     		add	r7, sp, #0
 244 0006 B960     		str	r1, [r7, #8]
 245 0008 7A60     		str	r2, [r7, #4]
 246 000a 3B60     		str	r3, [r7]
 247 000c 0E21     		movs	r1, #14
 248 000e 7B18     		adds	r3, r7, r1
 249 0010 021C     		adds	r2, r0, #0
 250 0012 1A80     		strh	r2, [r3]
 251 0014 BB6C     		ldr	r3, [r7, #72]
 252 0016 9A68     		ldr	r2, [r3, #8]
 253 0018 7B18     		adds	r3, r7, r1
 254 001a 1B88     		ldrh	r3, [r3]
 255 001c 1900     		movs	r1, r3
 256 001e 1000     		movs	r0, r2
 257 0020 FFF7FEFF 		bl	lwm2m_list_find
 258 0024 0300     		movs	r3, r0
 259 0026 3B63     		str	r3, [r7, #48]
 260 0028 3B6B     		ldr	r3, [r7, #48]
 261 002a 002B     		cmp	r3, #0
 262 002c 01D1     		bne	.L21
 263 002e 8423     		movs	r3, #132
 264 0030 53E0     		b	.L22
 265              	.L21:
 266 0032 BB68     		ldr	r3, [r7, #8]
 267 0034 1B68     		ldr	r3, [r3]
 268 0036 002B     		cmp	r3, #0
 269 0038 2FD1     		bne	.L23
 270 003a 1023     		movs	r3, #16
 271 003c FB18     		adds	r3, r7, r3
 272 003e 294A     		ldr	r2, .L29
 273 0040 13CA     		ldmia	r2!, {r0, r1, r4}
 274 0042 13C3     		stmia	r3!, {r0, r1, r4}
 275 0044 13CA     		ldmia	r2!, {r0, r1, r4}
 276 0046 13C3     		stmia	r3!, {r0, r1, r4}
 277 0048 1288     		ldrh	r2, [r2]
 278 004a 1A80     		strh	r2, [r3]
 279 004c 0D23     		movs	r3, #13
 280 004e FB62     		str	r3, [r7, #44]
 281 0050 FB6A     		ldr	r3, [r7, #44]
 282 0052 1800     		movs	r0, r3
 283 0054 FFF7FEFF 		bl	lwm2m_data_new
 284 0058 0200     		movs	r2, r0
 285 005a 7B68     		ldr	r3, [r7, #4]
 286 005c 1A60     		str	r2, [r3]
 287 005e 7B68     		ldr	r3, [r7, #4]
 288 0060 1B68     		ldr	r3, [r3]
ARM GAS  C:\Users\SONG_J~1\AppData\Local\Temp\cciLRu33.s 			page 6


 289 0062 002B     		cmp	r3, #0
 290 0064 01D1     		bne	.L24
 291 0066 A023     		movs	r3, #160
 292 0068 37E0     		b	.L22
 293              	.L24:
 294 006a BB68     		ldr	r3, [r7, #8]
 295 006c FA6A     		ldr	r2, [r7, #44]
 296 006e 1A60     		str	r2, [r3]
 297 0070 0023     		movs	r3, #0
 298 0072 7B63     		str	r3, [r7, #52]
 299 0074 0DE0     		b	.L25
 300              	.L26:
 301 0076 7B68     		ldr	r3, [r7, #4]
 302 0078 1A68     		ldr	r2, [r3]
 303 007a 7B6B     		ldr	r3, [r7, #52]
 304 007c 1B01     		lsls	r3, r3, #4
 305 007e D318     		adds	r3, r2, r3
 306 0080 1022     		movs	r2, #16
 307 0082 BA18     		adds	r2, r7, r2
 308 0084 796B     		ldr	r1, [r7, #52]
 309 0086 4900     		lsls	r1, r1, #1
 310 0088 8A5A     		ldrh	r2, [r1, r2]
 311 008a 5A80     		strh	r2, [r3, #2]
 312 008c 7B6B     		ldr	r3, [r7, #52]
 313 008e 0133     		adds	r3, r3, #1
 314 0090 7B63     		str	r3, [r7, #52]
 315              	.L25:
 316 0092 7A6B     		ldr	r2, [r7, #52]
 317 0094 FB6A     		ldr	r3, [r7, #44]
 318 0096 9A42     		cmp	r2, r3
 319 0098 EDDB     		blt	.L26
 320              	.L23:
 321 009a 0023     		movs	r3, #0
 322 009c 7B63     		str	r3, [r7, #52]
 323              	.L28:
 324 009e 7B68     		ldr	r3, [r7, #4]
 325 00a0 1A68     		ldr	r2, [r3]
 326 00a2 7B6B     		ldr	r3, [r7, #52]
 327 00a4 1B01     		lsls	r3, r3, #4
 328 00a6 D318     		adds	r3, r2, r3
 329 00a8 2B22     		movs	r2, #43
 330 00aa BC18     		adds	r4, r7, r2
 331 00ac 3A6B     		ldr	r2, [r7, #48]
 332 00ae 1100     		movs	r1, r2
 333 00b0 1800     		movs	r0, r3
 334 00b2 FFF7FEFF 		bl	prv_get_value
 335 00b6 0300     		movs	r3, r0
 336 00b8 2370     		strb	r3, [r4]
 337 00ba 7B6B     		ldr	r3, [r7, #52]
 338 00bc 0133     		adds	r3, r3, #1
 339 00be 7B63     		str	r3, [r7, #52]
 340 00c0 BB68     		ldr	r3, [r7, #8]
 341 00c2 1B68     		ldr	r3, [r3]
 342 00c4 7A6B     		ldr	r2, [r7, #52]
 343 00c6 9A42     		cmp	r2, r3
 344 00c8 04DA     		bge	.L27
 345 00ca 2B23     		movs	r3, #43
ARM GAS  C:\Users\SONG_J~1\AppData\Local\Temp\cciLRu33.s 			page 7


 346 00cc FB18     		adds	r3, r7, r3
 347 00ce 1B78     		ldrb	r3, [r3]
 348 00d0 452B     		cmp	r3, #69
 349 00d2 E4D0     		beq	.L28
 350              	.L27:
 351 00d4 2B23     		movs	r3, #43
 352 00d6 FB18     		adds	r3, r7, r3
 353 00d8 1B78     		ldrb	r3, [r3]
 354              	.L22:
 355 00da 1800     		movs	r0, r3
 356 00dc BD46     		mov	sp, r7
 357 00de 0FB0     		add	sp, sp, #60
 358              		@ sp needed
 359 00e0 90BD     		pop	{r4, r7, pc}
 360              	.L30:
 361 00e2 C046     		.align	2
 362              	.L29:
 363 00e4 00000000 		.word	.LC0
 365              		.section	.text.copy_security_object,"ax",%progbits
 366              		.align	1
 367              		.global	copy_security_object
 368              		.syntax unified
 369              		.code	16
 370              		.thumb_func
 371              		.fpu softvfp
 373              	copy_security_object:
 374              		@ args = 0, pretend = 0, frame = 24
 375              		@ frame_needed = 1, uses_anonymous_args = 0
 376 0000 B0B5     		push	{r4, r5, r7, lr}
 377 0002 86B0     		sub	sp, sp, #24
 378 0004 00AF     		add	r7, sp, #0
 379 0006 7860     		str	r0, [r7, #4]
 380 0008 3960     		str	r1, [r7]
 381 000a 0023     		movs	r3, #0
 382 000c 3B61     		str	r3, [r7, #16]
 383 000e 3968     		ldr	r1, [r7]
 384 0010 7B68     		ldr	r3, [r7, #4]
 385 0012 2C22     		movs	r2, #44
 386 0014 1800     		movs	r0, r3
 387 0016 FFF7FEFF 		bl	memcpy
 388 001a 7B68     		ldr	r3, [r7, #4]
 389 001c 0022     		movs	r2, #0
 390 001e 9A60     		str	r2, [r3, #8]
 391 0020 7B68     		ldr	r3, [r7, #4]
 392 0022 0022     		movs	r2, #0
 393 0024 9A62     		str	r2, [r3, #40]
 394 0026 3B68     		ldr	r3, [r7]
 395 0028 9B68     		ldr	r3, [r3, #8]
 396 002a 7B61     		str	r3, [r7, #20]
 397 002c 56E0     		b	.L32
 398              	.L39:
 399 002e 4020     		movs	r0, #64
 400 0030 FFF7FEFF 		bl	lwm2m_malloc
 401 0034 0300     		movs	r3, r0
 402 0036 FB60     		str	r3, [r7, #12]
 403 0038 FB68     		ldr	r3, [r7, #12]
 404 003a 002B     		cmp	r3, #0
ARM GAS  C:\Users\SONG_J~1\AppData\Local\Temp\cciLRu33.s 			page 8


 405 003c 52D0     		beq	.L40
 406 003e 7969     		ldr	r1, [r7, #20]
 407 0040 FB68     		ldr	r3, [r7, #12]
 408 0042 4022     		movs	r2, #64
 409 0044 1800     		movs	r0, r3
 410 0046 FFF7FEFF 		bl	memcpy
 411 004a 7B69     		ldr	r3, [r7, #20]
 412 004c 9B68     		ldr	r3, [r3, #8]
 413 004e 1800     		movs	r0, r3
 414 0050 FFF7FEFF 		bl	strlen
 415 0054 0300     		movs	r3, r0
 416 0056 0133     		adds	r3, r3, #1
 417 0058 1800     		movs	r0, r3
 418 005a FFF7FEFF 		bl	lwm2m_malloc
 419 005e 0200     		movs	r2, r0
 420 0060 FB68     		ldr	r3, [r7, #12]
 421 0062 9A60     		str	r2, [r3, #8]
 422 0064 FB68     		ldr	r3, [r7, #12]
 423 0066 9B68     		ldr	r3, [r3, #8]
 424 0068 002B     		cmp	r3, #0
 425 006a 04D1     		bne	.L35
 426 006c FB68     		ldr	r3, [r7, #12]
 427 006e 1800     		movs	r0, r3
 428 0070 FFF7FEFF 		bl	lwm2m_free
 429 0074 37E0     		b	.L31
 430              	.L35:
 431 0076 FB68     		ldr	r3, [r7, #12]
 432 0078 9C68     		ldr	r4, [r3, #8]
 433 007a 7B69     		ldr	r3, [r7, #20]
 434 007c 9D68     		ldr	r5, [r3, #8]
 435 007e 7B69     		ldr	r3, [r7, #20]
 436 0080 9B68     		ldr	r3, [r3, #8]
 437 0082 1800     		movs	r0, r3
 438 0084 FFF7FEFF 		bl	strlen
 439 0088 0300     		movs	r3, r0
 440 008a 0133     		adds	r3, r3, #1
 441 008c 1A00     		movs	r2, r3
 442 008e 2900     		movs	r1, r5
 443 0090 2000     		movs	r0, r4
 444 0092 FFF7FEFF 		bl	strncpy
 445 0096 7B69     		ldr	r3, [r7, #20]
 446 0098 5B7B     		ldrb	r3, [r3, #13]
 447 009a 002B     		cmp	r3, #0
 448 009c 0FD1     		bne	.L36
 449 009e 7B69     		ldr	r3, [r7, #20]
 450 00a0 1B69     		ldr	r3, [r3, #16]
 451 00a2 1800     		movs	r0, r3
 452 00a4 FFF7FEFF 		bl	lwm2m_strdup
 453 00a8 0200     		movs	r2, r0
 454 00aa FB68     		ldr	r3, [r7, #12]
 455 00ac 1A61     		str	r2, [r3, #16]
 456 00ae 7B69     		ldr	r3, [r7, #20]
 457 00b0 1B6A     		ldr	r3, [r3, #32]
 458 00b2 1800     		movs	r0, r3
 459 00b4 FFF7FEFF 		bl	lwm2m_strdup
 460 00b8 0200     		movs	r2, r0
 461 00ba FB68     		ldr	r3, [r7, #12]
ARM GAS  C:\Users\SONG_J~1\AppData\Local\Temp\cciLRu33.s 			page 9


 462 00bc 1A62     		str	r2, [r3, #32]
 463              	.L36:
 464 00be 7B69     		ldr	r3, [r7, #20]
 465 00c0 1B68     		ldr	r3, [r3]
 466 00c2 7B61     		str	r3, [r7, #20]
 467 00c4 3B69     		ldr	r3, [r7, #16]
 468 00c6 002B     		cmp	r3, #0
 469 00c8 03D1     		bne	.L37
 470 00ca 7B68     		ldr	r3, [r7, #4]
 471 00cc FA68     		ldr	r2, [r7, #12]
 472 00ce 9A60     		str	r2, [r3, #8]
 473 00d0 02E0     		b	.L38
 474              	.L37:
 475 00d2 3B69     		ldr	r3, [r7, #16]
 476 00d4 FA68     		ldr	r2, [r7, #12]
 477 00d6 1A60     		str	r2, [r3]
 478              	.L38:
 479 00d8 FB68     		ldr	r3, [r7, #12]
 480 00da 3B61     		str	r3, [r7, #16]
 481              	.L32:
 482 00dc 7B69     		ldr	r3, [r7, #20]
 483 00de 002B     		cmp	r3, #0
 484 00e0 A5D1     		bne	.L39
 485 00e2 00E0     		b	.L31
 486              	.L40:
 487 00e4 C046     		nop
 488              	.L31:
 489 00e6 BD46     		mov	sp, r7
 490 00e8 06B0     		add	sp, sp, #24
 491              		@ sp needed
 492 00ea B0BD     		pop	{r4, r5, r7, pc}
 494              		.section	.text.display_security_object,"ax",%progbits
 495              		.align	1
 496              		.global	display_security_object
 497              		.syntax unified
 498              		.code	16
 499              		.thumb_func
 500              		.fpu softvfp
 502              	display_security_object:
 503              		@ args = 0, pretend = 0, frame = 8
 504              		@ frame_needed = 1, uses_anonymous_args = 0
 505 0000 80B5     		push	{r7, lr}
 506 0002 82B0     		sub	sp, sp, #8
 507 0004 00AF     		add	r7, sp, #0
 508 0006 7860     		str	r0, [r7, #4]
 509 0008 C046     		nop
 510 000a BD46     		mov	sp, r7
 511 000c 02B0     		add	sp, sp, #8
 512              		@ sp needed
 513 000e 80BD     		pop	{r7, pc}
 515              		.section	.text.clean_security_object,"ax",%progbits
 516              		.align	1
 517              		.global	clean_security_object
 518              		.syntax unified
 519              		.code	16
 520              		.thumb_func
 521              		.fpu softvfp
ARM GAS  C:\Users\SONG_J~1\AppData\Local\Temp\cciLRu33.s 			page 10


 523              	clean_security_object:
 524              		@ args = 0, pretend = 0, frame = 16
 525              		@ frame_needed = 1, uses_anonymous_args = 0
 526 0000 80B5     		push	{r7, lr}
 527 0002 84B0     		sub	sp, sp, #16
 528 0004 00AF     		add	r7, sp, #0
 529 0006 7860     		str	r0, [r7, #4]
 530 0008 7B68     		ldr	r3, [r7, #4]
 531 000a 002B     		cmp	r3, #0
 532 000c 2CD0     		beq	.L49
 533 000e 22E0     		b	.L45
 534              	.L48:
 535 0010 7B68     		ldr	r3, [r7, #4]
 536 0012 9B68     		ldr	r3, [r3, #8]
 537 0014 FB60     		str	r3, [r7, #12]
 538 0016 7B68     		ldr	r3, [r7, #4]
 539 0018 9B68     		ldr	r3, [r3, #8]
 540 001a 1A68     		ldr	r2, [r3]
 541 001c 7B68     		ldr	r3, [r7, #4]
 542 001e 9A60     		str	r2, [r3, #8]
 543 0020 FB68     		ldr	r3, [r7, #12]
 544 0022 9B68     		ldr	r3, [r3, #8]
 545 0024 002B     		cmp	r3, #0
 546 0026 04D0     		beq	.L46
 547 0028 FB68     		ldr	r3, [r7, #12]
 548 002a 9B68     		ldr	r3, [r3, #8]
 549 002c 1800     		movs	r0, r3
 550 002e FFF7FEFF 		bl	lwm2m_free
 551              	.L46:
 552 0032 FB68     		ldr	r3, [r7, #12]
 553 0034 5B7B     		ldrb	r3, [r3, #13]
 554 0036 002B     		cmp	r3, #0
 555 0038 09D1     		bne	.L47
 556 003a FB68     		ldr	r3, [r7, #12]
 557 003c 1B69     		ldr	r3, [r3, #16]
 558 003e 1800     		movs	r0, r3
 559 0040 FFF7FEFF 		bl	lwm2m_free
 560 0044 FB68     		ldr	r3, [r7, #12]
 561 0046 1B6A     		ldr	r3, [r3, #32]
 562 0048 1800     		movs	r0, r3
 563 004a FFF7FEFF 		bl	lwm2m_free
 564              	.L47:
 565 004e FB68     		ldr	r3, [r7, #12]
 566 0050 1800     		movs	r0, r3
 567 0052 FFF7FEFF 		bl	lwm2m_free
 568              	.L45:
 569 0056 7B68     		ldr	r3, [r7, #4]
 570 0058 9B68     		ldr	r3, [r3, #8]
 571 005a 002B     		cmp	r3, #0
 572 005c D8D1     		bne	.L48
 573 005e 7B68     		ldr	r3, [r7, #4]
 574 0060 1800     		movs	r0, r3
 575 0062 FFF7FEFF 		bl	lwm2m_free
 576 0066 00E0     		b	.L42
 577              	.L49:
 578 0068 C046     		nop
 579              	.L42:
ARM GAS  C:\Users\SONG_J~1\AppData\Local\Temp\cciLRu33.s 			page 11


 580 006a BD46     		mov	sp, r7
 581 006c 04B0     		add	sp, sp, #16
 582              		@ sp needed
 583 006e 80BD     		pop	{r7, pc}
 585              		.section	.rodata
 586 001a 0000     		.align	2
 587              	.LC3:
 588 001c 636F6170 		.ascii	"coaps://%s:%s\000"
 588      733A2F2F 
 588      25733A25 
 588      7300
 589 002a 0000     		.align	2
 590              	.LC5:
 591 002c 636F6170 		.ascii	"coap://%s:%s\000"
 591      3A2F2F25 
 591      733A2573 
 591      00
 592              		.section	.text.get_security_object,"ax",%progbits
 593              		.align	1
 594              		.global	get_security_object
 595              		.syntax unified
 596              		.code	16
 597              		.thumb_func
 598              		.fpu softvfp
 600              	get_security_object:
 601              		@ args = 0, pretend = 0, frame = 112
 602              		@ frame_needed = 1, uses_anonymous_args = 0
 603 0000 90B5     		push	{r4, r7, lr}
 604 0002 9FB0     		sub	sp, sp, #124
 605 0004 02AF     		add	r7, sp, #8
 606 0006 B960     		str	r1, [r7, #8]
 607 0008 7A60     		str	r2, [r7, #4]
 608 000a 0E23     		movs	r3, #14
 609 000c FB18     		adds	r3, r7, r3
 610 000e 021C     		adds	r2, r0, #0
 611 0010 1A80     		strh	r2, [r3]
 612 0012 0023     		movs	r3, #0
 613 0014 7B66     		str	r3, [r7, #100]
 614 0016 0023     		movs	r3, #0
 615 0018 3B66     		str	r3, [r7, #96]
 616 001a 0023     		movs	r3, #0
 617 001c FB66     		str	r3, [r7, #108]
 618 001e 0023     		movs	r3, #0
 619 0020 FB65     		str	r3, [r7, #92]
 620 0022 0023     		movs	r3, #0
 621 0024 BB65     		str	r3, [r7, #88]
 622 0026 5623     		movs	r3, #86
 623 0028 FB18     		adds	r3, r7, r3
 624 002a 0022     		movs	r2, #0
 625 002c 1A80     		strh	r2, [r3]
 626 002e 5523     		movs	r3, #85
 627 0030 FB18     		adds	r3, r7, r3
 628 0032 0122     		movs	r2, #1
 629 0034 1A70     		strb	r2, [r3]
 630 0036 5423     		movs	r3, #84
 631 0038 FB18     		adds	r3, r7, r3
 632 003a 0222     		movs	r2, #2
ARM GAS  C:\Users\SONG_J~1\AppData\Local\Temp\cciLRu33.s 			page 12


 633 003c 1A70     		strb	r2, [r3]
 634 003e 6B23     		movs	r3, #107
 635 0040 FB18     		adds	r3, r7, r3
 636 0042 0022     		movs	r2, #0
 637 0044 1A70     		strb	r2, [r3]
 638 0046 6A23     		movs	r3, #106
 639 0048 FB18     		adds	r3, r7, r3
 640 004a 0122     		movs	r2, #1
 641 004c 1A70     		strb	r2, [r3]
 642 004e 6923     		movs	r3, #105
 643 0050 FB18     		adds	r3, r7, r3
 644 0052 0022     		movs	r2, #0
 645 0054 1A70     		strb	r2, [r3]
 646 0056 BB68     		ldr	r3, [r7, #8]
 647 0058 1B7B     		ldrb	r3, [r3, #12]
 648 005a 012B     		cmp	r3, #1
 649 005c 39D0     		beq	.L52
 650 005e 022B     		cmp	r3, #2
 651 0060 0FD0     		beq	.L53
 652 0062 002B     		cmp	r3, #0
 653 0064 43D1     		bne	.L73
 654 0066 6B22     		movs	r2, #107
 655 0068 BB18     		adds	r3, r7, r2
 656 006a B918     		adds	r1, r7, r2
 657 006c 5522     		movs	r2, #85
 658 006e BA18     		adds	r2, r7, r2
 659 0070 0978     		ldrb	r1, [r1]
 660 0072 1278     		ldrb	r2, [r2]
 661 0074 0A43     		orrs	r2, r1
 662 0076 1A70     		strb	r2, [r3]
 663 0078 6A23     		movs	r3, #106
 664 007a FB18     		adds	r3, r7, r3
 665 007c 0122     		movs	r2, #1
 666 007e 1A70     		strb	r2, [r3]
 667 0080 37E0     		b	.L55
 668              	.L53:
 669 0082 7B68     		ldr	r3, [r7, #4]
 670 0084 5B78     		ldrb	r3, [r3, #1]
 671 0086 012B     		cmp	r3, #1
 672 0088 15D1     		bne	.L56
 673 008a 6B20     		movs	r0, #107
 674 008c 3B18     		adds	r3, r7, r0
 675 008e 3918     		adds	r1, r7, r0
 676 0090 5522     		movs	r2, #85
 677 0092 BA18     		adds	r2, r7, r2
 678 0094 0978     		ldrb	r1, [r1]
 679 0096 1278     		ldrb	r2, [r2]
 680 0098 0A43     		orrs	r2, r1
 681 009a 1A70     		strb	r2, [r3]
 682 009c 3B18     		adds	r3, r7, r0
 683 009e 3918     		adds	r1, r7, r0
 684 00a0 5422     		movs	r2, #84
 685 00a2 BA18     		adds	r2, r7, r2
 686 00a4 0978     		ldrb	r1, [r1]
 687 00a6 1278     		ldrb	r2, [r2]
 688 00a8 0A43     		orrs	r2, r1
 689 00aa 1A70     		strb	r2, [r3]
ARM GAS  C:\Users\SONG_J~1\AppData\Local\Temp\cciLRu33.s 			page 13


 690 00ac 6A23     		movs	r3, #106
 691 00ae FB18     		adds	r3, r7, r3
 692 00b0 0222     		movs	r2, #2
 693 00b2 1A70     		strb	r2, [r3]
 694 00b4 1DE0     		b	.L55
 695              	.L56:
 696 00b6 6B22     		movs	r2, #107
 697 00b8 BB18     		adds	r3, r7, r2
 698 00ba B918     		adds	r1, r7, r2
 699 00bc 5422     		movs	r2, #84
 700 00be BA18     		adds	r2, r7, r2
 701 00c0 0978     		ldrb	r1, [r1]
 702 00c2 1278     		ldrb	r2, [r2]
 703 00c4 0A43     		orrs	r2, r1
 704 00c6 1A70     		strb	r2, [r3]
 705 00c8 6A23     		movs	r3, #106
 706 00ca FB18     		adds	r3, r7, r3
 707 00cc 0122     		movs	r2, #1
 708 00ce 1A70     		strb	r2, [r3]
 709 00d0 0FE0     		b	.L55
 710              	.L52:
 711 00d2 6B22     		movs	r2, #107
 712 00d4 BB18     		adds	r3, r7, r2
 713 00d6 B918     		adds	r1, r7, r2
 714 00d8 5422     		movs	r2, #84
 715 00da BA18     		adds	r2, r7, r2
 716 00dc 0978     		ldrb	r1, [r1]
 717 00de 1278     		ldrb	r2, [r2]
 718 00e0 0A43     		orrs	r2, r1
 719 00e2 1A70     		strb	r2, [r3]
 720 00e4 6A23     		movs	r3, #106
 721 00e6 FB18     		adds	r3, r7, r3
 722 00e8 0122     		movs	r2, #1
 723 00ea 1A70     		strb	r2, [r3]
 724 00ec 01E0     		b	.L55
 725              	.L73:
 726 00ee 0023     		movs	r3, #0
 727 00f0 19E1     		b	.L72
 728              	.L55:
 729 00f2 2C20     		movs	r0, #44
 730 00f4 FFF7FEFF 		bl	lwm2m_malloc
 731 00f8 0300     		movs	r3, r0
 732 00fa 7B66     		str	r3, [r7, #100]
 733 00fc 7B6E     		ldr	r3, [r7, #100]
 734 00fe 002B     		cmp	r3, #0
 735 0100 01D1     		bne	.L59
 736 0102 0023     		movs	r3, #0
 737 0104 0FE1     		b	.L72
 738              	.L59:
 739 0106 7B6E     		ldr	r3, [r7, #100]
 740 0108 2C22     		movs	r2, #44
 741 010a 0021     		movs	r1, #0
 742 010c 1800     		movs	r0, r3
 743 010e FFF7FEFF 		bl	memset
 744 0112 7B6E     		ldr	r3, [r7, #100]
 745 0114 0022     		movs	r2, #0
 746 0116 9A80     		strh	r2, [r3, #4]
ARM GAS  C:\Users\SONG_J~1\AppData\Local\Temp\cciLRu33.s 			page 14


 747 0118 0023     		movs	r3, #0
 748 011a FB66     		str	r3, [r7, #108]
 749 011c F8E0     		b	.L60
 750              	.L71:
 751 011e 4020     		movs	r0, #64
 752 0120 FFF7FEFF 		bl	lwm2m_malloc
 753 0124 0300     		movs	r3, r0
 754 0126 3B66     		str	r3, [r7, #96]
 755 0128 3B6E     		ldr	r3, [r7, #96]
 756 012a 002B     		cmp	r3, #0
 757 012c 05D1     		bne	.L61
 758 012e 7B6E     		ldr	r3, [r7, #100]
 759 0130 1800     		movs	r0, r3
 760 0132 FFF7FEFF 		bl	clean_security_object
 761 0136 0023     		movs	r3, #0
 762 0138 F5E0     		b	.L72
 763              	.L61:
 764 013a 3B6E     		ldr	r3, [r7, #96]
 765 013c 4022     		movs	r2, #64
 766 013e 0021     		movs	r1, #0
 767 0140 1800     		movs	r0, r3
 768 0142 FFF7FEFF 		bl	memset
 769 0146 6B23     		movs	r3, #107
 770 0148 FB18     		adds	r3, r7, r3
 771 014a 5522     		movs	r2, #85
 772 014c BA18     		adds	r2, r7, r2
 773 014e 1B78     		ldrb	r3, [r3]
 774 0150 1278     		ldrb	r2, [r2]
 775 0152 1340     		ands	r3, r2
 776 0154 DBB2     		uxtb	r3, r3
 777 0156 002B     		cmp	r3, #0
 778 0158 18D0     		beq	.L62
 779 015a 6B23     		movs	r3, #107
 780 015c FB18     		adds	r3, r7, r3
 781 015e 5422     		movs	r2, #84
 782 0160 BA18     		adds	r2, r7, r2
 783 0162 1B78     		ldrb	r3, [r3]
 784 0164 1278     		ldrb	r2, [r2]
 785 0166 1340     		ands	r3, r2
 786 0168 DBB2     		uxtb	r3, r3
 787 016a 002B     		cmp	r3, #0
 788 016c 0ED0     		beq	.L62
 789 016e FB6E     		ldr	r3, [r7, #108]
 790 0170 9AB2     		uxth	r2, r3
 791 0172 3B6E     		ldr	r3, [r7, #96]
 792 0174 9A80     		strh	r2, [r3, #4]
 793 0176 FB6E     		ldr	r3, [r7, #108]
 794 0178 5A1E     		subs	r2, r3, #1
 795 017a 9341     		sbcs	r3, r3, r2
 796 017c DAB2     		uxtb	r2, r3
 797 017e 3B6E     		ldr	r3, [r7, #96]
 798 0180 1A73     		strb	r2, [r3, #12]
 799 0182 6923     		movs	r3, #105
 800 0184 FB18     		adds	r3, r7, r3
 801 0186 FA6E     		ldr	r2, [r7, #108]
 802 0188 1A70     		strb	r2, [r3]
 803 018a 1EE0     		b	.L63
ARM GAS  C:\Users\SONG_J~1\AppData\Local\Temp\cciLRu33.s 			page 15


 804              	.L62:
 805 018c 6B23     		movs	r3, #107
 806 018e FB18     		adds	r3, r7, r3
 807 0190 5522     		movs	r2, #85
 808 0192 BA18     		adds	r2, r7, r2
 809 0194 1B78     		ldrb	r3, [r3]
 810 0196 1278     		ldrb	r2, [r2]
 811 0198 1340     		ands	r3, r2
 812 019a DBB2     		uxtb	r3, r3
 813 019c 002B     		cmp	r3, #0
 814 019e 0AD0     		beq	.L64
 815 01a0 3B6E     		ldr	r3, [r7, #96]
 816 01a2 0022     		movs	r2, #0
 817 01a4 9A80     		strh	r2, [r3, #4]
 818 01a6 3B6E     		ldr	r3, [r7, #96]
 819 01a8 0022     		movs	r2, #0
 820 01aa 1A73     		strb	r2, [r3, #12]
 821 01ac 6923     		movs	r3, #105
 822 01ae FB18     		adds	r3, r7, r3
 823 01b0 0022     		movs	r2, #0
 824 01b2 1A70     		strb	r2, [r3]
 825 01b4 09E0     		b	.L63
 826              	.L64:
 827 01b6 3B6E     		ldr	r3, [r7, #96]
 828 01b8 0122     		movs	r2, #1
 829 01ba 9A80     		strh	r2, [r3, #4]
 830 01bc 3B6E     		ldr	r3, [r7, #96]
 831 01be 0122     		movs	r2, #1
 832 01c0 1A73     		strb	r2, [r3, #12]
 833 01c2 6923     		movs	r3, #105
 834 01c4 FB18     		adds	r3, r7, r3
 835 01c6 0122     		movs	r2, #1
 836 01c8 1A70     		strb	r2, [r3]
 837              	.L63:
 838 01ca BB6D     		ldr	r3, [r7, #88]
 839 01cc 002B     		cmp	r3, #0
 840 01ce 17D0     		beq	.L65
 841 01d0 6920     		movs	r0, #105
 842 01d2 3B18     		adds	r3, r7, r0
 843 01d4 1A78     		ldrb	r2, [r3]
 844 01d6 BB68     		ldr	r3, [r7, #8]
 845 01d8 0232     		adds	r2, r2, #2
 846 01da D200     		lsls	r2, r2, #3
 847 01dc D158     		ldr	r1, [r2, r3]
 848 01de 3B18     		adds	r3, r7, r0
 849 01e0 1B78     		ldrb	r3, [r3]
 850 01e2 BA68     		ldr	r2, [r7, #8]
 851 01e4 0233     		adds	r3, r3, #2
 852 01e6 DB00     		lsls	r3, r3, #3
 853 01e8 D318     		adds	r3, r2, r3
 854 01ea 0433     		adds	r3, r3, #4
 855 01ec 1B68     		ldr	r3, [r3]
 856 01ee 504A     		ldr	r2, .L74
 857 01f0 1420     		movs	r0, #20
 858 01f2 3818     		adds	r0, r7, r0
 859 01f4 0093     		str	r3, [sp]
 860 01f6 0B00     		movs	r3, r1
ARM GAS  C:\Users\SONG_J~1\AppData\Local\Temp\cciLRu33.s 			page 16


 861 01f8 4021     		movs	r1, #64
 862 01fa FFF7FEFF 		bl	atiny_snprintf
 863 01fe 16E0     		b	.L66
 864              	.L65:
 865 0200 6920     		movs	r0, #105
 866 0202 3B18     		adds	r3, r7, r0
 867 0204 1A78     		ldrb	r2, [r3]
 868 0206 BB68     		ldr	r3, [r7, #8]
 869 0208 0232     		adds	r2, r2, #2
 870 020a D200     		lsls	r2, r2, #3
 871 020c D158     		ldr	r1, [r2, r3]
 872 020e 3B18     		adds	r3, r7, r0
 873 0210 1B78     		ldrb	r3, [r3]
 874 0212 BA68     		ldr	r2, [r7, #8]
 875 0214 0233     		adds	r3, r3, #2
 876 0216 DB00     		lsls	r3, r3, #3
 877 0218 D318     		adds	r3, r2, r3
 878 021a 0433     		adds	r3, r3, #4
 879 021c 1B68     		ldr	r3, [r3]
 880 021e 454A     		ldr	r2, .L74+4
 881 0220 1420     		movs	r0, #20
 882 0222 3818     		adds	r0, r7, r0
 883 0224 0093     		str	r3, [sp]
 884 0226 0B00     		movs	r3, r1
 885 0228 4021     		movs	r1, #64
 886 022a FFF7FEFF 		bl	atiny_snprintf
 887              	.L66:
 888 022e 1423     		movs	r3, #20
 889 0230 FB18     		adds	r3, r7, r3
 890 0232 1800     		movs	r0, r3
 891 0234 FFF7FEFF 		bl	lwm2m_strdup
 892 0238 0200     		movs	r2, r0
 893 023a 3B6E     		ldr	r3, [r7, #96]
 894 023c 9A60     		str	r2, [r3, #8]
 895 023e 3B6E     		ldr	r3, [r7, #96]
 896 0240 9B68     		ldr	r3, [r3, #8]
 897 0242 002B     		cmp	r3, #0
 898 0244 05D1     		bne	.L67
 899 0246 7B6E     		ldr	r3, [r7, #100]
 900 0248 1800     		movs	r0, r3
 901 024a FFF7FEFF 		bl	clean_security_object
 902 024e 0023     		movs	r3, #0
 903 0250 69E0     		b	.L72
 904              	.L67:
 905 0252 3B6E     		ldr	r3, [r7, #96]
 906 0254 0322     		movs	r2, #3
 907 0256 5A73     		strb	r2, [r3, #13]
 908 0258 FB6D     		ldr	r3, [r7, #92]
 909 025a 002B     		cmp	r3, #0
 910 025c 43D0     		beq	.L68
 911 025e BB6D     		ldr	r3, [r7, #88]
 912 0260 002B     		cmp	r3, #0
 913 0262 40D0     		beq	.L68
 914 0264 3B6E     		ldr	r3, [r7, #96]
 915 0266 0022     		movs	r2, #0
 916 0268 5A73     		strb	r2, [r3, #13]
 917 026a FB6D     		ldr	r3, [r7, #92]
ARM GAS  C:\Users\SONG_J~1\AppData\Local\Temp\cciLRu33.s 			page 17


 918 026c 1800     		movs	r0, r3
 919 026e FFF7FEFF 		bl	lwm2m_strdup
 920 0272 0200     		movs	r2, r0
 921 0274 3B6E     		ldr	r3, [r7, #96]
 922 0276 1A61     		str	r2, [r3, #16]
 923 0278 3B6E     		ldr	r3, [r7, #96]
 924 027a 1B69     		ldr	r3, [r3, #16]
 925 027c 002B     		cmp	r3, #0
 926 027e 05D1     		bne	.L69
 927 0280 7B6E     		ldr	r3, [r7, #100]
 928 0282 1800     		movs	r0, r3
 929 0284 FFF7FEFF 		bl	clean_security_object
 930 0288 0023     		movs	r3, #0
 931 028a 4CE0     		b	.L72
 932              	.L69:
 933 028c FB6D     		ldr	r3, [r7, #92]
 934 028e 1800     		movs	r0, r3
 935 0290 FFF7FEFF 		bl	strlen
 936 0294 0300     		movs	r3, r0
 937 0296 9AB2     		uxth	r2, r3
 938 0298 3B6E     		ldr	r3, [r7, #96]
 939 029a 9A82     		strh	r2, [r3, #20]
 940 029c 5623     		movs	r3, #86
 941 029e FB18     		adds	r3, r7, r3
 942 02a0 1B88     		ldrh	r3, [r3]
 943 02a2 002B     		cmp	r3, #0
 944 02a4 1FD0     		beq	.L68
 945 02a6 5623     		movs	r3, #86
 946 02a8 FB18     		adds	r3, r7, r3
 947 02aa 1B88     		ldrh	r3, [r3]
 948 02ac 1800     		movs	r0, r3
 949 02ae FFF7FEFF 		bl	lwm2m_malloc
 950 02b2 0200     		movs	r2, r0
 951 02b4 3B6E     		ldr	r3, [r7, #96]
 952 02b6 1A62     		str	r2, [r3, #32]
 953 02b8 3B6E     		ldr	r3, [r7, #96]
 954 02ba 1B6A     		ldr	r3, [r3, #32]
 955 02bc 002B     		cmp	r3, #0
 956 02be 05D1     		bne	.L70
 957 02c0 7B6E     		ldr	r3, [r7, #100]
 958 02c2 1800     		movs	r0, r3
 959 02c4 FFF7FEFF 		bl	clean_security_object
 960 02c8 0023     		movs	r3, #0
 961 02ca 2CE0     		b	.L72
 962              	.L70:
 963 02cc 3B6E     		ldr	r3, [r7, #96]
 964 02ce 186A     		ldr	r0, [r3, #32]
 965 02d0 5624     		movs	r4, #86
 966 02d2 3B19     		adds	r3, r7, r4
 967 02d4 1A88     		ldrh	r2, [r3]
 968 02d6 BB6D     		ldr	r3, [r7, #88]
 969 02d8 1900     		movs	r1, r3
 970 02da FFF7FEFF 		bl	memcpy
 971 02de 3B6E     		ldr	r3, [r7, #96]
 972 02e0 3A19     		adds	r2, r7, r4
 973 02e2 1288     		ldrh	r2, [r2]
 974 02e4 9A84     		strh	r2, [r3, #36]
ARM GAS  C:\Users\SONG_J~1\AppData\Local\Temp\cciLRu33.s 			page 18


 975              	.L68:
 976 02e6 3B6E     		ldr	r3, [r7, #96]
 977 02e8 0E22     		movs	r2, #14
 978 02ea BA18     		adds	r2, r7, r2
 979 02ec 1288     		ldrh	r2, [r2]
 980 02ee DA86     		strh	r2, [r3, #54]
 981 02f0 3B6E     		ldr	r3, [r7, #96]
 982 02f2 0A22     		movs	r2, #10
 983 02f4 9A63     		str	r2, [r3, #56]
 984 02f6 7B6E     		ldr	r3, [r7, #100]
 985 02f8 9B68     		ldr	r3, [r3, #8]
 986 02fa 3A6E     		ldr	r2, [r7, #96]
 987 02fc 1100     		movs	r1, r2
 988 02fe 1800     		movs	r0, r3
 989 0300 FFF7FEFF 		bl	lwm2m_list_add
 990 0304 0200     		movs	r2, r0
 991 0306 7B6E     		ldr	r3, [r7, #100]
 992 0308 9A60     		str	r2, [r3, #8]
 993 030a FB6E     		ldr	r3, [r7, #108]
 994 030c 0133     		adds	r3, r3, #1
 995 030e FB66     		str	r3, [r7, #108]
 996              	.L60:
 997 0310 6A23     		movs	r3, #106
 998 0312 FB18     		adds	r3, r7, r3
 999 0314 1B78     		ldrb	r3, [r3]
 1000 0316 FA6E     		ldr	r2, [r7, #108]
 1001 0318 9A42     		cmp	r2, r3
 1002 031a 00DA     		bge	.LCB1036
 1003 031c FFE6     		b	.L71	@long jump
 1004              	.LCB1036:
 1005 031e 7B6E     		ldr	r3, [r7, #100]
 1006 0320 054A     		ldr	r2, .L74+8
 1007 0322 DA60     		str	r2, [r3, #12]
 1008 0324 7B6E     		ldr	r3, [r7, #100]
 1009              	.L72:
 1010 0326 1800     		movs	r0, r3
 1011 0328 BD46     		mov	sp, r7
 1012 032a 1DB0     		add	sp, sp, #116
 1013              		@ sp needed
 1014 032c 90BD     		pop	{r4, r7, pc}
 1015              	.L75:
 1016 032e C046     		.align	2
 1017              	.L74:
 1018 0330 1C000000 		.word	.LC3
 1019 0334 2C000000 		.word	.LC5
 1020 0338 00000000 		.word	prv_security_read
 1022              		.section	.text.security_get_uri,"ax",%progbits
 1023              		.align	1
 1024              		.global	security_get_uri
 1025              		.syntax unified
 1026              		.code	16
 1027              		.thumb_func
 1028              		.fpu softvfp
 1030              	security_get_uri:
 1031              		@ args = 0, pretend = 0, frame = 16
 1032              		@ frame_needed = 1, uses_anonymous_args = 0
 1033 0000 80B5     		push	{r7, lr}
ARM GAS  C:\Users\SONG_J~1\AppData\Local\Temp\cciLRu33.s 			page 19


 1034 0002 84B0     		sub	sp, sp, #16
 1035 0004 00AF     		add	r7, sp, #0
 1036 0006 7860     		str	r0, [r7, #4]
 1037 0008 0A00     		movs	r2, r1
 1038 000a BB1C     		adds	r3, r7, #2
 1039 000c 1A80     		strh	r2, [r3]
 1040 000e 7B68     		ldr	r3, [r7, #4]
 1041 0010 9A68     		ldr	r2, [r3, #8]
 1042 0012 BB1C     		adds	r3, r7, #2
 1043 0014 1B88     		ldrh	r3, [r3]
 1044 0016 1900     		movs	r1, r3
 1045 0018 1000     		movs	r0, r2
 1046 001a FFF7FEFF 		bl	lwm2m_list_find
 1047 001e 0300     		movs	r3, r0
 1048 0020 FB60     		str	r3, [r7, #12]
 1049 0022 FB68     		ldr	r3, [r7, #12]
 1050 0024 002B     		cmp	r3, #0
 1051 0026 06D0     		beq	.L77
 1052 0028 FB68     		ldr	r3, [r7, #12]
 1053 002a 9B68     		ldr	r3, [r3, #8]
 1054 002c 1800     		movs	r0, r3
 1055 002e FFF7FEFF 		bl	lwm2m_strdup
 1056 0032 0300     		movs	r3, r0
 1057 0034 00E0     		b	.L78
 1058              	.L77:
 1059 0036 0023     		movs	r3, #0
 1060              	.L78:
 1061 0038 1800     		movs	r0, r3
 1062 003a BD46     		mov	sp, r7
 1063 003c 04B0     		add	sp, sp, #16
 1064              		@ sp needed
 1065 003e 80BD     		pop	{r7, pc}
 1067              		.ident	"GCC: (GNU Tools for Arm Embedded Processors 7-2017-q4-major) 7.2.1 20170904 (release) [ARM
ARM GAS  C:\Users\SONG_J~1\AppData\Local\Temp\cciLRu33.s 			page 20

