ARM GAS  C:\Users\SONG_J~1\AppData\Local\Temp\ccpfiTpO.s 			page 1


   1              		.cpu cortex-m0
   2              		.eabi_attribute 20, 1
   3              		.eabi_attribute 21, 1
   4              		.eabi_attribute 23, 3
   5              		.eabi_attribute 24, 1
   6              		.eabi_attribute 25, 1
   7              		.eabi_attribute 26, 1
   8              		.eabi_attribute 30, 6
   9              		.eabi_attribute 34, 0
  10              		.eabi_attribute 18, 4
  11              		.file	"observe.c"
  12              		.section	.text.dm_isUriOpaqueHandle,"ax",%progbits
  13              		.align	1
  14              		.syntax unified
  15              		.code	16
  16              		.thumb_func
  17              		.fpu softvfp
  19              	dm_isUriOpaqueHandle:
  20              		@ args = 0, pretend = 0, frame = 8
  21              		@ frame_needed = 1, uses_anonymous_args = 0
  22 0000 80B5     		push	{r7, lr}
  23 0002 82B0     		sub	sp, sp, #8
  24 0004 00AF     		add	r7, sp, #0
  25 0006 7860     		str	r0, [r7, #4]
  26 0008 7B68     		ldr	r3, [r7, #4]
  27 000a 5B88     		ldrh	r3, [r3, #2]
  28 000c 133B     		subs	r3, r3, #19
  29 000e 5A42     		rsbs	r2, r3, #0
  30 0010 5341     		adcs	r3, r3, r2
  31 0012 DBB2     		uxtb	r3, r3
  32 0014 1800     		movs	r0, r3
  33 0016 BD46     		mov	sp, r7
  34 0018 02B0     		add	sp, sp, #8
  35              		@ sp needed
  36 001a 80BD     		pop	{r7, pc}
  38              		.section	.bss.observe_call_back,"aw",%nobits
  39              		.align	2
  42              	observe_call_back:
  43 0000 00000000 		.space	4
  44              		.section	.text.lwm2m_register_observe_ack_call_back,"ax",%progbits
  45              		.align	1
  46              		.global	lwm2m_register_observe_ack_call_back
  47              		.syntax unified
  48              		.code	16
  49              		.thumb_func
  50              		.fpu softvfp
  52              	lwm2m_register_observe_ack_call_back:
  53              		@ args = 0, pretend = 0, frame = 8
  54              		@ frame_needed = 1, uses_anonymous_args = 0
  55 0000 80B5     		push	{r7, lr}
  56 0002 82B0     		sub	sp, sp, #8
  57 0004 00AF     		add	r7, sp, #0
  58 0006 7860     		str	r0, [r7, #4]
  59 0008 034B     		ldr	r3, .L4
  60 000a 7A68     		ldr	r2, [r7, #4]
  61 000c 1A60     		str	r2, [r3]
  62 000e C046     		nop
ARM GAS  C:\Users\SONG_J~1\AppData\Local\Temp\ccpfiTpO.s 			page 2


  63 0010 BD46     		mov	sp, r7
  64 0012 02B0     		add	sp, sp, #8
  65              		@ sp needed
  66 0014 80BD     		pop	{r7, pc}
  67              	.L5:
  68 0016 C046     		.align	2
  69              	.L4:
  70 0018 00000000 		.word	observe_call_back
  72              		.section	.text.prv_findObserved,"ax",%progbits
  73              		.align	1
  74              		.syntax unified
  75              		.code	16
  76              		.thumb_func
  77              		.fpu softvfp
  79              	prv_findObserved:
  80              		@ args = 0, pretend = 0, frame = 16
  81              		@ frame_needed = 1, uses_anonymous_args = 0
  82 0000 80B5     		push	{r7, lr}
  83 0002 84B0     		sub	sp, sp, #16
  84 0004 00AF     		add	r7, sp, #0
  85 0006 7860     		str	r0, [r7, #4]
  86 0008 3960     		str	r1, [r7]
  87 000a 7B68     		ldr	r3, [r7, #4]
  88 000c DB69     		ldr	r3, [r3, #28]
  89 000e FB60     		str	r3, [r7, #12]
  90 0010 02E0     		b	.L7
  91              	.L9:
  92 0012 FB68     		ldr	r3, [r7, #12]
  93 0014 1B68     		ldr	r3, [r3]
  94 0016 FB60     		str	r3, [r7, #12]
  95              	.L7:
  96 0018 FB68     		ldr	r3, [r7, #12]
  97 001a 002B     		cmp	r3, #0
  98 001c 23D0     		beq	.L8
  99 001e FB68     		ldr	r3, [r7, #12]
 100 0020 DA88     		ldrh	r2, [r3, #6]
 101 0022 3B68     		ldr	r3, [r7]
 102 0024 5B88     		ldrh	r3, [r3, #2]
 103 0026 9A42     		cmp	r2, r3
 104 0028 F3D1     		bne	.L9
 105 002a FB68     		ldr	r3, [r7, #12]
 106 002c 1A79     		ldrb	r2, [r3, #4]
 107 002e 3B68     		ldr	r3, [r7]
 108 0030 1B78     		ldrb	r3, [r3]
 109 0032 9A42     		cmp	r2, r3
 110 0034 EDD1     		bne	.L9
 111 0036 3B68     		ldr	r3, [r7]
 112 0038 1B78     		ldrb	r3, [r3]
 113 003a 1A00     		movs	r2, r3
 114 003c 0223     		movs	r3, #2
 115 003e 1340     		ands	r3, r2
 116 0040 05D0     		beq	.L10
 117 0042 FB68     		ldr	r3, [r7, #12]
 118 0044 1A89     		ldrh	r2, [r3, #8]
 119 0046 3B68     		ldr	r3, [r7]
 120 0048 9B88     		ldrh	r3, [r3, #4]
 121 004a 9A42     		cmp	r2, r3
ARM GAS  C:\Users\SONG_J~1\AppData\Local\Temp\ccpfiTpO.s 			page 3


 122 004c E1D1     		bne	.L9
 123              	.L10:
 124 004e 3B68     		ldr	r3, [r7]
 125 0050 1B78     		ldrb	r3, [r3]
 126 0052 1A00     		movs	r2, r3
 127 0054 0123     		movs	r3, #1
 128 0056 1340     		ands	r3, r2
 129 0058 05D0     		beq	.L8
 130 005a FB68     		ldr	r3, [r7, #12]
 131 005c 5A89     		ldrh	r2, [r3, #10]
 132 005e 3B68     		ldr	r3, [r7]
 133 0060 DB88     		ldrh	r3, [r3, #6]
 134 0062 9A42     		cmp	r2, r3
 135 0064 D5D1     		bne	.L9
 136              	.L8:
 137 0066 FB68     		ldr	r3, [r7, #12]
 138 0068 1800     		movs	r0, r3
 139 006a BD46     		mov	sp, r7
 140 006c 04B0     		add	sp, sp, #16
 141              		@ sp needed
 142 006e 80BD     		pop	{r7, pc}
 144              		.section	.text.prv_unlinkObserved,"ax",%progbits
 145              		.align	1
 146              		.syntax unified
 147              		.code	16
 148              		.thumb_func
 149              		.fpu softvfp
 151              	prv_unlinkObserved:
 152              		@ args = 0, pretend = 0, frame = 16
 153              		@ frame_needed = 1, uses_anonymous_args = 0
 154 0000 80B5     		push	{r7, lr}
 155 0002 84B0     		sub	sp, sp, #16
 156 0004 00AF     		add	r7, sp, #0
 157 0006 7860     		str	r0, [r7, #4]
 158 0008 3960     		str	r1, [r7]
 159 000a 7B68     		ldr	r3, [r7, #4]
 160 000c DB69     		ldr	r3, [r3, #28]
 161 000e 3A68     		ldr	r2, [r7]
 162 0010 9A42     		cmp	r2, r3
 163 0012 05D1     		bne	.L13
 164 0014 7B68     		ldr	r3, [r7, #4]
 165 0016 DB69     		ldr	r3, [r3, #28]
 166 0018 1A68     		ldr	r2, [r3]
 167 001a 7B68     		ldr	r3, [r7, #4]
 168 001c DA61     		str	r2, [r3, #28]
 169 001e 18E0     		b	.L18
 170              	.L13:
 171 0020 7B68     		ldr	r3, [r7, #4]
 172 0022 DB69     		ldr	r3, [r3, #28]
 173 0024 FB60     		str	r3, [r7, #12]
 174 0026 02E0     		b	.L15
 175              	.L17:
 176 0028 FB68     		ldr	r3, [r7, #12]
 177 002a 1B68     		ldr	r3, [r3]
 178 002c FB60     		str	r3, [r7, #12]
 179              	.L15:
 180 002e FB68     		ldr	r3, [r7, #12]
ARM GAS  C:\Users\SONG_J~1\AppData\Local\Temp\ccpfiTpO.s 			page 4


 181 0030 1B68     		ldr	r3, [r3]
 182 0032 002B     		cmp	r3, #0
 183 0034 04D0     		beq	.L16
 184 0036 FB68     		ldr	r3, [r7, #12]
 185 0038 1B68     		ldr	r3, [r3]
 186 003a 3A68     		ldr	r2, [r7]
 187 003c 9A42     		cmp	r2, r3
 188 003e F3D1     		bne	.L17
 189              	.L16:
 190 0040 FB68     		ldr	r3, [r7, #12]
 191 0042 1B68     		ldr	r3, [r3]
 192 0044 002B     		cmp	r3, #0
 193 0046 04D0     		beq	.L18
 194 0048 FB68     		ldr	r3, [r7, #12]
 195 004a 1B68     		ldr	r3, [r3]
 196 004c 1A68     		ldr	r2, [r3]
 197 004e FB68     		ldr	r3, [r7, #12]
 198 0050 1A60     		str	r2, [r3]
 199              	.L18:
 200 0052 C046     		nop
 201 0054 BD46     		mov	sp, r7
 202 0056 04B0     		add	sp, sp, #16
 203              		@ sp needed
 204 0058 80BD     		pop	{r7, pc}
 206              		.section	.text.prv_findWatcher,"ax",%progbits
 207              		.align	1
 208              		.syntax unified
 209              		.code	16
 210              		.thumb_func
 211              		.fpu softvfp
 213              	prv_findWatcher:
 214              		@ args = 0, pretend = 0, frame = 16
 215              		@ frame_needed = 1, uses_anonymous_args = 0
 216 0000 80B5     		push	{r7, lr}
 217 0002 84B0     		sub	sp, sp, #16
 218 0004 00AF     		add	r7, sp, #0
 219 0006 7860     		str	r0, [r7, #4]
 220 0008 3960     		str	r1, [r7]
 221 000a 7B68     		ldr	r3, [r7, #4]
 222 000c DB68     		ldr	r3, [r3, #12]
 223 000e FB60     		str	r3, [r7, #12]
 224 0010 02E0     		b	.L20
 225              	.L22:
 226 0012 FB68     		ldr	r3, [r7, #12]
 227 0014 1B68     		ldr	r3, [r3]
 228 0016 FB60     		str	r3, [r7, #12]
 229              	.L20:
 230 0018 FB68     		ldr	r3, [r7, #12]
 231 001a 002B     		cmp	r3, #0
 232 001c 04D0     		beq	.L21
 233 001e FB68     		ldr	r3, [r7, #12]
 234 0020 9B68     		ldr	r3, [r3, #8]
 235 0022 3A68     		ldr	r2, [r7]
 236 0024 9A42     		cmp	r2, r3
 237 0026 F4D1     		bne	.L22
 238              	.L21:
 239 0028 FB68     		ldr	r3, [r7, #12]
ARM GAS  C:\Users\SONG_J~1\AppData\Local\Temp\ccpfiTpO.s 			page 5


 240 002a 1800     		movs	r0, r3
 241 002c BD46     		mov	sp, r7
 242 002e 04B0     		add	sp, sp, #16
 243              		@ sp needed
 244 0030 80BD     		pop	{r7, pc}
 246              		.section	.text.prv_getWatcher,"ax",%progbits
 247              		.align	1
 248              		.syntax unified
 249              		.code	16
 250              		.thumb_func
 251              		.fpu softvfp
 253              	prv_getWatcher:
 254              		@ args = 0, pretend = 0, frame = 32
 255              		@ frame_needed = 1, uses_anonymous_args = 0
 256 0000 80B5     		push	{r7, lr}
 257 0002 88B0     		sub	sp, sp, #32
 258 0004 00AF     		add	r7, sp, #0
 259 0006 F860     		str	r0, [r7, #12]
 260 0008 B960     		str	r1, [r7, #8]
 261 000a 7A60     		str	r2, [r7, #4]
 262 000c 1B23     		movs	r3, #27
 263 000e FB18     		adds	r3, r7, r3
 264 0010 0022     		movs	r2, #0
 265 0012 1A70     		strb	r2, [r3]
 266 0014 BA68     		ldr	r2, [r7, #8]
 267 0016 FB68     		ldr	r3, [r7, #12]
 268 0018 1100     		movs	r1, r2
 269 001a 1800     		movs	r0, r3
 270 001c FFF7FEFF 		bl	prv_findObserved
 271 0020 0300     		movs	r3, r0
 272 0022 FB61     		str	r3, [r7, #28]
 273 0024 FB69     		ldr	r3, [r7, #28]
 274 0026 002B     		cmp	r3, #0
 275 0028 2BD1     		bne	.L25
 276 002a 1020     		movs	r0, #16
 277 002c FFF7FEFF 		bl	lwm2m_malloc
 278 0030 0300     		movs	r3, r0
 279 0032 FB61     		str	r3, [r7, #28]
 280 0034 FB69     		ldr	r3, [r7, #28]
 281 0036 002B     		cmp	r3, #0
 282 0038 01D1     		bne	.L26
 283 003a 0023     		movs	r3, #0
 284 003c 5DE0     		b	.L27
 285              	.L26:
 286 003e 1B23     		movs	r3, #27
 287 0040 FB18     		adds	r3, r7, r3
 288 0042 0122     		movs	r2, #1
 289 0044 1A70     		strb	r2, [r3]
 290 0046 FB69     		ldr	r3, [r7, #28]
 291 0048 1022     		movs	r2, #16
 292 004a 0021     		movs	r1, #0
 293 004c 1800     		movs	r0, r3
 294 004e FFF7FEFF 		bl	memset
 295 0052 FB69     		ldr	r3, [r7, #28]
 296 0054 0433     		adds	r3, r3, #4
 297 0056 B968     		ldr	r1, [r7, #8]
 298 0058 0822     		movs	r2, #8
ARM GAS  C:\Users\SONG_J~1\AppData\Local\Temp\ccpfiTpO.s 			page 6


 299 005a 1800     		movs	r0, r3
 300 005c FFF7FEFF 		bl	memcpy
 301 0060 FB68     		ldr	r3, [r7, #12]
 302 0062 1B6A     		ldr	r3, [r3, #32]
 303 0064 1800     		movs	r0, r3
 304 0066 FFF7FEFF 		bl	atiny_mutex_lock
 305 006a FB68     		ldr	r3, [r7, #12]
 306 006c DA69     		ldr	r2, [r3, #28]
 307 006e FB69     		ldr	r3, [r7, #28]
 308 0070 1A60     		str	r2, [r3]
 309 0072 FB68     		ldr	r3, [r7, #12]
 310 0074 FA69     		ldr	r2, [r7, #28]
 311 0076 DA61     		str	r2, [r3, #28]
 312 0078 FB68     		ldr	r3, [r7, #12]
 313 007a 1B6A     		ldr	r3, [r3, #32]
 314 007c 1800     		movs	r0, r3
 315 007e FFF7FEFF 		bl	atiny_mutex_unlock
 316              	.L25:
 317 0082 7A68     		ldr	r2, [r7, #4]
 318 0084 FB69     		ldr	r3, [r7, #28]
 319 0086 1100     		movs	r1, r2
 320 0088 1800     		movs	r0, r3
 321 008a FFF7FEFF 		bl	prv_findWatcher
 322 008e 0300     		movs	r3, r0
 323 0090 7B61     		str	r3, [r7, #20]
 324 0092 7B69     		ldr	r3, [r7, #20]
 325 0094 002B     		cmp	r3, #0
 326 0096 2FD1     		bne	.L28
 327 0098 3820     		movs	r0, #56
 328 009a FFF7FEFF 		bl	lwm2m_malloc
 329 009e 0300     		movs	r3, r0
 330 00a0 7B61     		str	r3, [r7, #20]
 331 00a2 7B69     		ldr	r3, [r7, #20]
 332 00a4 002B     		cmp	r3, #0
 333 00a6 0AD1     		bne	.L29
 334 00a8 1B23     		movs	r3, #27
 335 00aa FB18     		adds	r3, r7, r3
 336 00ac 1B78     		ldrb	r3, [r3]
 337 00ae 002B     		cmp	r3, #0
 338 00b0 03D0     		beq	.L30
 339 00b2 FB69     		ldr	r3, [r7, #28]
 340 00b4 1800     		movs	r0, r3
 341 00b6 FFF7FEFF 		bl	lwm2m_free
 342              	.L30:
 343 00ba 0023     		movs	r3, #0
 344 00bc 1DE0     		b	.L27
 345              	.L29:
 346 00be 7B69     		ldr	r3, [r7, #20]
 347 00c0 3822     		movs	r2, #56
 348 00c2 0021     		movs	r1, #0
 349 00c4 1800     		movs	r0, r3
 350 00c6 FFF7FEFF 		bl	memset
 351 00ca 7B69     		ldr	r3, [r7, #20]
 352 00cc 0022     		movs	r2, #0
 353 00ce 1A71     		strb	r2, [r3, #4]
 354 00d0 7B69     		ldr	r3, [r7, #20]
 355 00d2 7A68     		ldr	r2, [r7, #4]
ARM GAS  C:\Users\SONG_J~1\AppData\Local\Temp\ccpfiTpO.s 			page 7


 356 00d4 9A60     		str	r2, [r3, #8]
 357 00d6 FB68     		ldr	r3, [r7, #12]
 358 00d8 1B6A     		ldr	r3, [r3, #32]
 359 00da 1800     		movs	r0, r3
 360 00dc FFF7FEFF 		bl	atiny_mutex_lock
 361 00e0 FB69     		ldr	r3, [r7, #28]
 362 00e2 DA68     		ldr	r2, [r3, #12]
 363 00e4 7B69     		ldr	r3, [r7, #20]
 364 00e6 1A60     		str	r2, [r3]
 365 00e8 FB69     		ldr	r3, [r7, #28]
 366 00ea 7A69     		ldr	r2, [r7, #20]
 367 00ec DA60     		str	r2, [r3, #12]
 368 00ee FB68     		ldr	r3, [r7, #12]
 369 00f0 1B6A     		ldr	r3, [r3, #32]
 370 00f2 1800     		movs	r0, r3
 371 00f4 FFF7FEFF 		bl	atiny_mutex_unlock
 372              	.L28:
 373 00f8 7B69     		ldr	r3, [r7, #20]
 374              	.L27:
 375 00fa 1800     		movs	r0, r3
 376 00fc BD46     		mov	sp, r7
 377 00fe 08B0     		add	sp, sp, #32
 378              		@ sp needed
 379 0100 80BD     		pop	{r7, pc}
 381              		.section	.rodata
 382              		.align	2
 383              	.LC1:
 384 0000 53544154 		.ascii	"STATE_BS_FAILED\000"
 384      455F4253 
 384      5F464149 
 384      4C454400 
 385              		.align	2
 386              	.LC3:
 387 0010 556E6B6E 		.ascii	"Unknown\000"
 387      6F776E00 
 388              		.align	2
 389              	.LC5:
 390 0018 53544154 		.ascii	"STATE_BS_FAILING\000"
 390      455F4253 
 390      5F464149 
 390      4C494E47 
 390      00
 391 0029 000000   		.align	2
 392              	.LC7:
 393 002c 53544154 		.ascii	"STATE_BS_FINISHING\000"
 393      455F4253 
 393      5F46494E 
 393      49534849 
 393      4E4700
 394 003f 00       		.align	2
 395              	.LC9:
 396 0040 53544154 		.ascii	"STATE_BS_FINISHED\000"
 396      455F4253 
 396      5F46494E 
 396      49534845 
 396      4400
 397 0052 0000     		.align	2
ARM GAS  C:\Users\SONG_J~1\AppData\Local\Temp\ccpfiTpO.s 			page 8


 398              	.LC11:
 399 0054 53544154 		.ascii	"STATE_BS_PENDING\000"
 399      455F4253 
 399      5F50454E 
 399      44494E47 
 399      00
 400 0065 000000   		.align	2
 401              	.LC13:
 402 0068 53544154 		.ascii	"STATE_BS_INITIATED\000"
 402      455F4253 
 402      5F494E49 
 402      54494154 
 402      454400
 403 007b 00       		.align	2
 404              	.LC15:
 405 007c 53544154 		.ascii	"STATE_BS_HOLD_OFF\000"
 405      455F4253 
 405      5F484F4C 
 405      445F4F46 
 405      4600
 406 008e 0000     		.align	2
 407              	.LC17:
 408 0090 53544154 		.ascii	"STATE_DEREG_PENDING\000"
 408      455F4445 
 408      5245475F 
 408      50454E44 
 408      494E4700 
 409              		.align	2
 410              	.LC19:
 411 00a4 53544154 		.ascii	"STATE_REG_FULL_UPDATE_NEEDED\000"
 411      455F5245 
 411      475F4655 
 411      4C4C5F55 
 411      50444154 
 412 00c1 000000   		.align	2
 413              	.LC21:
 414 00c4 53544154 		.ascii	"STATE_REG_UPDATE_NEEDED\000"
 414      455F5245 
 414      475F5550 
 414      44415445 
 414      5F4E4545 
 415              		.align	2
 416              	.LC23:
 417 00dc 53544154 		.ascii	"STATE_REG_UPDATE_PENDING\000"
 417      455F5245 
 417      475F5550 
 417      44415445 
 417      5F50454E 
 418 00f5 000000   		.align	2
 419              	.LC25:
 420 00f8 53544154 		.ascii	"STATE_REG_FAILED\000"
 420      455F5245 
 420      475F4641 
 420      494C4544 
 420      00
 421 0109 000000   		.align	2
 422              	.LC27:
ARM GAS  C:\Users\SONG_J~1\AppData\Local\Temp\ccpfiTpO.s 			page 9


 423 010c 53544154 		.ascii	"STATE_REGISTERED\000"
 423      455F5245 
 423      47495354 
 423      45524544 
 423      00
 424 011d 000000   		.align	2
 425              	.LC29:
 426 0120 53544154 		.ascii	"STATE_REG_PENDING\000"
 426      455F5245 
 426      475F5045 
 426      4E44494E 
 426      4700
 427 0132 0000     		.align	2
 428              	.LC31:
 429 0134 53544154 		.ascii	"STATE_DEREGISTERED\000"
 429      455F4445 
 429      52454749 
 429      53544552 
 429      454400
 430 0147 00       		.align	2
 431              	.LC34:
 432 0148 5B25733A 		.ascii	"[%s:%d] Code: %02X, server status: %s\015\012\000"
 432      25645D20 
 432      436F6465 
 432      3A202530 
 432      32582C20 
 433              		.align	2
 434              	.LC36:
 435 0170 5B25733A 		.ascii	"[%s:%d] NULL\015\012\000"
 435      25645D20 
 435      4E554C4C 
 435      0D0A00
 436 017f 00       		.align	2
 437              	.LC38:
 438 0180 5B25733A 		.ascii	"[%s:%d] /%d\000"
 438      25645D20 
 438      2F256400 
 439              		.align	2
 440              	.LC40:
 441 018c 2F256400 		.ascii	"/%d\000"
 442              		.align	2
 443              	.LC42:
 444 0190 0D0A00   		.ascii	"\015\012\000"
 445              		.section	.text.observe_handleRequest,"ax",%progbits
 446              		.align	1
 447              		.global	observe_handleRequest
 448              		.syntax unified
 449              		.code	16
 450              		.thumb_func
 451              		.fpu softvfp
 453              	observe_handleRequest:
 454              		@ args = 12, pretend = 0, frame = 24
 455              		@ frame_needed = 1, uses_anonymous_args = 0
 456 0000 90B5     		push	{r4, r7, lr}
 457 0002 89B0     		sub	sp, sp, #36
 458 0004 02AF     		add	r7, sp, #8
 459 0006 F860     		str	r0, [r7, #12]
ARM GAS  C:\Users\SONG_J~1\AppData\Local\Temp\ccpfiTpO.s 			page 10


 460 0008 B960     		str	r1, [r7, #8]
 461 000a 7A60     		str	r2, [r7, #4]
 462 000c 3B60     		str	r3, [r7]
 463 000e FB6A     		ldr	r3, [r7, #44]
 464 0010 9B79     		ldrb	r3, [r3, #6]
 465 0012 1C00     		movs	r4, r3
 466 0014 7B68     		ldr	r3, [r7, #4]
 467 0016 2022     		movs	r2, #32
 468 0018 9B5C     		ldrb	r3, [r3, r2]
 469 001a 002B     		cmp	r3, #0
 470 001c 00D1     		bne	.LCB400
 471 001e 64E0     		b	.L32	@long jump
 472              	.LCB400:
 473 0020 7B68     		ldr	r3, [r7, #4]
 474 0022 2022     		movs	r2, #32
 475 0024 9B5C     		ldrb	r3, [r3, r2]
 476 0026 012B     		cmp	r3, #1
 477 0028 00D1     		bne	.LCB405
 478 002a 5CE0     		b	.L33	@long jump
 479              	.LCB405:
 480 002c 7B68     		ldr	r3, [r7, #4]
 481 002e 2022     		movs	r2, #32
 482 0030 9B5C     		ldrb	r3, [r3, r2]
 483 0032 022B     		cmp	r3, #2
 484 0034 55D0     		beq	.L34
 485 0036 7B68     		ldr	r3, [r7, #4]
 486 0038 2022     		movs	r2, #32
 487 003a 9B5C     		ldrb	r3, [r3, r2]
 488 003c 032B     		cmp	r3, #3
 489 003e 4ED0     		beq	.L35
 490 0040 7B68     		ldr	r3, [r7, #4]
 491 0042 2022     		movs	r2, #32
 492 0044 9B5C     		ldrb	r3, [r3, r2]
 493 0046 042B     		cmp	r3, #4
 494 0048 47D0     		beq	.L36
 495 004a 7B68     		ldr	r3, [r7, #4]
 496 004c 2022     		movs	r2, #32
 497 004e 9B5C     		ldrb	r3, [r3, r2]
 498 0050 052B     		cmp	r3, #5
 499 0052 40D0     		beq	.L37
 500 0054 7B68     		ldr	r3, [r7, #4]
 501 0056 2022     		movs	r2, #32
 502 0058 9B5C     		ldrb	r3, [r3, r2]
 503 005a 062B     		cmp	r3, #6
 504 005c 39D0     		beq	.L38
 505 005e 7B68     		ldr	r3, [r7, #4]
 506 0060 2022     		movs	r2, #32
 507 0062 9B5C     		ldrb	r3, [r3, r2]
 508 0064 072B     		cmp	r3, #7
 509 0066 32D0     		beq	.L39
 510 0068 7B68     		ldr	r3, [r7, #4]
 511 006a 2022     		movs	r2, #32
 512 006c 9B5C     		ldrb	r3, [r3, r2]
 513 006e 082B     		cmp	r3, #8
 514 0070 2BD0     		beq	.L40
 515 0072 7B68     		ldr	r3, [r7, #4]
 516 0074 2022     		movs	r2, #32
ARM GAS  C:\Users\SONG_J~1\AppData\Local\Temp\ccpfiTpO.s 			page 11


 517 0076 9B5C     		ldrb	r3, [r3, r2]
 518 0078 092B     		cmp	r3, #9
 519 007a 24D0     		beq	.L41
 520 007c 7B68     		ldr	r3, [r7, #4]
 521 007e 2022     		movs	r2, #32
 522 0080 9B5C     		ldrb	r3, [r3, r2]
 523 0082 0A2B     		cmp	r3, #10
 524 0084 1DD0     		beq	.L42
 525 0086 7B68     		ldr	r3, [r7, #4]
 526 0088 2022     		movs	r2, #32
 527 008a 9B5C     		ldrb	r3, [r3, r2]
 528 008c 0C2B     		cmp	r3, #12
 529 008e 16D0     		beq	.L43
 530 0090 7B68     		ldr	r3, [r7, #4]
 531 0092 2022     		movs	r2, #32
 532 0094 9B5C     		ldrb	r3, [r3, r2]
 533 0096 0B2B     		cmp	r3, #11
 534 0098 0FD0     		beq	.L44
 535 009a 7B68     		ldr	r3, [r7, #4]
 536 009c 2022     		movs	r2, #32
 537 009e 9B5C     		ldrb	r3, [r3, r2]
 538 00a0 0D2B     		cmp	r3, #13
 539 00a2 08D0     		beq	.L45
 540 00a4 7B68     		ldr	r3, [r7, #4]
 541 00a6 2022     		movs	r2, #32
 542 00a8 9B5C     		ldrb	r3, [r3, r2]
 543 00aa 0E2B     		cmp	r3, #14
 544 00ac 01D1     		bne	.L46
 545 00ae 7E4B     		ldr	r3, .L86
 546 00b0 1CE0     		b	.L61
 547              	.L46:
 548 00b2 7E4B     		ldr	r3, .L86+4
 549 00b4 1AE0     		b	.L61
 550              	.L45:
 551 00b6 7E4B     		ldr	r3, .L86+8
 552 00b8 18E0     		b	.L61
 553              	.L44:
 554 00ba 7E4B     		ldr	r3, .L86+12
 555 00bc 16E0     		b	.L61
 556              	.L43:
 557 00be 7E4B     		ldr	r3, .L86+16
 558 00c0 14E0     		b	.L61
 559              	.L42:
 560 00c2 7E4B     		ldr	r3, .L86+20
 561 00c4 12E0     		b	.L61
 562              	.L41:
 563 00c6 7E4B     		ldr	r3, .L86+24
 564 00c8 10E0     		b	.L61
 565              	.L40:
 566 00ca 7E4B     		ldr	r3, .L86+28
 567 00cc 0EE0     		b	.L61
 568              	.L39:
 569 00ce 7E4B     		ldr	r3, .L86+32
 570 00d0 0CE0     		b	.L61
 571              	.L38:
 572 00d2 7E4B     		ldr	r3, .L86+36
 573 00d4 0AE0     		b	.L61
ARM GAS  C:\Users\SONG_J~1\AppData\Local\Temp\ccpfiTpO.s 			page 12


 574              	.L37:
 575 00d6 7E4B     		ldr	r3, .L86+40
 576 00d8 08E0     		b	.L61
 577              	.L36:
 578 00da 7E4B     		ldr	r3, .L86+44
 579 00dc 06E0     		b	.L61
 580              	.L35:
 581 00de 7E4B     		ldr	r3, .L86+48
 582 00e0 04E0     		b	.L61
 583              	.L34:
 584 00e2 7E4B     		ldr	r3, .L86+52
 585 00e4 02E0     		b	.L61
 586              	.L33:
 587 00e6 7E4B     		ldr	r3, .L86+56
 588 00e8 00E0     		b	.L61
 589              	.L32:
 590 00ea 7E4B     		ldr	r3, .L86+60
 591              	.L61:
 592 00ec 7E49     		ldr	r1, .L86+64
 593 00ee 7F48     		ldr	r0, .L86+68
 594 00f0 0093     		str	r3, [sp]
 595 00f2 2300     		movs	r3, r4
 596 00f4 D922     		movs	r2, #217
 597 00f6 FFF7FEFF 		bl	atiny_printf
 598 00fa BB68     		ldr	r3, [r7, #8]
 599 00fc 002B     		cmp	r3, #0
 600 00fe 06D1     		bne	.L62
 601 0100 7949     		ldr	r1, .L86+64
 602 0102 7B4B     		ldr	r3, .L86+72
 603 0104 DA22     		movs	r2, #218
 604 0106 1800     		movs	r0, r3
 605 0108 FFF7FEFF 		bl	atiny_printf
 606 010c 26E0     		b	.L63
 607              	.L62:
 608 010e BB68     		ldr	r3, [r7, #8]
 609 0110 5B88     		ldrh	r3, [r3, #2]
 610 0112 7549     		ldr	r1, .L86+64
 611 0114 7748     		ldr	r0, .L86+76
 612 0116 DA22     		movs	r2, #218
 613 0118 FFF7FEFF 		bl	atiny_printf
 614 011c BB68     		ldr	r3, [r7, #8]
 615 011e 1B78     		ldrb	r3, [r3]
 616 0120 1A00     		movs	r2, r3
 617 0122 0223     		movs	r3, #2
 618 0124 1340     		ands	r3, r2
 619 0126 07D0     		beq	.L64
 620 0128 BB68     		ldr	r3, [r7, #8]
 621 012a 9B88     		ldrh	r3, [r3, #4]
 622 012c 1A00     		movs	r2, r3
 623 012e 724B     		ldr	r3, .L86+80
 624 0130 1100     		movs	r1, r2
 625 0132 1800     		movs	r0, r3
 626 0134 FFF7FEFF 		bl	atiny_printf
 627              	.L64:
 628 0138 BB68     		ldr	r3, [r7, #8]
 629 013a 1B78     		ldrb	r3, [r3]
 630 013c 1A00     		movs	r2, r3
ARM GAS  C:\Users\SONG_J~1\AppData\Local\Temp\ccpfiTpO.s 			page 13


 631 013e 0123     		movs	r3, #1
 632 0140 1340     		ands	r3, r2
 633 0142 07D0     		beq	.L65
 634 0144 BB68     		ldr	r3, [r7, #8]
 635 0146 DB88     		ldrh	r3, [r3, #6]
 636 0148 1A00     		movs	r2, r3
 637 014a 6B4B     		ldr	r3, .L86+80
 638 014c 1100     		movs	r1, r2
 639 014e 1800     		movs	r0, r3
 640 0150 FFF7FEFF 		bl	atiny_printf
 641              	.L65:
 642 0154 694B     		ldr	r3, .L86+84
 643 0156 1800     		movs	r0, r3
 644 0158 FFF7FEFF 		bl	atiny_printf
 645              	.L63:
 646 015c 1023     		movs	r3, #16
 647 015e FA18     		adds	r2, r7, r3
 648 0160 FB6A     		ldr	r3, [r7, #44]
 649 0162 1100     		movs	r1, r2
 650 0164 1800     		movs	r0, r3
 651 0166 FFF7FEFF 		bl	coap_get_header_observe
 652 016a 3B69     		ldr	r3, [r7, #16]
 653 016c 002B     		cmp	r3, #0
 654 016e 03D0     		beq	.L67
 655 0170 012B     		cmp	r3, #1
 656 0172 00D1     		bne	.LCB620
 657 0174 8AE0     		b	.L68	@long jump
 658              	.LCB620:
 659 0176 92E0     		b	.L82
 660              	.L67:
 661 0178 BB68     		ldr	r3, [r7, #8]
 662 017a 1B78     		ldrb	r3, [r3]
 663 017c 1A00     		movs	r2, r3
 664 017e 0223     		movs	r3, #2
 665 0180 1340     		ands	r3, r2
 666 0182 07D1     		bne	.L69
 667 0184 BB68     		ldr	r3, [r7, #8]
 668 0186 1B78     		ldrb	r3, [r3]
 669 0188 1A00     		movs	r2, r3
 670 018a 0123     		movs	r3, #1
 671 018c 1340     		ands	r3, r2
 672 018e 01D0     		beq	.L69
 673 0190 8023     		movs	r3, #128
 674 0192 85E0     		b	.L81
 675              	.L69:
 676 0194 FB6A     		ldr	r3, [r7, #44]
 677 0196 4C22     		movs	r2, #76
 678 0198 9B5C     		ldrb	r3, [r3, r2]
 679 019a 002B     		cmp	r3, #0
 680 019c 01D1     		bne	.L71
 681 019e 8023     		movs	r3, #128
 682 01a0 7EE0     		b	.L81
 683              	.L71:
 684 01a2 7A68     		ldr	r2, [r7, #4]
 685 01a4 B968     		ldr	r1, [r7, #8]
 686 01a6 FB68     		ldr	r3, [r7, #12]
 687 01a8 1800     		movs	r0, r3
ARM GAS  C:\Users\SONG_J~1\AppData\Local\Temp\ccpfiTpO.s 			page 14


 688 01aa FFF7FEFF 		bl	prv_getWatcher
 689 01ae 0300     		movs	r3, r0
 690 01b0 7B61     		str	r3, [r7, #20]
 691 01b2 7B69     		ldr	r3, [r7, #20]
 692 01b4 002B     		cmp	r3, #0
 693 01b6 01D1     		bne	.L72
 694 01b8 A023     		movs	r3, #160
 695 01ba 71E0     		b	.L81
 696              	.L72:
 697 01bc FB6A     		ldr	r3, [r7, #44]
 698 01be 4C22     		movs	r2, #76
 699 01c0 9B5C     		ldrb	r3, [r3, r2]
 700 01c2 1A00     		movs	r2, r3
 701 01c4 7B69     		ldr	r3, [r7, #20]
 702 01c6 DA61     		str	r2, [r3, #28]
 703 01c8 7B69     		ldr	r3, [r7, #20]
 704 01ca 1233     		adds	r3, r3, #18
 705 01cc 1800     		movs	r0, r3
 706 01ce FB6A     		ldr	r3, [r7, #44]
 707 01d0 4D33     		adds	r3, r3, #77
 708 01d2 1900     		movs	r1, r3
 709 01d4 FB6A     		ldr	r3, [r7, #44]
 710 01d6 4C22     		movs	r2, #76
 711 01d8 9B5C     		ldrb	r3, [r3, r2]
 712 01da 1A00     		movs	r2, r3
 713 01dc FFF7FEFF 		bl	memcpy
 714 01e0 7B69     		ldr	r3, [r7, #20]
 715 01e2 0122     		movs	r2, #1
 716 01e4 1A71     		strb	r2, [r3, #4]
 717 01e6 FFF7FEFF 		bl	lwm2m_gettime
 718 01ea 0300     		movs	r3, r0
 719 01ec 0C00     		movs	r4, r1
 720 01ee 7A69     		ldr	r2, [r7, #20]
 721 01f0 1362     		str	r3, [r2, #32]
 722 01f2 5462     		str	r4, [r2, #36]
 723 01f4 FB6A     		ldr	r3, [r7, #44]
 724 01f6 1B7B     		ldrb	r3, [r3, #12]
 725 01f8 1A00     		movs	r2, r3
 726 01fa 0223     		movs	r3, #2
 727 01fc 1340     		ands	r3, r2
 728 01fe 0AD0     		beq	.L73
 729 0200 FB6A     		ldr	r3, [r7, #44]
 730 0202 5622     		movs	r2, #86
 731 0204 9B5A     		ldrh	r3, [r3, r2]
 732 0206 1800     		movs	r0, r3
 733 0208 FFF7FEFF 		bl	utils_convertMediaType
 734 020c 0300     		movs	r3, r0
 735 020e 1A00     		movs	r2, r3
 736 0210 7B69     		ldr	r3, [r7, #20]
 737 0212 1A82     		strh	r2, [r3, #16]
 738 0214 02E0     		b	.L74
 739              	.L73:
 740 0216 7B69     		ldr	r3, [r7, #20]
 741 0218 394A     		ldr	r2, .L86+88
 742 021a 1A82     		strh	r2, [r3, #16]
 743              	.L74:
 744 021c BB68     		ldr	r3, [r7, #8]
ARM GAS  C:\Users\SONG_J~1\AppData\Local\Temp\ccpfiTpO.s 			page 15


 745 021e 1B78     		ldrb	r3, [r3]
 746 0220 1A00     		movs	r2, r3
 747 0222 0123     		movs	r3, #1
 748 0224 1340     		ands	r3, r2
 749 0226 20D0     		beq	.L83
 750 0228 BB6A     		ldr	r3, [r7, #40]
 751 022a 1B78     		ldrb	r3, [r3]
 752 022c 062B     		cmp	r3, #6
 753 022e 02D0     		beq	.L77
 754 0230 072B     		cmp	r3, #7
 755 0232 0DD0     		beq	.L78
 756 0234 1EE0     		b	.L75
 757              	.L77:
 758 0236 7B69     		ldr	r3, [r7, #20]
 759 0238 3033     		adds	r3, r3, #48
 760 023a 1A00     		movs	r2, r3
 761 023c BB6A     		ldr	r3, [r7, #40]
 762 023e 1100     		movs	r1, r2
 763 0240 1800     		movs	r0, r3
 764 0242 FFF7FEFF 		bl	lwm2m_data_decode_int
 765 0246 0300     		movs	r3, r0
 766 0248 012B     		cmp	r3, #1
 767 024a 10D0     		beq	.L84
 768 024c A023     		movs	r3, #160
 769 024e 27E0     		b	.L81
 770              	.L78:
 771 0250 7B69     		ldr	r3, [r7, #20]
 772 0252 3033     		adds	r3, r3, #48
 773 0254 1A00     		movs	r2, r3
 774 0256 BB6A     		ldr	r3, [r7, #40]
 775 0258 1100     		movs	r1, r2
 776 025a 1800     		movs	r0, r3
 777 025c FFF7FEFF 		bl	lwm2m_data_decode_float
 778 0260 0300     		movs	r3, r0
 779 0262 012B     		cmp	r3, #1
 780 0264 05D0     		beq	.L85
 781 0266 A023     		movs	r3, #160
 782 0268 1AE0     		b	.L81
 783              	.L83:
 784 026a C046     		nop
 785 026c 02E0     		b	.L75
 786              	.L84:
 787 026e C046     		nop
 788 0270 00E0     		b	.L75
 789              	.L85:
 790 0272 C046     		nop
 791              	.L75:
 792 0274 7B69     		ldr	r3, [r7, #20]
 793 0276 9A6A     		ldr	r2, [r3, #40]
 794 0278 511C     		adds	r1, r2, #1
 795 027a 7B69     		ldr	r3, [r7, #20]
 796 027c 9962     		str	r1, [r3, #40]
 797 027e 3B6B     		ldr	r3, [r7, #48]
 798 0280 1100     		movs	r1, r2
 799 0282 1800     		movs	r0, r3
 800 0284 FFF7FEFF 		bl	coap_set_header_observe
 801 0288 4523     		movs	r3, #69
ARM GAS  C:\Users\SONG_J~1\AppData\Local\Temp\ccpfiTpO.s 			page 16


 802 028a 09E0     		b	.L81
 803              	.L68:
 804 028c 7B68     		ldr	r3, [r7, #4]
 805 028e DA69     		ldr	r2, [r3, #28]
 806 0290 1C49     		ldr	r1, .L86+92
 807 0292 FB68     		ldr	r3, [r7, #12]
 808 0294 1800     		movs	r0, r3
 809 0296 FFF7FEFF 		bl	observe_cancel
 810 029a 4523     		movs	r3, #69
 811 029c 00E0     		b	.L81
 812              	.L82:
 813 029e 8023     		movs	r3, #128
 814              	.L81:
 815 02a0 1800     		movs	r0, r3
 816 02a2 BD46     		mov	sp, r7
 817 02a4 07B0     		add	sp, sp, #28
 818              		@ sp needed
 819 02a6 90BD     		pop	{r4, r7, pc}
 820              	.L87:
 821              		.align	2
 822              	.L86:
 823 02a8 00000000 		.word	.LC1
 824 02ac 10000000 		.word	.LC3
 825 02b0 18000000 		.word	.LC5
 826 02b4 2C000000 		.word	.LC7
 827 02b8 40000000 		.word	.LC9
 828 02bc 54000000 		.word	.LC11
 829 02c0 68000000 		.word	.LC13
 830 02c4 7C000000 		.word	.LC15
 831 02c8 90000000 		.word	.LC17
 832 02cc A4000000 		.word	.LC19
 833 02d0 C4000000 		.word	.LC21
 834 02d4 DC000000 		.word	.LC23
 835 02d8 F8000000 		.word	.LC25
 836 02dc 0C010000 		.word	.LC27
 837 02e0 20010000 		.word	.LC29
 838 02e4 34010000 		.word	.LC31
 839 02e8 00000000 		.word	__func__.7111
 840 02ec 48010000 		.word	.LC34
 841 02f0 70010000 		.word	.LC36
 842 02f4 80010000 		.word	.LC38
 843 02f8 8C010000 		.word	.LC40
 844 02fc 90010000 		.word	.LC42
 845 0300 162D0000 		.word	11542
 846 0304 FFFF0000 		.word	65535
 848              		.section	.rodata
 849 0193 00       		.align	2
 850              	.LC45:
 851 0194 5B25733A 		.ascii	"[%s:%d] mid: %d\015\012\000"
 851      25645D20 
 851      6D69643A 
 851      2025640D 
 851      0A00
 852              		.section	.text.observe_cancel,"ax",%progbits
 853              		.align	1
 854              		.global	observe_cancel
 855              		.syntax unified
ARM GAS  C:\Users\SONG_J~1\AppData\Local\Temp\ccpfiTpO.s 			page 17


 856              		.code	16
 857              		.thumb_func
 858              		.fpu softvfp
 860              	observe_cancel:
 861              		@ args = 0, pretend = 0, frame = 32
 862              		@ frame_needed = 1, uses_anonymous_args = 0
 863 0000 90B5     		push	{r4, r7, lr}
 864 0002 89B0     		sub	sp, sp, #36
 865 0004 00AF     		add	r7, sp, #0
 866 0006 F860     		str	r0, [r7, #12]
 867 0008 7A60     		str	r2, [r7, #4]
 868 000a 0A20     		movs	r0, #10
 869 000c 3B18     		adds	r3, r7, r0
 870 000e 0A1C     		adds	r2, r1, #0
 871 0010 1A80     		strh	r2, [r3]
 872 0012 3B18     		adds	r3, r7, r0
 873 0014 1C88     		ldrh	r4, [r3]
 874 0016 1823     		movs	r3, #24
 875 0018 FF33     		adds	r3, r3, #255
 876 001a 1A00     		movs	r2, r3
 877 001c 4949     		ldr	r1, .L101
 878 001e 4A48     		ldr	r0, .L101+4
 879 0020 2300     		movs	r3, r4
 880 0022 FFF7FEFF 		bl	atiny_printf
 881 0026 FB68     		ldr	r3, [r7, #12]
 882 0028 DB69     		ldr	r3, [r3, #28]
 883 002a FB61     		str	r3, [r7, #28]
 884 002c 82E0     		b	.L89
 885              	.L100:
 886 002e 0023     		movs	r3, #0
 887 0030 BB61     		str	r3, [r7, #24]
 888 0032 0A23     		movs	r3, #10
 889 0034 FB18     		adds	r3, r7, r3
 890 0036 1B88     		ldrh	r3, [r3]
 891 0038 444A     		ldr	r2, .L101+8
 892 003a 9342     		cmp	r3, r2
 893 003c 07D0     		beq	.L90
 894 003e FB69     		ldr	r3, [r7, #28]
 895 0040 DB68     		ldr	r3, [r3, #12]
 896 0042 9B8D     		ldrh	r3, [r3, #44]
 897 0044 0A22     		movs	r2, #10
 898 0046 BA18     		adds	r2, r7, r2
 899 0048 1288     		ldrh	r2, [r2]
 900 004a 9A42     		cmp	r2, r3
 901 004c 14D1     		bne	.L91
 902              	.L90:
 903 004e FB69     		ldr	r3, [r7, #28]
 904 0050 DB68     		ldr	r3, [r3, #12]
 905 0052 9B68     		ldr	r3, [r3, #8]
 906 0054 D869     		ldr	r0, [r3, #28]
 907 0056 FB68     		ldr	r3, [r7, #12]
 908 0058 DA6A     		ldr	r2, [r3, #44]
 909 005a 7B68     		ldr	r3, [r7, #4]
 910 005c 1900     		movs	r1, r3
 911 005e FFF7FEFF 		bl	lwm2m_session_is_equal
 912 0062 031E     		subs	r3, r0, #0
 913 0064 08D0     		beq	.L91
ARM GAS  C:\Users\SONG_J~1\AppData\Local\Temp\ccpfiTpO.s 			page 18


 914 0066 FB69     		ldr	r3, [r7, #28]
 915 0068 DB68     		ldr	r3, [r3, #12]
 916 006a BB61     		str	r3, [r7, #24]
 917 006c FB69     		ldr	r3, [r7, #28]
 918 006e DB68     		ldr	r3, [r3, #12]
 919 0070 1A68     		ldr	r2, [r3]
 920 0072 FB69     		ldr	r3, [r7, #28]
 921 0074 DA60     		str	r2, [r3, #12]
 922 0076 2AE0     		b	.L92
 923              	.L91:
 924 0078 FB69     		ldr	r3, [r7, #28]
 925 007a DB68     		ldr	r3, [r3, #12]
 926 007c 7B61     		str	r3, [r7, #20]
 927 007e 02E0     		b	.L93
 928              	.L95:
 929 0080 7B69     		ldr	r3, [r7, #20]
 930 0082 1B68     		ldr	r3, [r3]
 931 0084 7B61     		str	r3, [r7, #20]
 932              	.L93:
 933 0086 7B69     		ldr	r3, [r7, #20]
 934 0088 1B68     		ldr	r3, [r3]
 935 008a 002B     		cmp	r3, #0
 936 008c 13D0     		beq	.L94
 937 008e 7B69     		ldr	r3, [r7, #20]
 938 0090 1B68     		ldr	r3, [r3]
 939 0092 9B8D     		ldrh	r3, [r3, #44]
 940 0094 0A22     		movs	r2, #10
 941 0096 BA18     		adds	r2, r7, r2
 942 0098 1288     		ldrh	r2, [r2]
 943 009a 9A42     		cmp	r2, r3
 944 009c F0D1     		bne	.L95
 945 009e 7B69     		ldr	r3, [r7, #20]
 946 00a0 1B68     		ldr	r3, [r3]
 947 00a2 9B68     		ldr	r3, [r3, #8]
 948 00a4 D869     		ldr	r0, [r3, #28]
 949 00a6 FB68     		ldr	r3, [r7, #12]
 950 00a8 DA6A     		ldr	r2, [r3, #44]
 951 00aa 7B68     		ldr	r3, [r7, #4]
 952 00ac 1900     		movs	r1, r3
 953 00ae FFF7FEFF 		bl	lwm2m_session_is_equal
 954 00b2 031E     		subs	r3, r0, #0
 955 00b4 E4D1     		bne	.L95
 956              	.L94:
 957 00b6 7B69     		ldr	r3, [r7, #20]
 958 00b8 1B68     		ldr	r3, [r3]
 959 00ba 002B     		cmp	r3, #0
 960 00bc 07D0     		beq	.L92
 961 00be 7B69     		ldr	r3, [r7, #20]
 962 00c0 1B68     		ldr	r3, [r3]
 963 00c2 BB61     		str	r3, [r7, #24]
 964 00c4 7B69     		ldr	r3, [r7, #20]
 965 00c6 1B68     		ldr	r3, [r3]
 966 00c8 1A68     		ldr	r2, [r3]
 967 00ca 7B69     		ldr	r3, [r7, #20]
 968 00cc 1A60     		str	r2, [r3]
 969              	.L92:
 970 00ce BB69     		ldr	r3, [r7, #24]
ARM GAS  C:\Users\SONG_J~1\AppData\Local\Temp\ccpfiTpO.s 			page 19


 971 00d0 002B     		cmp	r3, #0
 972 00d2 2CD0     		beq	.L96
 973 00d4 FB68     		ldr	r3, [r7, #12]
 974 00d6 1B6A     		ldr	r3, [r3, #32]
 975 00d8 1800     		movs	r0, r3
 976 00da FFF7FEFF 		bl	atiny_mutex_lock
 977 00de FB69     		ldr	r3, [r7, #28]
 978 00e0 1A1D     		adds	r2, r3, #4
 979 00e2 0823     		movs	r3, #8
 980 00e4 0021     		movs	r1, #0
 981 00e6 0220     		movs	r0, #2
 982 00e8 FFF7FEFF 		bl	lwm2m_notify_even
 983 00ec BB69     		ldr	r3, [r7, #24]
 984 00ee DB68     		ldr	r3, [r3, #12]
 985 00f0 002B     		cmp	r3, #0
 986 00f2 04D0     		beq	.L97
 987 00f4 BB69     		ldr	r3, [r7, #24]
 988 00f6 DB68     		ldr	r3, [r3, #12]
 989 00f8 1800     		movs	r0, r3
 990 00fa FFF7FEFF 		bl	lwm2m_free
 991              	.L97:
 992 00fe BB69     		ldr	r3, [r7, #24]
 993 0100 1800     		movs	r0, r3
 994 0102 FFF7FEFF 		bl	lwm2m_free
 995 0106 FB69     		ldr	r3, [r7, #28]
 996 0108 DB68     		ldr	r3, [r3, #12]
 997 010a 002B     		cmp	r3, #0
 998 010c 09D1     		bne	.L98
 999 010e FA69     		ldr	r2, [r7, #28]
 1000 0110 FB68     		ldr	r3, [r7, #12]
 1001 0112 1100     		movs	r1, r2
 1002 0114 1800     		movs	r0, r3
 1003 0116 FFF7FEFF 		bl	prv_unlinkObserved
 1004 011a FB69     		ldr	r3, [r7, #28]
 1005 011c 1800     		movs	r0, r3
 1006 011e FFF7FEFF 		bl	lwm2m_free
 1007              	.L98:
 1008 0122 FB68     		ldr	r3, [r7, #12]
 1009 0124 1B6A     		ldr	r3, [r3, #32]
 1010 0126 1800     		movs	r0, r3
 1011 0128 FFF7FEFF 		bl	atiny_mutex_unlock
 1012 012c 06E0     		b	.L88
 1013              	.L96:
 1014 012e FB69     		ldr	r3, [r7, #28]
 1015 0130 1B68     		ldr	r3, [r3]
 1016 0132 FB61     		str	r3, [r7, #28]
 1017              	.L89:
 1018 0134 FB69     		ldr	r3, [r7, #28]
 1019 0136 002B     		cmp	r3, #0
 1020 0138 00D0     		beq	.LCB1025
 1021 013a 78E7     		b	.L100	@long jump
 1022              	.LCB1025:
 1023              	.L88:
 1024 013c BD46     		mov	sp, r7
 1025 013e 09B0     		add	sp, sp, #36
 1026              		@ sp needed
 1027 0140 90BD     		pop	{r4, r7, pc}
ARM GAS  C:\Users\SONG_J~1\AppData\Local\Temp\ccpfiTpO.s 			page 20


 1028              	.L102:
 1029 0142 C046     		.align	2
 1030              	.L101:
 1031 0144 00000000 		.word	__func__.7125
 1032 0148 94010000 		.word	.LC45
 1033 014c FFFF0000 		.word	65535
 1035              		.section	.text.observe_clear,"ax",%progbits
 1036              		.align	1
 1037              		.global	observe_clear
 1038              		.syntax unified
 1039              		.code	16
 1040              		.thumb_func
 1041              		.fpu softvfp
 1043              	observe_clear:
 1044              		@ args = 0, pretend = 0, frame = 24
 1045              		@ frame_needed = 1, uses_anonymous_args = 0
 1046 0000 90B5     		push	{r4, r7, lr}
 1047 0002 87B0     		sub	sp, sp, #28
 1048 0004 00AF     		add	r7, sp, #0
 1049 0006 7860     		str	r0, [r7, #4]
 1050 0008 3960     		str	r1, [r7]
 1051 000a 3B68     		ldr	r3, [r7]
 1052 000c 002B     		cmp	r3, #0
 1053 000e 07D1     		bne	.L104
 1054 0010 A623     		movs	r3, #166
 1055 0012 5A00     		lsls	r2, r3, #1
 1056 0014 4049     		ldr	r1, .L115
 1057 0016 414B     		ldr	r3, .L115+4
 1058 0018 1800     		movs	r0, r3
 1059 001a FFF7FEFF 		bl	atiny_printf
 1060 001e 29E0     		b	.L105
 1061              	.L104:
 1062 0020 3B68     		ldr	r3, [r7]
 1063 0022 5B88     		ldrh	r3, [r3, #2]
 1064 0024 1C00     		movs	r4, r3
 1065 0026 A623     		movs	r3, #166
 1066 0028 5A00     		lsls	r2, r3, #1
 1067 002a 3B49     		ldr	r1, .L115
 1068 002c 3C48     		ldr	r0, .L115+8
 1069 002e 2300     		movs	r3, r4
 1070 0030 FFF7FEFF 		bl	atiny_printf
 1071 0034 3B68     		ldr	r3, [r7]
 1072 0036 1B78     		ldrb	r3, [r3]
 1073 0038 1A00     		movs	r2, r3
 1074 003a 0223     		movs	r3, #2
 1075 003c 1340     		ands	r3, r2
 1076 003e 07D0     		beq	.L106
 1077 0040 3B68     		ldr	r3, [r7]
 1078 0042 9B88     		ldrh	r3, [r3, #4]
 1079 0044 1A00     		movs	r2, r3
 1080 0046 374B     		ldr	r3, .L115+12
 1081 0048 1100     		movs	r1, r2
 1082 004a 1800     		movs	r0, r3
 1083 004c FFF7FEFF 		bl	atiny_printf
 1084              	.L106:
 1085 0050 3B68     		ldr	r3, [r7]
 1086 0052 1B78     		ldrb	r3, [r3]
ARM GAS  C:\Users\SONG_J~1\AppData\Local\Temp\ccpfiTpO.s 			page 21


 1087 0054 1A00     		movs	r2, r3
 1088 0056 0123     		movs	r3, #1
 1089 0058 1340     		ands	r3, r2
 1090 005a 07D0     		beq	.L107
 1091 005c 3B68     		ldr	r3, [r7]
 1092 005e DB88     		ldrh	r3, [r3, #6]
 1093 0060 1A00     		movs	r2, r3
 1094 0062 304B     		ldr	r3, .L115+12
 1095 0064 1100     		movs	r1, r2
 1096 0066 1800     		movs	r0, r3
 1097 0068 FFF7FEFF 		bl	atiny_printf
 1098              	.L107:
 1099 006c 2E4B     		ldr	r3, .L115+16
 1100 006e 1800     		movs	r0, r3
 1101 0070 FFF7FEFF 		bl	atiny_printf
 1102              	.L105:
 1103 0074 7B68     		ldr	r3, [r7, #4]
 1104 0076 DB69     		ldr	r3, [r3, #28]
 1105 0078 7B61     		str	r3, [r7, #20]
 1106 007a 46E0     		b	.L108
 1107              	.L114:
 1108 007c 7B69     		ldr	r3, [r7, #20]
 1109 007e DA88     		ldrh	r2, [r3, #6]
 1110 0080 3B68     		ldr	r3, [r7]
 1111 0082 5B88     		ldrh	r3, [r3, #2]
 1112 0084 9A42     		cmp	r2, r3
 1113 0086 3DD1     		bne	.L109
 1114 0088 3B68     		ldr	r3, [r7]
 1115 008a 1B78     		ldrb	r3, [r3]
 1116 008c 1A00     		movs	r2, r3
 1117 008e 0223     		movs	r3, #2
 1118 0090 1340     		ands	r3, r2
 1119 0092 05D0     		beq	.L110
 1120 0094 7B69     		ldr	r3, [r7, #20]
 1121 0096 1A89     		ldrh	r2, [r3, #8]
 1122 0098 3B68     		ldr	r3, [r7]
 1123 009a 9B88     		ldrh	r3, [r3, #4]
 1124 009c 9A42     		cmp	r2, r3
 1125 009e 31D1     		bne	.L109
 1126              	.L110:
 1127 00a0 7B68     		ldr	r3, [r7, #4]
 1128 00a2 1B6A     		ldr	r3, [r3, #32]
 1129 00a4 1800     		movs	r0, r3
 1130 00a6 FFF7FEFF 		bl	atiny_mutex_lock
 1131 00aa 7B69     		ldr	r3, [r7, #20]
 1132 00ac 1B68     		ldr	r3, [r3]
 1133 00ae FB60     		str	r3, [r7, #12]
 1134 00b0 7B69     		ldr	r3, [r7, #20]
 1135 00b2 DB68     		ldr	r3, [r3, #12]
 1136 00b4 3B61     		str	r3, [r7, #16]
 1137 00b6 0BE0     		b	.L111
 1138              	.L113:
 1139 00b8 3B69     		ldr	r3, [r7, #16]
 1140 00ba DB68     		ldr	r3, [r3, #12]
 1141 00bc 002B     		cmp	r3, #0
 1142 00be 04D0     		beq	.L112
 1143 00c0 3B69     		ldr	r3, [r7, #16]
ARM GAS  C:\Users\SONG_J~1\AppData\Local\Temp\ccpfiTpO.s 			page 22


 1144 00c2 DB68     		ldr	r3, [r3, #12]
 1145 00c4 1800     		movs	r0, r3
 1146 00c6 FFF7FEFF 		bl	lwm2m_free
 1147              	.L112:
 1148 00ca 3B69     		ldr	r3, [r7, #16]
 1149 00cc 1B68     		ldr	r3, [r3]
 1150 00ce 3B61     		str	r3, [r7, #16]
 1151              	.L111:
 1152 00d0 3B69     		ldr	r3, [r7, #16]
 1153 00d2 002B     		cmp	r3, #0
 1154 00d4 F0D1     		bne	.L113
 1155 00d6 7B69     		ldr	r3, [r7, #20]
 1156 00d8 DB68     		ldr	r3, [r3, #12]
 1157 00da 1800     		movs	r0, r3
 1158 00dc FFF7FEFF 		bl	lwm2m_list_free
 1159 00e0 7A69     		ldr	r2, [r7, #20]
 1160 00e2 7B68     		ldr	r3, [r7, #4]
 1161 00e4 1100     		movs	r1, r2
 1162 00e6 1800     		movs	r0, r3
 1163 00e8 FFF7FEFF 		bl	prv_unlinkObserved
 1164 00ec 7B69     		ldr	r3, [r7, #20]
 1165 00ee 1800     		movs	r0, r3
 1166 00f0 FFF7FEFF 		bl	lwm2m_free
 1167 00f4 FB68     		ldr	r3, [r7, #12]
 1168 00f6 7B61     		str	r3, [r7, #20]
 1169 00f8 7B68     		ldr	r3, [r7, #4]
 1170 00fa 1B6A     		ldr	r3, [r3, #32]
 1171 00fc 1800     		movs	r0, r3
 1172 00fe FFF7FEFF 		bl	atiny_mutex_unlock
 1173 0102 02E0     		b	.L108
 1174              	.L109:
 1175 0104 7B69     		ldr	r3, [r7, #20]
 1176 0106 1B68     		ldr	r3, [r3]
 1177 0108 7B61     		str	r3, [r7, #20]
 1178              	.L108:
 1179 010a 7B69     		ldr	r3, [r7, #20]
 1180 010c 002B     		cmp	r3, #0
 1181 010e B5D1     		bne	.L114
 1182 0110 C046     		nop
 1183 0112 BD46     		mov	sp, r7
 1184 0114 07B0     		add	sp, sp, #28
 1185              		@ sp needed
 1186 0116 90BD     		pop	{r4, r7, pc}
 1187              	.L116:
 1188              		.align	2
 1189              	.L115:
 1190 0118 00000000 		.word	__func__.7139
 1191 011c 70010000 		.word	.LC36
 1192 0120 80010000 		.word	.LC38
 1193 0124 8C010000 		.word	.LC40
 1194 0128 90010000 		.word	.LC42
 1196              		.section	.rodata
 1197 01a6 0000     		.align	2
 1198              	.LC57:
 1199 01a8 5B25733A 		.ascii	"[%s:%d] toSet: %08X, toClear: %08X, minPeriod: %d, "
 1199      25645D20 
 1199      746F5365 
ARM GAS  C:\Users\SONG_J~1\AppData\Local\Temp\ccpfiTpO.s 			page 23


 1199      743A2025 
 1199      3038582C 
 1200 01db 6D617850 		.ascii	"maxPeriod: %d, greaterThan: %f, lessThan: %f, step:"
 1200      6572696F 
 1200      643A2025 
 1200      642C2067 
 1200      72656174 
 1201 020e 2025660D 		.ascii	" %f\015\012\000"
 1201      0A00
 1202              		.global	__aeabi_d2f
 1203              		.global	__aeabi_fadd
 1204              		.global	__aeabi_fcmple
 1205              		.align	2
 1206              	.LC59:
 1207 0214 5B25733A 		.ascii	"[%s:%d] Final toSet: %08X, minPeriod: %d, maxPeriod"
 1207      25645D20 
 1207      46696E61 
 1207      6C20746F 
 1207      5365743A 
 1208 0247 3A202564 		.ascii	": %d, greaterThan: %f, lessThan: %f, step: %f\015\012"
 1208      2C206772 
 1208      65617465 
 1208      72546861 
 1208      6E3A2025 
 1209 0276 00       		.ascii	"\000"
 1210              		.section	.text.observe_setParameters,"ax",%progbits
 1211              		.align	1
 1212              		.global	observe_setParameters
 1213              		.syntax unified
 1214              		.code	16
 1215              		.thumb_func
 1216              		.fpu softvfp
 1218              	observe_setParameters:
 1219              		@ args = 0, pretend = 0, frame = 48
 1220              		@ frame_needed = 1, uses_anonymous_args = 0
 1221 0000 F0B5     		push	{r4, r5, r6, r7, lr}
 1222 0002 DE46     		mov	lr, fp
 1223 0004 5746     		mov	r7, r10
 1224 0006 4E46     		mov	r6, r9
 1225 0008 4546     		mov	r5, r8
 1226 000a E0B5     		push	{r5, r6, r7, lr}
 1227 000c 97B0     		sub	sp, sp, #92
 1228 000e 0AAF     		add	r7, sp, #40
 1229 0010 7861     		str	r0, [r7, #20]
 1230 0012 3961     		str	r1, [r7, #16]
 1231 0014 FA60     		str	r2, [r7, #12]
 1232 0016 BB60     		str	r3, [r7, #8]
 1233 0018 3B69     		ldr	r3, [r7, #16]
 1234 001a 002B     		cmp	r3, #0
 1235 001c 07D1     		bne	.L118
 1236 001e BB23     		movs	r3, #187
 1237 0020 5A00     		lsls	r2, r3, #1
 1238 0022 A049     		ldr	r1, .L146
 1239 0024 A04B     		ldr	r3, .L146+4
 1240 0026 1800     		movs	r0, r3
 1241 0028 FFF7FEFF 		bl	atiny_printf
 1242 002c 29E0     		b	.L119
ARM GAS  C:\Users\SONG_J~1\AppData\Local\Temp\ccpfiTpO.s 			page 24


 1243              	.L118:
 1244 002e 3B69     		ldr	r3, [r7, #16]
 1245 0030 5B88     		ldrh	r3, [r3, #2]
 1246 0032 1C00     		movs	r4, r3
 1247 0034 BB23     		movs	r3, #187
 1248 0036 5A00     		lsls	r2, r3, #1
 1249 0038 9A49     		ldr	r1, .L146
 1250 003a 9C48     		ldr	r0, .L146+8
 1251 003c 2300     		movs	r3, r4
 1252 003e FFF7FEFF 		bl	atiny_printf
 1253 0042 3B69     		ldr	r3, [r7, #16]
 1254 0044 1B78     		ldrb	r3, [r3]
 1255 0046 1A00     		movs	r2, r3
 1256 0048 0223     		movs	r3, #2
 1257 004a 1340     		ands	r3, r2
 1258 004c 07D0     		beq	.L120
 1259 004e 3B69     		ldr	r3, [r7, #16]
 1260 0050 9B88     		ldrh	r3, [r3, #4]
 1261 0052 1A00     		movs	r2, r3
 1262 0054 964B     		ldr	r3, .L146+12
 1263 0056 1100     		movs	r1, r2
 1264 0058 1800     		movs	r0, r3
 1265 005a FFF7FEFF 		bl	atiny_printf
 1266              	.L120:
 1267 005e 3B69     		ldr	r3, [r7, #16]
 1268 0060 1B78     		ldrb	r3, [r3]
 1269 0062 1A00     		movs	r2, r3
 1270 0064 0123     		movs	r3, #1
 1271 0066 1340     		ands	r3, r2
 1272 0068 07D0     		beq	.L121
 1273 006a 3B69     		ldr	r3, [r7, #16]
 1274 006c DB88     		ldrh	r3, [r3, #6]
 1275 006e 1A00     		movs	r2, r3
 1276 0070 8F4B     		ldr	r3, .L146+12
 1277 0072 1100     		movs	r1, r2
 1278 0074 1800     		movs	r0, r3
 1279 0076 FFF7FEFF 		bl	atiny_printf
 1280              	.L121:
 1281 007a 8E4B     		ldr	r3, .L146+16
 1282 007c 1800     		movs	r0, r3
 1283 007e FFF7FEFF 		bl	atiny_printf
 1284              	.L119:
 1285 0082 BB68     		ldr	r3, [r7, #8]
 1286 0084 1B78     		ldrb	r3, [r3]
 1287 0086 7B60     		str	r3, [r7, #4]
 1288 0088 BB68     		ldr	r3, [r7, #8]
 1289 008a 5B78     		ldrb	r3, [r3, #1]
 1290 008c 9B46     		mov	fp, r3
 1291 008e BB68     		ldr	r3, [r7, #8]
 1292 0090 5A68     		ldr	r2, [r3, #4]
 1293 0092 9446     		mov	ip, r2
 1294 0094 BB68     		ldr	r3, [r7, #8]
 1295 0096 9A68     		ldr	r2, [r3, #8]
 1296 0098 9046     		mov	r8, r2
 1297 009a BB68     		ldr	r3, [r7, #8]
 1298 009c 5C69     		ldr	r4, [r3, #20]
 1299 009e 1B69     		ldr	r3, [r3, #16]
ARM GAS  C:\Users\SONG_J~1\AppData\Local\Temp\ccpfiTpO.s 			page 25


 1300 00a0 BA68     		ldr	r2, [r7, #8]
 1301 00a2 9169     		ldr	r1, [r2, #24]
 1302 00a4 D269     		ldr	r2, [r2, #28]
 1303 00a6 B868     		ldr	r0, [r7, #8]
 1304 00a8 056A     		ldr	r5, [r0, #32]
 1305 00aa 466A     		ldr	r6, [r0, #36]
 1306 00ac BC20     		movs	r0, #188
 1307 00ae 4000     		lsls	r0, r0, #1
 1308 00b0 8246     		mov	r10, r0
 1309 00b2 7C48     		ldr	r0, .L146
 1310 00b4 8146     		mov	r9, r0
 1311 00b6 8048     		ldr	r0, .L146+20
 1312 00b8 0895     		str	r5, [sp, #32]
 1313 00ba 0996     		str	r6, [sp, #36]
 1314 00bc 0691     		str	r1, [sp, #24]
 1315 00be 0792     		str	r2, [sp, #28]
 1316 00c0 0493     		str	r3, [sp, #16]
 1317 00c2 0594     		str	r4, [sp, #20]
 1318 00c4 4246     		mov	r2, r8
 1319 00c6 0292     		str	r2, [sp, #8]
 1320 00c8 6246     		mov	r2, ip
 1321 00ca 0192     		str	r2, [sp, #4]
 1322 00cc 5A46     		mov	r2, fp
 1323 00ce 0092     		str	r2, [sp]
 1324 00d0 7B68     		ldr	r3, [r7, #4]
 1325 00d2 5246     		mov	r2, r10
 1326 00d4 4946     		mov	r1, r9
 1327 00d6 FFF7FEFF 		bl	atiny_printf
 1328 00da 3B69     		ldr	r3, [r7, #16]
 1329 00dc 1B78     		ldrb	r3, [r3]
 1330 00de 1A00     		movs	r2, r3
 1331 00e0 0223     		movs	r3, #2
 1332 00e2 1340     		ands	r3, r2
 1333 00e4 07D1     		bne	.L122
 1334 00e6 3B69     		ldr	r3, [r7, #16]
 1335 00e8 1B78     		ldrb	r3, [r3]
 1336 00ea 1A00     		movs	r2, r3
 1337 00ec 0123     		movs	r3, #1
 1338 00ee 1340     		ands	r3, r2
 1339 00f0 01D0     		beq	.L122
 1340 00f2 8023     		movs	r3, #128
 1341 00f4 5CE1     		b	.L123
 1342              	.L122:
 1343 00f6 1B25     		movs	r5, #27
 1344 00f8 0826     		movs	r6, #8
 1345 00fa BB19     		adds	r3, r7, r6
 1346 00fc 5C19     		adds	r4, r3, r5
 1347 00fe 3A69     		ldr	r2, [r7, #16]
 1348 0100 7B69     		ldr	r3, [r7, #20]
 1349 0102 1100     		movs	r1, r2
 1350 0104 1800     		movs	r0, r3
 1351 0106 FFF7FEFF 		bl	object_checkReadable
 1352 010a 0300     		movs	r3, r0
 1353 010c 2370     		strb	r3, [r4]
 1354 010e BB19     		adds	r3, r7, r6
 1355 0110 5B19     		adds	r3, r3, r5
 1356 0112 1B78     		ldrb	r3, [r3]
ARM GAS  C:\Users\SONG_J~1\AppData\Local\Temp\ccpfiTpO.s 			page 26


 1357 0114 452B     		cmp	r3, #69
 1358 0116 06D0     		beq	.L124
 1359 0118 1B23     		movs	r3, #27
 1360 011a 0822     		movs	r2, #8
 1361 011c 9446     		mov	ip, r2
 1362 011e BC44     		add	ip, ip, r7
 1363 0120 6344     		add	r3, r3, ip
 1364 0122 1B78     		ldrb	r3, [r3]
 1365 0124 44E1     		b	.L123
 1366              	.L124:
 1367 0126 BB68     		ldr	r3, [r7, #8]
 1368 0128 1B78     		ldrb	r3, [r3]
 1369 012a 1A00     		movs	r2, r3
 1370 012c 1C23     		movs	r3, #28
 1371 012e 1340     		ands	r3, r2
 1372 0130 17D0     		beq	.L125
 1373 0132 1B25     		movs	r5, #27
 1374 0134 0826     		movs	r6, #8
 1375 0136 BB19     		adds	r3, r7, r6
 1376 0138 5C19     		adds	r4, r3, r5
 1377 013a 3A69     		ldr	r2, [r7, #16]
 1378 013c 7B69     		ldr	r3, [r7, #20]
 1379 013e 1100     		movs	r1, r2
 1380 0140 1800     		movs	r0, r3
 1381 0142 FFF7FEFF 		bl	object_checkNumeric
 1382 0146 0300     		movs	r3, r0
 1383 0148 2370     		strb	r3, [r4]
 1384 014a BB19     		adds	r3, r7, r6
 1385 014c 5B19     		adds	r3, r3, r5
 1386 014e 1B78     		ldrb	r3, [r3]
 1387 0150 452B     		cmp	r3, #69
 1388 0152 06D0     		beq	.L125
 1389 0154 1B23     		movs	r3, #27
 1390 0156 0822     		movs	r2, #8
 1391 0158 9446     		mov	ip, r2
 1392 015a BC44     		add	ip, ip, r7
 1393 015c 6344     		add	r3, r3, ip
 1394 015e 1B78     		ldrb	r3, [r3]
 1395 0160 26E1     		b	.L123
 1396              	.L125:
 1397 0162 FA68     		ldr	r2, [r7, #12]
 1398 0164 3969     		ldr	r1, [r7, #16]
 1399 0166 7B69     		ldr	r3, [r7, #20]
 1400 0168 1800     		movs	r0, r3
 1401 016a FFF7FEFF 		bl	prv_getWatcher
 1402 016e 0300     		movs	r3, r0
 1403 0170 FB61     		str	r3, [r7, #28]
 1404 0172 FB69     		ldr	r3, [r7, #28]
 1405 0174 002B     		cmp	r3, #0
 1406 0176 01D1     		bne	.L126
 1407 0178 A023     		movs	r3, #160
 1408 017a 19E1     		b	.L123
 1409              	.L126:
 1410 017c BB68     		ldr	r3, [r7, #8]
 1411 017e 1B78     		ldrb	r3, [r3]
 1412 0180 1A00     		movs	r2, r3
 1413 0182 FB69     		ldr	r3, [r7, #28]
ARM GAS  C:\Users\SONG_J~1\AppData\Local\Temp\ccpfiTpO.s 			page 27


 1414 0184 DB68     		ldr	r3, [r3, #12]
 1415 0186 002B     		cmp	r3, #0
 1416 0188 03D0     		beq	.L127
 1417 018a FB69     		ldr	r3, [r7, #28]
 1418 018c DB68     		ldr	r3, [r3, #12]
 1419 018e 1B78     		ldrb	r3, [r3]
 1420 0190 00E0     		b	.L128
 1421              	.L127:
 1422 0192 0023     		movs	r3, #0
 1423              	.L128:
 1424 0194 1343     		orrs	r3, r2
 1425 0196 BA68     		ldr	r2, [r7, #8]
 1426 0198 5278     		ldrb	r2, [r2, #1]
 1427 019a D243     		mvns	r2, r2
 1428 019c 1340     		ands	r3, r2
 1429 019e 1C22     		movs	r2, #28
 1430 01a0 1340     		ands	r3, r2
 1431 01a2 1C2B     		cmp	r3, #28
 1432 01a4 60D1     		bne	.L129
 1433 01a6 BB68     		ldr	r3, [r7, #8]
 1434 01a8 1B78     		ldrb	r3, [r3]
 1435 01aa 1A00     		movs	r2, r3
 1436 01ac 0423     		movs	r3, #4
 1437 01ae 1340     		ands	r3, r2
 1438 01b0 09D0     		beq	.L130
 1439 01b2 BB68     		ldr	r3, [r7, #8]
 1440 01b4 5C69     		ldr	r4, [r3, #20]
 1441 01b6 1B69     		ldr	r3, [r3, #16]
 1442 01b8 1800     		movs	r0, r3
 1443 01ba 2100     		movs	r1, r4
 1444 01bc FFF7FEFF 		bl	__aeabi_d2f
 1445 01c0 031C     		adds	r3, r0, #0
 1446 01c2 FB62     		str	r3, [r7, #44]
 1447 01c4 09E0     		b	.L131
 1448              	.L130:
 1449 01c6 FB69     		ldr	r3, [r7, #28]
 1450 01c8 DB68     		ldr	r3, [r3, #12]
 1451 01ca 5C69     		ldr	r4, [r3, #20]
 1452 01cc 1B69     		ldr	r3, [r3, #16]
 1453 01ce 1800     		movs	r0, r3
 1454 01d0 2100     		movs	r1, r4
 1455 01d2 FFF7FEFF 		bl	__aeabi_d2f
 1456 01d6 031C     		adds	r3, r0, #0
 1457 01d8 FB62     		str	r3, [r7, #44]
 1458              	.L131:
 1459 01da BB68     		ldr	r3, [r7, #8]
 1460 01dc 1B78     		ldrb	r3, [r3]
 1461 01de 1A00     		movs	r2, r3
 1462 01e0 0823     		movs	r3, #8
 1463 01e2 1340     		ands	r3, r2
 1464 01e4 09D0     		beq	.L132
 1465 01e6 BB68     		ldr	r3, [r7, #8]
 1466 01e8 DC69     		ldr	r4, [r3, #28]
 1467 01ea 9B69     		ldr	r3, [r3, #24]
 1468 01ec 1800     		movs	r0, r3
 1469 01ee 2100     		movs	r1, r4
 1470 01f0 FFF7FEFF 		bl	__aeabi_d2f
ARM GAS  C:\Users\SONG_J~1\AppData\Local\Temp\ccpfiTpO.s 			page 28


 1471 01f4 031C     		adds	r3, r0, #0
 1472 01f6 BB62     		str	r3, [r7, #40]
 1473 01f8 09E0     		b	.L133
 1474              	.L132:
 1475 01fa FB69     		ldr	r3, [r7, #28]
 1476 01fc DB68     		ldr	r3, [r3, #12]
 1477 01fe DC69     		ldr	r4, [r3, #28]
 1478 0200 9B69     		ldr	r3, [r3, #24]
 1479 0202 1800     		movs	r0, r3
 1480 0204 2100     		movs	r1, r4
 1481 0206 FFF7FEFF 		bl	__aeabi_d2f
 1482 020a 031C     		adds	r3, r0, #0
 1483 020c BB62     		str	r3, [r7, #40]
 1484              	.L133:
 1485 020e BB68     		ldr	r3, [r7, #8]
 1486 0210 1B78     		ldrb	r3, [r3]
 1487 0212 1A00     		movs	r2, r3
 1488 0214 1023     		movs	r3, #16
 1489 0216 1340     		ands	r3, r2
 1490 0218 09D0     		beq	.L134
 1491 021a BB68     		ldr	r3, [r7, #8]
 1492 021c 5C6A     		ldr	r4, [r3, #36]
 1493 021e 1B6A     		ldr	r3, [r3, #32]
 1494 0220 1800     		movs	r0, r3
 1495 0222 2100     		movs	r1, r4
 1496 0224 FFF7FEFF 		bl	__aeabi_d2f
 1497 0228 031C     		adds	r3, r0, #0
 1498 022a 7B62     		str	r3, [r7, #36]
 1499 022c 09E0     		b	.L135
 1500              	.L134:
 1501 022e FB69     		ldr	r3, [r7, #28]
 1502 0230 DB68     		ldr	r3, [r3, #12]
 1503 0232 5C6A     		ldr	r4, [r3, #36]
 1504 0234 1B6A     		ldr	r3, [r3, #32]
 1505 0236 1800     		movs	r0, r3
 1506 0238 2100     		movs	r1, r4
 1507 023a FFF7FEFF 		bl	__aeabi_d2f
 1508 023e 031C     		adds	r3, r0, #0
 1509 0240 7B62     		str	r3, [r7, #36]
 1510              	.L135:
 1511 0242 7B6A     		ldr	r3, [r7, #36]
 1512 0244 191C     		adds	r1, r3, #0
 1513 0246 181C     		adds	r0, r3, #0
 1514 0248 FFF7FEFF 		bl	__aeabi_fadd
 1515 024c 031C     		adds	r3, r0, #0
 1516 024e B96A     		ldr	r1, [r7, #40]
 1517 0250 181C     		adds	r0, r3, #0
 1518 0252 FFF7FEFF 		bl	__aeabi_fadd
 1519 0256 031C     		adds	r3, r0, #0
 1520 0258 191C     		adds	r1, r3, #0
 1521 025a F86A     		ldr	r0, [r7, #44]
 1522 025c FFF7FEFF 		bl	__aeabi_fcmple
 1523 0260 031E     		subs	r3, r0, #0
 1524 0262 01D0     		beq	.L129
 1525 0264 8023     		movs	r3, #128
 1526 0266 A3E0     		b	.L123
 1527              	.L129:
ARM GAS  C:\Users\SONG_J~1\AppData\Local\Temp\ccpfiTpO.s 			page 29


 1528 0268 FB69     		ldr	r3, [r7, #28]
 1529 026a DB68     		ldr	r3, [r3, #12]
 1530 026c 002B     		cmp	r3, #0
 1531 026e 25D1     		bne	.L137
 1532 0270 BB68     		ldr	r3, [r7, #8]
 1533 0272 1B78     		ldrb	r3, [r3]
 1534 0274 002B     		cmp	r3, #0
 1535 0276 00D1     		bne	.LCB1570
 1536 0278 6CE0     		b	.L140	@long jump
 1537              	.LCB1570:
 1538 027a 2820     		movs	r0, #40
 1539 027c FFF7FEFF 		bl	lwm2m_malloc
 1540 0280 0200     		movs	r2, r0
 1541 0282 FB69     		ldr	r3, [r7, #28]
 1542 0284 DA60     		str	r2, [r3, #12]
 1543 0286 FB69     		ldr	r3, [r7, #28]
 1544 0288 DB68     		ldr	r3, [r3, #12]
 1545 028a 002B     		cmp	r3, #0
 1546 028c 01D1     		bne	.L139
 1547 028e A023     		movs	r3, #160
 1548 0290 8EE0     		b	.L123
 1549              	.L139:
 1550 0292 FB69     		ldr	r3, [r7, #28]
 1551 0294 DB68     		ldr	r3, [r3, #12]
 1552 0296 B968     		ldr	r1, [r7, #8]
 1553 0298 2822     		movs	r2, #40
 1554 029a 1800     		movs	r0, r3
 1555 029c FFF7FEFF 		bl	memcpy
 1556 02a0 58E0     		b	.L140
 1557              	.L147:
 1558 02a2 C046     		.align	2
 1559              	.L146:
 1560 02a4 00000000 		.word	__func__.7156
 1561 02a8 70010000 		.word	.LC36
 1562 02ac 80010000 		.word	.LC38
 1563 02b0 8C010000 		.word	.LC40
 1564 02b4 90010000 		.word	.LC42
 1565 02b8 A8010000 		.word	.LC57
 1566              	.L137:
 1567 02bc FB69     		ldr	r3, [r7, #28]
 1568 02be DB68     		ldr	r3, [r3, #12]
 1569 02c0 1B78     		ldrb	r3, [r3]
 1570 02c2 5BB2     		sxtb	r3, r3
 1571 02c4 BA68     		ldr	r2, [r7, #8]
 1572 02c6 5278     		ldrb	r2, [r2, #1]
 1573 02c8 52B2     		sxtb	r2, r2
 1574 02ca D243     		mvns	r2, r2
 1575 02cc 52B2     		sxtb	r2, r2
 1576 02ce 1340     		ands	r3, r2
 1577 02d0 5AB2     		sxtb	r2, r3
 1578 02d2 FB69     		ldr	r3, [r7, #28]
 1579 02d4 DB68     		ldr	r3, [r3, #12]
 1580 02d6 D2B2     		uxtb	r2, r2
 1581 02d8 1A70     		strb	r2, [r3]
 1582 02da BB68     		ldr	r3, [r7, #8]
 1583 02dc 1B78     		ldrb	r3, [r3]
 1584 02de 1A00     		movs	r2, r3
ARM GAS  C:\Users\SONG_J~1\AppData\Local\Temp\ccpfiTpO.s 			page 30


 1585 02e0 0123     		movs	r3, #1
 1586 02e2 1340     		ands	r3, r2
 1587 02e4 04D0     		beq	.L141
 1588 02e6 FB69     		ldr	r3, [r7, #28]
 1589 02e8 DB68     		ldr	r3, [r3, #12]
 1590 02ea BA68     		ldr	r2, [r7, #8]
 1591 02ec 5268     		ldr	r2, [r2, #4]
 1592 02ee 5A60     		str	r2, [r3, #4]
 1593              	.L141:
 1594 02f0 BB68     		ldr	r3, [r7, #8]
 1595 02f2 1B78     		ldrb	r3, [r3]
 1596 02f4 1A00     		movs	r2, r3
 1597 02f6 0223     		movs	r3, #2
 1598 02f8 1340     		ands	r3, r2
 1599 02fa 04D0     		beq	.L142
 1600 02fc FB69     		ldr	r3, [r7, #28]
 1601 02fe DB68     		ldr	r3, [r3, #12]
 1602 0300 BA68     		ldr	r2, [r7, #8]
 1603 0302 9268     		ldr	r2, [r2, #8]
 1604 0304 9A60     		str	r2, [r3, #8]
 1605              	.L142:
 1606 0306 BB68     		ldr	r3, [r7, #8]
 1607 0308 1B78     		ldrb	r3, [r3]
 1608 030a 1A00     		movs	r2, r3
 1609 030c 0423     		movs	r3, #4
 1610 030e 1340     		ands	r3, r2
 1611 0310 06D0     		beq	.L143
 1612 0312 FB69     		ldr	r3, [r7, #28]
 1613 0314 DA68     		ldr	r2, [r3, #12]
 1614 0316 BB68     		ldr	r3, [r7, #8]
 1615 0318 5C69     		ldr	r4, [r3, #20]
 1616 031a 1B69     		ldr	r3, [r3, #16]
 1617 031c 1361     		str	r3, [r2, #16]
 1618 031e 5461     		str	r4, [r2, #20]
 1619              	.L143:
 1620 0320 BB68     		ldr	r3, [r7, #8]
 1621 0322 1B78     		ldrb	r3, [r3]
 1622 0324 1A00     		movs	r2, r3
 1623 0326 0823     		movs	r3, #8
 1624 0328 1340     		ands	r3, r2
 1625 032a 06D0     		beq	.L144
 1626 032c FB69     		ldr	r3, [r7, #28]
 1627 032e DA68     		ldr	r2, [r3, #12]
 1628 0330 BB68     		ldr	r3, [r7, #8]
 1629 0332 DC69     		ldr	r4, [r3, #28]
 1630 0334 9B69     		ldr	r3, [r3, #24]
 1631 0336 9361     		str	r3, [r2, #24]
 1632 0338 D461     		str	r4, [r2, #28]
 1633              	.L144:
 1634 033a BB68     		ldr	r3, [r7, #8]
 1635 033c 1B78     		ldrb	r3, [r3]
 1636 033e 1A00     		movs	r2, r3
 1637 0340 1023     		movs	r3, #16
 1638 0342 1340     		ands	r3, r2
 1639 0344 06D0     		beq	.L140
 1640 0346 FB69     		ldr	r3, [r7, #28]
 1641 0348 DA68     		ldr	r2, [r3, #12]
ARM GAS  C:\Users\SONG_J~1\AppData\Local\Temp\ccpfiTpO.s 			page 31


 1642 034a BB68     		ldr	r3, [r7, #8]
 1643 034c 5C6A     		ldr	r4, [r3, #36]
 1644 034e 1B6A     		ldr	r3, [r3, #32]
 1645 0350 1362     		str	r3, [r2, #32]
 1646 0352 5462     		str	r4, [r2, #36]
 1647              	.L140:
 1648 0354 FB69     		ldr	r3, [r7, #28]
 1649 0356 DB68     		ldr	r3, [r3, #12]
 1650 0358 1B78     		ldrb	r3, [r3]
 1651 035a 7B60     		str	r3, [r7, #4]
 1652 035c FB69     		ldr	r3, [r7, #28]
 1653 035e DB68     		ldr	r3, [r3, #12]
 1654 0360 5A68     		ldr	r2, [r3, #4]
 1655 0362 9446     		mov	ip, r2
 1656 0364 FB69     		ldr	r3, [r7, #28]
 1657 0366 DB68     		ldr	r3, [r3, #12]
 1658 0368 9A68     		ldr	r2, [r3, #8]
 1659 036a 9046     		mov	r8, r2
 1660 036c FB69     		ldr	r3, [r7, #28]
 1661 036e DB68     		ldr	r3, [r3, #12]
 1662 0370 5C69     		ldr	r4, [r3, #20]
 1663 0372 1B69     		ldr	r3, [r3, #16]
 1664 0374 FA69     		ldr	r2, [r7, #28]
 1665 0376 D268     		ldr	r2, [r2, #12]
 1666 0378 9169     		ldr	r1, [r2, #24]
 1667 037a D269     		ldr	r2, [r2, #28]
 1668 037c F869     		ldr	r0, [r7, #28]
 1669 037e C068     		ldr	r0, [r0, #12]
 1670 0380 056A     		ldr	r5, [r0, #32]
 1671 0382 466A     		ldr	r6, [r0, #36]
 1672 0384 E720     		movs	r0, #231
 1673 0386 4000     		lsls	r0, r0, #1
 1674 0388 8246     		mov	r10, r0
 1675 038a 0E48     		ldr	r0, .L148
 1676 038c 8146     		mov	r9, r0
 1677 038e 0E48     		ldr	r0, .L148+4
 1678 0390 0695     		str	r5, [sp, #24]
 1679 0392 0796     		str	r6, [sp, #28]
 1680 0394 0491     		str	r1, [sp, #16]
 1681 0396 0592     		str	r2, [sp, #20]
 1682 0398 0293     		str	r3, [sp, #8]
 1683 039a 0394     		str	r4, [sp, #12]
 1684 039c 4246     		mov	r2, r8
 1685 039e 0192     		str	r2, [sp, #4]
 1686 03a0 6246     		mov	r2, ip
 1687 03a2 0092     		str	r2, [sp]
 1688 03a4 7B68     		ldr	r3, [r7, #4]
 1689 03a6 5246     		mov	r2, r10
 1690 03a8 4946     		mov	r1, r9
 1691 03aa FFF7FEFF 		bl	atiny_printf
 1692 03ae 4423     		movs	r3, #68
 1693              	.L123:
 1694 03b0 1800     		movs	r0, r3
 1695 03b2 BD46     		mov	sp, r7
 1696 03b4 0DB0     		add	sp, sp, #52
 1697              		@ sp needed
 1698 03b6 3CBC     		pop	{r2, r3, r4, r5}
ARM GAS  C:\Users\SONG_J~1\AppData\Local\Temp\ccpfiTpO.s 			page 32


 1699 03b8 9046     		mov	r8, r2
 1700 03ba 9946     		mov	r9, r3
 1701 03bc A246     		mov	r10, r4
 1702 03be AB46     		mov	fp, r5
 1703 03c0 F0BD     		pop	{r4, r5, r6, r7, pc}
 1704              	.L149:
 1705 03c2 C046     		.align	2
 1706              	.L148:
 1707 03c4 00000000 		.word	__func__.7156
 1708 03c8 14020000 		.word	.LC59
 1710              		.section	.rodata
 1711 0277 00       		.align	2
 1712              	.LC66:
 1713 0278 00       		.ascii	"\000"
 1714 0279 000000   		.align	2
 1715              	.LC68:
 1716 027c 206E6F00 		.ascii	" no\000"
 1717              		.align	2
 1718              	.LC70:
 1719 0280 5B25733A 		.ascii	"[%s:%d] Found one with%s observers.\015\012\000"
 1719      25645D20 
 1719      466F756E 
 1719      64206F6E 
 1719      65207769 
 1720 02a6 0000     		.align	2
 1721              	.LC72:
 1722 02a8 5B25733A 		.ascii	"[%s:%d] Found nothing\015\012\000"
 1722      25645D20 
 1722      466F756E 
 1722      64206E6F 
 1722      7468696E 
 1723              		.section	.text.observe_findByUri,"ax",%progbits
 1724              		.align	1
 1725              		.global	observe_findByUri
 1726              		.syntax unified
 1727              		.code	16
 1728              		.thumb_func
 1729              		.fpu softvfp
 1731              	observe_findByUri:
 1732              		@ args = 0, pretend = 0, frame = 16
 1733              		@ frame_needed = 1, uses_anonymous_args = 0
 1734 0000 90B5     		push	{r4, r7, lr}
 1735 0002 85B0     		sub	sp, sp, #20
 1736 0004 00AF     		add	r7, sp, #0
 1737 0006 7860     		str	r0, [r7, #4]
 1738 0008 3960     		str	r1, [r7]
 1739 000a 3B68     		ldr	r3, [r7]
 1740 000c 002B     		cmp	r3, #0
 1741 000e 07D1     		bne	.L151
 1742 0010 EC23     		movs	r3, #236
 1743 0012 5A00     		lsls	r2, r3, #1
 1744 0014 6A49     		ldr	r1, .L169
 1745 0016 6B4B     		ldr	r3, .L169+4
 1746 0018 1800     		movs	r0, r3
 1747 001a FFF7FEFF 		bl	atiny_printf
 1748 001e 29E0     		b	.L152
 1749              	.L151:
ARM GAS  C:\Users\SONG_J~1\AppData\Local\Temp\ccpfiTpO.s 			page 33


 1750 0020 3B68     		ldr	r3, [r7]
 1751 0022 5B88     		ldrh	r3, [r3, #2]
 1752 0024 1C00     		movs	r4, r3
 1753 0026 EC23     		movs	r3, #236
 1754 0028 5A00     		lsls	r2, r3, #1
 1755 002a 6549     		ldr	r1, .L169
 1756 002c 6648     		ldr	r0, .L169+8
 1757 002e 2300     		movs	r3, r4
 1758 0030 FFF7FEFF 		bl	atiny_printf
 1759 0034 3B68     		ldr	r3, [r7]
 1760 0036 1B78     		ldrb	r3, [r3]
 1761 0038 1A00     		movs	r2, r3
 1762 003a 0223     		movs	r3, #2
 1763 003c 1340     		ands	r3, r2
 1764 003e 07D0     		beq	.L153
 1765 0040 3B68     		ldr	r3, [r7]
 1766 0042 9B88     		ldrh	r3, [r3, #4]
 1767 0044 1A00     		movs	r2, r3
 1768 0046 614B     		ldr	r3, .L169+12
 1769 0048 1100     		movs	r1, r2
 1770 004a 1800     		movs	r0, r3
 1771 004c FFF7FEFF 		bl	atiny_printf
 1772              	.L153:
 1773 0050 3B68     		ldr	r3, [r7]
 1774 0052 1B78     		ldrb	r3, [r3]
 1775 0054 1A00     		movs	r2, r3
 1776 0056 0123     		movs	r3, #1
 1777 0058 1340     		ands	r3, r2
 1778 005a 07D0     		beq	.L154
 1779 005c 3B68     		ldr	r3, [r7]
 1780 005e DB88     		ldrh	r3, [r3, #6]
 1781 0060 1A00     		movs	r2, r3
 1782 0062 5A4B     		ldr	r3, .L169+12
 1783 0064 1100     		movs	r1, r2
 1784 0066 1800     		movs	r0, r3
 1785 0068 FFF7FEFF 		bl	atiny_printf
 1786              	.L154:
 1787 006c 584B     		ldr	r3, .L169+16
 1788 006e 1800     		movs	r0, r3
 1789 0070 FFF7FEFF 		bl	atiny_printf
 1790              	.L152:
 1791 0074 7B68     		ldr	r3, [r7, #4]
 1792 0076 DB69     		ldr	r3, [r3, #28]
 1793 0078 FB60     		str	r3, [r7, #12]
 1794 007a 8FE0     		b	.L155
 1795              	.L168:
 1796 007c FB68     		ldr	r3, [r7, #12]
 1797 007e DA88     		ldrh	r2, [r3, #6]
 1798 0080 3B68     		ldr	r3, [r7]
 1799 0082 5B88     		ldrh	r3, [r3, #2]
 1800 0084 9A42     		cmp	r2, r3
 1801 0086 00D0     		beq	.LCB1838
 1802 0088 85E0     		b	.L156	@long jump
 1803              	.LCB1838:
 1804 008a 3B68     		ldr	r3, [r7]
 1805 008c 1B78     		ldrb	r3, [r3]
 1806 008e 1A00     		movs	r2, r3
ARM GAS  C:\Users\SONG_J~1\AppData\Local\Temp\ccpfiTpO.s 			page 34


 1807 0090 0223     		movs	r3, #2
 1808 0092 1340     		ands	r3, r2
 1809 0094 05D1     		bne	.L157
 1810 0096 FB68     		ldr	r3, [r7, #12]
 1811 0098 1B79     		ldrb	r3, [r3, #4]
 1812 009a 1A00     		movs	r2, r3
 1813 009c 0223     		movs	r3, #2
 1814 009e 1340     		ands	r3, r2
 1815 00a0 14D0     		beq	.L158
 1816              	.L157:
 1817 00a2 3B68     		ldr	r3, [r7]
 1818 00a4 1B78     		ldrb	r3, [r3]
 1819 00a6 1A00     		movs	r2, r3
 1820 00a8 0223     		movs	r3, #2
 1821 00aa 1340     		ands	r3, r2
 1822 00ac 00D1     		bne	.LCB1860
 1823 00ae 72E0     		b	.L156	@long jump
 1824              	.LCB1860:
 1825 00b0 FB68     		ldr	r3, [r7, #12]
 1826 00b2 1B79     		ldrb	r3, [r3, #4]
 1827 00b4 1A00     		movs	r2, r3
 1828 00b6 0223     		movs	r3, #2
 1829 00b8 1340     		ands	r3, r2
 1830 00ba 00D1     		bne	.LCB1867
 1831 00bc 6BE0     		b	.L156	@long jump
 1832              	.LCB1867:
 1833 00be 3B68     		ldr	r3, [r7]
 1834 00c0 9A88     		ldrh	r2, [r3, #4]
 1835 00c2 FB68     		ldr	r3, [r7, #12]
 1836 00c4 1B89     		ldrh	r3, [r3, #8]
 1837 00c6 9A42     		cmp	r2, r3
 1838 00c8 00D0     		beq	.LCB1873
 1839 00ca 64E0     		b	.L156	@long jump
 1840              	.LCB1873:
 1841              	.L158:
 1842 00cc 3B68     		ldr	r3, [r7]
 1843 00ce 1B78     		ldrb	r3, [r3]
 1844 00d0 1A00     		movs	r2, r3
 1845 00d2 0123     		movs	r3, #1
 1846 00d4 1340     		ands	r3, r2
 1847 00d6 05D1     		bne	.L159
 1848 00d8 FB68     		ldr	r3, [r7, #12]
 1849 00da 1B79     		ldrb	r3, [r3, #4]
 1850 00dc 1A00     		movs	r2, r3
 1851 00de 0123     		movs	r3, #1
 1852 00e0 1340     		ands	r3, r2
 1853 00e2 11D0     		beq	.L160
 1854              	.L159:
 1855 00e4 3B68     		ldr	r3, [r7]
 1856 00e6 1B78     		ldrb	r3, [r3]
 1857 00e8 1A00     		movs	r2, r3
 1858 00ea 0123     		movs	r3, #1
 1859 00ec 1340     		ands	r3, r2
 1860 00ee 52D0     		beq	.L156
 1861 00f0 FB68     		ldr	r3, [r7, #12]
 1862 00f2 1B79     		ldrb	r3, [r3, #4]
 1863 00f4 1A00     		movs	r2, r3
ARM GAS  C:\Users\SONG_J~1\AppData\Local\Temp\ccpfiTpO.s 			page 35


 1864 00f6 0123     		movs	r3, #1
 1865 00f8 1340     		ands	r3, r2
 1866 00fa 4CD0     		beq	.L156
 1867 00fc 3B68     		ldr	r3, [r7]
 1868 00fe DA88     		ldrh	r2, [r3, #6]
 1869 0100 FB68     		ldr	r3, [r7, #12]
 1870 0102 5B89     		ldrh	r3, [r3, #10]
 1871 0104 9A42     		cmp	r2, r3
 1872 0106 46D1     		bne	.L156
 1873              	.L160:
 1874 0108 FB68     		ldr	r3, [r7, #12]
 1875 010a DB68     		ldr	r3, [r3, #12]
 1876 010c 002B     		cmp	r3, #0
 1877 010e 01D0     		beq	.L161
 1878 0110 304B     		ldr	r3, .L169+20
 1879 0112 00E0     		b	.L162
 1880              	.L161:
 1881 0114 304B     		ldr	r3, .L169+24
 1882              	.L162:
 1883 0116 F222     		movs	r2, #242
 1884 0118 5200     		lsls	r2, r2, #1
 1885 011a 2949     		ldr	r1, .L169
 1886 011c 2F48     		ldr	r0, .L169+28
 1887 011e FFF7FEFF 		bl	atiny_printf
 1888 0122 FB68     		ldr	r3, [r7, #12]
 1889 0124 0433     		adds	r3, r3, #4
 1890 0126 002B     		cmp	r3, #0
 1891 0128 08D1     		bne	.L163
 1892 012a E623     		movs	r3, #230
 1893 012c FF33     		adds	r3, r3, #255
 1894 012e 1A00     		movs	r2, r3
 1895 0130 2349     		ldr	r1, .L169
 1896 0132 244B     		ldr	r3, .L169+4
 1897 0134 1800     		movs	r0, r3
 1898 0136 FFF7FEFF 		bl	atiny_printf
 1899 013a 2AE0     		b	.L164
 1900              	.L163:
 1901 013c FB68     		ldr	r3, [r7, #12]
 1902 013e DB88     		ldrh	r3, [r3, #6]
 1903 0140 1C00     		movs	r4, r3
 1904 0142 E623     		movs	r3, #230
 1905 0144 FF33     		adds	r3, r3, #255
 1906 0146 1A00     		movs	r2, r3
 1907 0148 1D49     		ldr	r1, .L169
 1908 014a 1F48     		ldr	r0, .L169+8
 1909 014c 2300     		movs	r3, r4
 1910 014e FFF7FEFF 		bl	atiny_printf
 1911 0152 FB68     		ldr	r3, [r7, #12]
 1912 0154 1B79     		ldrb	r3, [r3, #4]
 1913 0156 1A00     		movs	r2, r3
 1914 0158 0223     		movs	r3, #2
 1915 015a 1340     		ands	r3, r2
 1916 015c 07D0     		beq	.L165
 1917 015e FB68     		ldr	r3, [r7, #12]
 1918 0160 1B89     		ldrh	r3, [r3, #8]
 1919 0162 1A00     		movs	r2, r3
 1920 0164 194B     		ldr	r3, .L169+12
ARM GAS  C:\Users\SONG_J~1\AppData\Local\Temp\ccpfiTpO.s 			page 36


 1921 0166 1100     		movs	r1, r2
 1922 0168 1800     		movs	r0, r3
 1923 016a FFF7FEFF 		bl	atiny_printf
 1924              	.L165:
 1925 016e FB68     		ldr	r3, [r7, #12]
 1926 0170 1B79     		ldrb	r3, [r3, #4]
 1927 0172 1A00     		movs	r2, r3
 1928 0174 0123     		movs	r3, #1
 1929 0176 1340     		ands	r3, r2
 1930 0178 07D0     		beq	.L166
 1931 017a FB68     		ldr	r3, [r7, #12]
 1932 017c 5B89     		ldrh	r3, [r3, #10]
 1933 017e 1A00     		movs	r2, r3
 1934 0180 124B     		ldr	r3, .L169+12
 1935 0182 1100     		movs	r1, r2
 1936 0184 1800     		movs	r0, r3
 1937 0186 FFF7FEFF 		bl	atiny_printf
 1938              	.L166:
 1939 018a 114B     		ldr	r3, .L169+16
 1940 018c 1800     		movs	r0, r3
 1941 018e FFF7FEFF 		bl	atiny_printf
 1942              	.L164:
 1943 0192 FB68     		ldr	r3, [r7, #12]
 1944 0194 0FE0     		b	.L167
 1945              	.L156:
 1946 0196 FB68     		ldr	r3, [r7, #12]
 1947 0198 1B68     		ldr	r3, [r3]
 1948 019a FB60     		str	r3, [r7, #12]
 1949              	.L155:
 1950 019c FB68     		ldr	r3, [r7, #12]
 1951 019e 002B     		cmp	r3, #0
 1952 01a0 00D0     		beq	.LCB2002
 1953 01a2 6BE7     		b	.L168	@long jump
 1954              	.LCB2002:
 1955 01a4 EE23     		movs	r3, #238
 1956 01a6 FF33     		adds	r3, r3, #255
 1957 01a8 1A00     		movs	r2, r3
 1958 01aa 0549     		ldr	r1, .L169
 1959 01ac 0C4B     		ldr	r3, .L169+32
 1960 01ae 1800     		movs	r0, r3
 1961 01b0 FFF7FEFF 		bl	atiny_printf
 1962 01b4 0023     		movs	r3, #0
 1963              	.L167:
 1964 01b6 1800     		movs	r0, r3
 1965 01b8 BD46     		mov	sp, r7
 1966 01ba 05B0     		add	sp, sp, #20
 1967              		@ sp needed
 1968 01bc 90BD     		pop	{r4, r7, pc}
 1969              	.L170:
 1970 01be C046     		.align	2
 1971              	.L169:
 1972 01c0 00000000 		.word	__func__.7165
 1973 01c4 70010000 		.word	.LC36
 1974 01c8 80010000 		.word	.LC38
 1975 01cc 8C010000 		.word	.LC40
 1976 01d0 90010000 		.word	.LC42
 1977 01d4 78020000 		.word	.LC66
ARM GAS  C:\Users\SONG_J~1\AppData\Local\Temp\ccpfiTpO.s 			page 37


 1978 01d8 7C020000 		.word	.LC68
 1979 01dc 80020000 		.word	.LC70
 1980 01e0 A8020000 		.word	.LC72
 1982              		.section	.rodata
 1983              		.align	2
 1984              	.LC79:
 1985 02c0 5B25733A 		.ascii	"[%s:%d] Found an observation\015\012\000"
 1985      25645D20 
 1985      466F756E 
 1985      6420616E 
 1985      206F6273 
 1986 02df 00       		.align	2
 1987              	.LC81:
 1988 02e0 5B25733A 		.ascii	"[%s:%d] Tagging a watcher\015\012\000"
 1988      25645D20 
 1988      54616767 
 1988      696E6720 
 1988      61207761 
 1989              		.section	.text.lwm2m_resource_value_changed,"ax",%progbits
 1990              		.align	1
 1991              		.global	lwm2m_resource_value_changed
 1992              		.syntax unified
 1993              		.code	16
 1994              		.thumb_func
 1995              		.fpu softvfp
 1997              	lwm2m_resource_value_changed:
 1998              		@ args = 0, pretend = 0, frame = 16
 1999              		@ frame_needed = 1, uses_anonymous_args = 0
 2000 0000 90B5     		push	{r4, r7, lr}
 2001 0002 85B0     		sub	sp, sp, #20
 2002 0004 00AF     		add	r7, sp, #0
 2003 0006 7860     		str	r0, [r7, #4]
 2004 0008 3960     		str	r1, [r7]
 2005 000a 3B68     		ldr	r3, [r7]
 2006 000c 002B     		cmp	r3, #0
 2007 000e 07D1     		bne	.L172
 2008 0010 FB23     		movs	r3, #251
 2009 0012 5A00     		lsls	r2, r3, #1
 2010 0014 5C49     		ldr	r1, .L188
 2011 0016 5D4B     		ldr	r3, .L188+4
 2012 0018 1800     		movs	r0, r3
 2013 001a FFF7FEFF 		bl	atiny_printf
 2014 001e 29E0     		b	.L173
 2015              	.L172:
 2016 0020 3B68     		ldr	r3, [r7]
 2017 0022 5B88     		ldrh	r3, [r3, #2]
 2018 0024 1C00     		movs	r4, r3
 2019 0026 FB23     		movs	r3, #251
 2020 0028 5A00     		lsls	r2, r3, #1
 2021 002a 5749     		ldr	r1, .L188
 2022 002c 5848     		ldr	r0, .L188+8
 2023 002e 2300     		movs	r3, r4
 2024 0030 FFF7FEFF 		bl	atiny_printf
 2025 0034 3B68     		ldr	r3, [r7]
 2026 0036 1B78     		ldrb	r3, [r3]
 2027 0038 1A00     		movs	r2, r3
 2028 003a 0223     		movs	r3, #2
ARM GAS  C:\Users\SONG_J~1\AppData\Local\Temp\ccpfiTpO.s 			page 38


 2029 003c 1340     		ands	r3, r2
 2030 003e 07D0     		beq	.L174
 2031 0040 3B68     		ldr	r3, [r7]
 2032 0042 9B88     		ldrh	r3, [r3, #4]
 2033 0044 1A00     		movs	r2, r3
 2034 0046 534B     		ldr	r3, .L188+12
 2035 0048 1100     		movs	r1, r2
 2036 004a 1800     		movs	r0, r3
 2037 004c FFF7FEFF 		bl	atiny_printf
 2038              	.L174:
 2039 0050 3B68     		ldr	r3, [r7]
 2040 0052 1B78     		ldrb	r3, [r3]
 2041 0054 1A00     		movs	r2, r3
 2042 0056 0123     		movs	r3, #1
 2043 0058 1340     		ands	r3, r2
 2044 005a 07D0     		beq	.L175
 2045 005c 3B68     		ldr	r3, [r7]
 2046 005e DB88     		ldrh	r3, [r3, #6]
 2047 0060 1A00     		movs	r2, r3
 2048 0062 4C4B     		ldr	r3, .L188+12
 2049 0064 1100     		movs	r1, r2
 2050 0066 1800     		movs	r0, r3
 2051 0068 FFF7FEFF 		bl	atiny_printf
 2052              	.L175:
 2053 006c 4A4B     		ldr	r3, .L188+16
 2054 006e 1800     		movs	r0, r3
 2055 0070 FFF7FEFF 		bl	atiny_printf
 2056              	.L173:
 2057 0074 7B68     		ldr	r3, [r7, #4]
 2058 0076 DB69     		ldr	r3, [r3, #28]
 2059 0078 FB60     		str	r3, [r7, #12]
 2060 007a 7CE0     		b	.L176
 2061              	.L187:
 2062 007c FB68     		ldr	r3, [r7, #12]
 2063 007e DA88     		ldrh	r2, [r3, #6]
 2064 0080 3B68     		ldr	r3, [r7]
 2065 0082 5B88     		ldrh	r3, [r3, #2]
 2066 0084 9A42     		cmp	r2, r3
 2067 0086 00D0     		beq	.LCB2119
 2068 0088 72E0     		b	.L177	@long jump
 2069              	.LCB2119:
 2070 008a 3B68     		ldr	r3, [r7]
 2071 008c 1B78     		ldrb	r3, [r3]
 2072 008e 1A00     		movs	r2, r3
 2073 0090 0223     		movs	r3, #2
 2074 0092 1340     		ands	r3, r2
 2075 0094 0BD0     		beq	.L178
 2076 0096 FB68     		ldr	r3, [r7, #12]
 2077 0098 1B79     		ldrb	r3, [r3, #4]
 2078 009a 1A00     		movs	r2, r3
 2079 009c 0223     		movs	r3, #2
 2080 009e 1340     		ands	r3, r2
 2081 00a0 05D0     		beq	.L178
 2082 00a2 3B68     		ldr	r3, [r7]
 2083 00a4 9A88     		ldrh	r2, [r3, #4]
 2084 00a6 FB68     		ldr	r3, [r7, #12]
 2085 00a8 1B89     		ldrh	r3, [r3, #8]
ARM GAS  C:\Users\SONG_J~1\AppData\Local\Temp\ccpfiTpO.s 			page 39


 2086 00aa 9A42     		cmp	r2, r3
 2087 00ac 60D1     		bne	.L177
 2088              	.L178:
 2089 00ae 3B68     		ldr	r3, [r7]
 2090 00b0 1B78     		ldrb	r3, [r3]
 2091 00b2 1A00     		movs	r2, r3
 2092 00b4 0123     		movs	r3, #1
 2093 00b6 1340     		ands	r3, r2
 2094 00b8 0BD0     		beq	.L179
 2095 00ba FB68     		ldr	r3, [r7, #12]
 2096 00bc 1B79     		ldrb	r3, [r3, #4]
 2097 00be 1A00     		movs	r2, r3
 2098 00c0 0123     		movs	r3, #1
 2099 00c2 1340     		ands	r3, r2
 2100 00c4 05D0     		beq	.L179
 2101 00c6 3B68     		ldr	r3, [r7]
 2102 00c8 DA88     		ldrh	r2, [r3, #6]
 2103 00ca FB68     		ldr	r3, [r7, #12]
 2104 00cc 5B89     		ldrh	r3, [r3, #10]
 2105 00ce 9A42     		cmp	r2, r3
 2106 00d0 4ED1     		bne	.L177
 2107              	.L179:
 2108 00d2 324A     		ldr	r2, .L188+20
 2109 00d4 2C49     		ldr	r1, .L188
 2110 00d6 324B     		ldr	r3, .L188+24
 2111 00d8 1800     		movs	r0, r3
 2112 00da FFF7FEFF 		bl	atiny_printf
 2113 00de FB68     		ldr	r3, [r7, #12]
 2114 00e0 0433     		adds	r3, r3, #4
 2115 00e2 002B     		cmp	r3, #0
 2116 00e4 06D1     		bne	.L180
 2117 00e6 2F4A     		ldr	r2, .L188+28
 2118 00e8 2749     		ldr	r1, .L188
 2119 00ea 284B     		ldr	r3, .L188+4
 2120 00ec 1800     		movs	r0, r3
 2121 00ee FFF7FEFF 		bl	atiny_printf
 2122 00f2 26E0     		b	.L181
 2123              	.L180:
 2124 00f4 FB68     		ldr	r3, [r7, #12]
 2125 00f6 DB88     		ldrh	r3, [r3, #6]
 2126 00f8 2A4A     		ldr	r2, .L188+28
 2127 00fa 2349     		ldr	r1, .L188
 2128 00fc 2448     		ldr	r0, .L188+8
 2129 00fe FFF7FEFF 		bl	atiny_printf
 2130 0102 FB68     		ldr	r3, [r7, #12]
 2131 0104 1B79     		ldrb	r3, [r3, #4]
 2132 0106 1A00     		movs	r2, r3
 2133 0108 0223     		movs	r3, #2
 2134 010a 1340     		ands	r3, r2
 2135 010c 07D0     		beq	.L182
 2136 010e FB68     		ldr	r3, [r7, #12]
 2137 0110 1B89     		ldrh	r3, [r3, #8]
 2138 0112 1A00     		movs	r2, r3
 2139 0114 1F4B     		ldr	r3, .L188+12
 2140 0116 1100     		movs	r1, r2
 2141 0118 1800     		movs	r0, r3
 2142 011a FFF7FEFF 		bl	atiny_printf
ARM GAS  C:\Users\SONG_J~1\AppData\Local\Temp\ccpfiTpO.s 			page 40


 2143              	.L182:
 2144 011e FB68     		ldr	r3, [r7, #12]
 2145 0120 1B79     		ldrb	r3, [r3, #4]
 2146 0122 1A00     		movs	r2, r3
 2147 0124 0123     		movs	r3, #1
 2148 0126 1340     		ands	r3, r2
 2149 0128 07D0     		beq	.L183
 2150 012a FB68     		ldr	r3, [r7, #12]
 2151 012c 5B89     		ldrh	r3, [r3, #10]
 2152 012e 1A00     		movs	r2, r3
 2153 0130 184B     		ldr	r3, .L188+12
 2154 0132 1100     		movs	r1, r2
 2155 0134 1800     		movs	r0, r3
 2156 0136 FFF7FEFF 		bl	atiny_printf
 2157              	.L183:
 2158 013a 174B     		ldr	r3, .L188+16
 2159 013c 1800     		movs	r0, r3
 2160 013e FFF7FEFF 		bl	atiny_printf
 2161              	.L181:
 2162 0142 FB68     		ldr	r3, [r7, #12]
 2163 0144 DB68     		ldr	r3, [r3, #12]
 2164 0146 BB60     		str	r3, [r7, #8]
 2165 0148 0FE0     		b	.L184
 2166              	.L186:
 2167 014a BB68     		ldr	r3, [r7, #8]
 2168 014c 1B79     		ldrb	r3, [r3, #4]
 2169 014e 002B     		cmp	r3, #0
 2170 0150 08D0     		beq	.L185
 2171 0152 154A     		ldr	r2, .L188+32
 2172 0154 0C49     		ldr	r1, .L188
 2173 0156 154B     		ldr	r3, .L188+36
 2174 0158 1800     		movs	r0, r3
 2175 015a FFF7FEFF 		bl	atiny_printf
 2176 015e BB68     		ldr	r3, [r7, #8]
 2177 0160 0122     		movs	r2, #1
 2178 0162 5A71     		strb	r2, [r3, #5]
 2179              	.L185:
 2180 0164 BB68     		ldr	r3, [r7, #8]
 2181 0166 1B68     		ldr	r3, [r3]
 2182 0168 BB60     		str	r3, [r7, #8]
 2183              	.L184:
 2184 016a BB68     		ldr	r3, [r7, #8]
 2185 016c 002B     		cmp	r3, #0
 2186 016e ECD1     		bne	.L186
 2187              	.L177:
 2188 0170 FB68     		ldr	r3, [r7, #12]
 2189 0172 1B68     		ldr	r3, [r3]
 2190 0174 FB60     		str	r3, [r7, #12]
 2191              	.L176:
 2192 0176 FB68     		ldr	r3, [r7, #12]
 2193 0178 002B     		cmp	r3, #0
 2194 017a 00D0     		beq	.LCB2260
 2195 017c 7EE7     		b	.L187	@long jump
 2196              	.LCB2260:
 2197 017e C046     		nop
 2198 0180 BD46     		mov	sp, r7
 2199 0182 05B0     		add	sp, sp, #20
ARM GAS  C:\Users\SONG_J~1\AppData\Local\Temp\ccpfiTpO.s 			page 41


 2200              		@ sp needed
 2201 0184 90BD     		pop	{r4, r7, pc}
 2202              	.L189:
 2203 0186 C046     		.align	2
 2204              	.L188:
 2205 0188 00000000 		.word	__func__.7174
 2206 018c 70010000 		.word	.LC36
 2207 0190 80010000 		.word	.LC38
 2208 0194 8C010000 		.word	.LC40
 2209 0198 90010000 		.word	.LC42
 2210 019c 06020000 		.word	518
 2211 01a0 C0020000 		.word	.LC79
 2212 01a4 07020000 		.word	519
 2213 01a8 0D020000 		.word	525
 2214 01ac E0020000 		.word	.LC81
 2216              		.section	.rodata
 2217              		.align	2
 2218              	.LC84:
 2219 02fc 5B25733A 		.ascii	"[%s:%d] transaction_new null\015\012\000"
 2219      25645D20 
 2219      7472616E 
 2219      73616374 
 2219      696F6E5F 
 2220 031b 00       		.align	2
 2221              	.LC87:
 2222 031c 5B25733A 		.ascii	"[%s:%d] notify con msg, cookie:%d type:%d,ret:%d\015"
 2222      25645D20 
 2222      6E6F7469 
 2222      66792063 
 2222      6F6E206D 
 2223 034d 0A00     		.ascii	"\012\000"
 2224              		.section	.text.observe_send_transaction,"ax",%progbits
 2225              		.align	1
 2226              		.global	observe_send_transaction
 2227              		.syntax unified
 2228              		.code	16
 2229              		.thumb_func
 2230              		.fpu softvfp
 2232              	observe_send_transaction:
 2233              		@ args = 4, pretend = 0, frame = 24
 2234              		@ frame_needed = 1, uses_anonymous_args = 0
 2235 0000 B0B5     		push	{r4, r5, r7, lr}
 2236 0002 8AB0     		sub	sp, sp, #40
 2237 0004 04AF     		add	r7, sp, #16
 2238 0006 F860     		str	r0, [r7, #12]
 2239 0008 B960     		str	r1, [r7, #8]
 2240 000a 7A60     		str	r2, [r7, #4]
 2241 000c 3B60     		str	r3, [r7]
 2242 000e 7B68     		ldr	r3, [r7, #4]
 2243 0010 9B68     		ldr	r3, [r3, #8]
 2244 0012 D869     		ldr	r0, [r3, #28]
 2245 0014 7B68     		ldr	r3, [r7, #4]
 2246 0016 9A8D     		ldrh	r2, [r3, #44]
 2247 0018 7B68     		ldr	r3, [r7, #4]
 2248 001a DB69     		ldr	r3, [r3, #28]
 2249 001c DBB2     		uxtb	r3, r3
 2250 001e 7968     		ldr	r1, [r7, #4]
ARM GAS  C:\Users\SONG_J~1\AppData\Local\Temp\ccpfiTpO.s 			page 42


 2251 0020 1231     		adds	r1, r1, #18
 2252 0022 0291     		str	r1, [sp, #8]
 2253 0024 0193     		str	r3, [sp, #4]
 2254 0026 0092     		str	r2, [sp]
 2255 0028 0023     		movs	r3, #0
 2256 002a 0022     		movs	r2, #0
 2257 002c 4521     		movs	r1, #69
 2258 002e FFF7FEFF 		bl	transaction_new
 2259 0032 0300     		movs	r3, r0
 2260 0034 7B61     		str	r3, [r7, #20]
 2261 0036 7B69     		ldr	r3, [r7, #20]
 2262 0038 002B     		cmp	r3, #0
 2263 003a 07D1     		bne	.L191
 2264 003c 2A4A     		ldr	r2, .L193
 2265 003e 2B49     		ldr	r1, .L193+4
 2266 0040 2B4B     		ldr	r3, .L193+8
 2267 0042 1800     		movs	r0, r3
 2268 0044 FFF7FEFF 		bl	atiny_printf
 2269 0048 A023     		movs	r3, #160
 2270 004a 49E0     		b	.L192
 2271              	.L191:
 2272 004c BB68     		ldr	r3, [r7, #8]
 2273 004e 9A68     		ldr	r2, [r3, #8]
 2274 0050 7B69     		ldr	r3, [r7, #20]
 2275 0052 DA63     		str	r2, [r3, #60]
 2276 0054 BB68     		ldr	r3, [r7, #8]
 2277 0056 5A68     		ldr	r2, [r3, #4]
 2278 0058 7B69     		ldr	r3, [r7, #20]
 2279 005a 9A63     		str	r2, [r3, #56]
 2280 005c BB68     		ldr	r3, [r7, #8]
 2281 005e 1A68     		ldr	r2, [r3]
 2282 0060 7B69     		ldr	r3, [r7, #20]
 2283 0062 5A63     		str	r2, [r3, #52]
 2284 0064 234B     		ldr	r3, .L193+12
 2285 0066 1A68     		ldr	r2, [r3]
 2286 0068 7B69     		ldr	r3, [r7, #20]
 2287 006a 1A64     		str	r2, [r3, #64]
 2288 006c 7B69     		ldr	r3, [r7, #20]
 2289 006e 9A6A     		ldr	r2, [r3, #40]
 2290 0070 7B68     		ldr	r3, [r7, #4]
 2291 0072 1B8A     		ldrh	r3, [r3, #16]
 2292 0074 1900     		movs	r1, r3
 2293 0076 1000     		movs	r0, r2
 2294 0078 FFF7FEFF 		bl	coap_set_header_content_type
 2295 007c 7B69     		ldr	r3, [r7, #20]
 2296 007e 986A     		ldr	r0, [r3, #40]
 2297 0080 7B68     		ldr	r3, [r7, #4]
 2298 0082 9A6A     		ldr	r2, [r3, #40]
 2299 0084 511C     		adds	r1, r2, #1
 2300 0086 7B68     		ldr	r3, [r7, #4]
 2301 0088 9962     		str	r1, [r3, #40]
 2302 008a 1100     		movs	r1, r2
 2303 008c FFF7FEFF 		bl	coap_set_header_observe
 2304 0090 7B69     		ldr	r3, [r7, #20]
 2305 0092 9B6A     		ldr	r3, [r3, #40]
 2306 0094 BA6A     		ldr	r2, [r7, #40]
 2307 0096 3968     		ldr	r1, [r7]
ARM GAS  C:\Users\SONG_J~1\AppData\Local\Temp\ccpfiTpO.s 			page 43


 2308 0098 1800     		movs	r0, r3
 2309 009a FFF7FEFF 		bl	coap_set_payload
 2310 009e FB68     		ldr	r3, [r7, #12]
 2311 00a0 9B6A     		ldr	r3, [r3, #40]
 2312 00a2 7A69     		ldr	r2, [r7, #20]
 2313 00a4 1100     		movs	r1, r2
 2314 00a6 1800     		movs	r0, r3
 2315 00a8 FFF7FEFF 		bl	lwm2m_list_add
 2316 00ac 0200     		movs	r2, r0
 2317 00ae FB68     		ldr	r3, [r7, #12]
 2318 00b0 9A62     		str	r2, [r3, #40]
 2319 00b2 7A69     		ldr	r2, [r7, #20]
 2320 00b4 FB68     		ldr	r3, [r7, #12]
 2321 00b6 1100     		movs	r1, r2
 2322 00b8 1800     		movs	r0, r3
 2323 00ba FFF7FEFF 		bl	transaction_send
 2324 00be 0300     		movs	r3, r0
 2325 00c0 3B61     		str	r3, [r7, #16]
 2326 00c2 7B69     		ldr	r3, [r7, #20]
 2327 00c4 9C6B     		ldr	r4, [r3, #56]
 2328 00c6 7B69     		ldr	r3, [r7, #20]
 2329 00c8 5B6B     		ldr	r3, [r3, #52]
 2330 00ca 0B4D     		ldr	r5, .L193+16
 2331 00cc 0749     		ldr	r1, .L193+4
 2332 00ce 0B48     		ldr	r0, .L193+20
 2333 00d0 3A69     		ldr	r2, [r7, #16]
 2334 00d2 0192     		str	r2, [sp, #4]
 2335 00d4 0093     		str	r3, [sp]
 2336 00d6 2300     		movs	r3, r4
 2337 00d8 2A00     		movs	r2, r5
 2338 00da FFF7FEFF 		bl	atiny_printf
 2339 00de 3B69     		ldr	r3, [r7, #16]
 2340              	.L192:
 2341 00e0 1800     		movs	r0, r3
 2342 00e2 BD46     		mov	sp, r7
 2343 00e4 06B0     		add	sp, sp, #24
 2344              		@ sp needed
 2345 00e6 B0BD     		pop	{r4, r5, r7, pc}
 2346              	.L194:
 2347              		.align	2
 2348              	.L193:
 2349 00e8 22020000 		.word	546
 2350 00ec 00000000 		.word	__func__.7191
 2351 00f0 FC020000 		.word	.LC84
 2352 00f4 00000000 		.word	observe_call_back
 2353 00f8 2E020000 		.word	558
 2354 00fc 1C030000 		.word	.LC87
 2356              		.section	.rodata
 2357 034f 00       		.align	2
 2358              	.LC90:
 2359 0350 5B25733A 		.ascii	"[%s:%d] Entering\015\012\000"
 2359      25645D20 
 2359      456E7465 
 2359      72696E67 
 2359      0D0A00
 2360 0363 00       		.align	2
 2361              	.LC92:
ARM GAS  C:\Users\SONG_J~1\AppData\Local\Temp\ccpfiTpO.s 			page 44


 2362 0364 5B25733A 		.ascii	"[%s:%d] notify no con msg, msgid:\015\012\000"
 2362      25645D20 
 2362      6E6F7469 
 2362      6679206E 
 2362      6F20636F 
 2363              		.section	.text.observe_app_step,"ax",%progbits
 2364              		.align	1
 2365              		.global	observe_app_step
 2366              		.syntax unified
 2367              		.code	16
 2368              		.thumb_func
 2369              		.fpu softvfp
 2371              	observe_app_step:
 2372              		@ args = 4, pretend = 0, frame = 192
 2373              		@ frame_needed = 1, uses_anonymous_args = 0
 2374 0000 B0B5     		push	{r4, r5, r7, lr}
 2375 0002 B2B0     		sub	sp, sp, #200
 2376 0004 02AF     		add	r7, sp, #8
 2377 0006 F860     		str	r0, [r7, #12]
 2378 0008 B960     		str	r1, [r7, #8]
 2379 000a 3A60     		str	r2, [r7]
 2380 000c 7B60     		str	r3, [r7, #4]
 2381 000e 9A4A     		ldr	r2, .L211
 2382 0010 9A49     		ldr	r1, .L211+4
 2383 0012 9B4B     		ldr	r3, .L211+8
 2384 0014 1800     		movs	r0, r3
 2385 0016 FFF7FEFF 		bl	atiny_printf
 2386 001a 0023     		movs	r3, #0
 2387 001c B022     		movs	r2, #176
 2388 001e BA18     		adds	r2, r7, r2
 2389 0020 1360     		str	r3, [r2]
 2390 0022 0023     		movs	r3, #0
 2391 0024 B822     		movs	r2, #184
 2392 0026 BA18     		adds	r2, r7, r2
 2393 0028 1360     		str	r3, [r2]
 2394 002a 0023     		movs	r3, #0
 2395 002c AC22     		movs	r2, #172
 2396 002e BA18     		adds	r2, r7, r2
 2397 0030 1360     		str	r3, [r2]
 2398 0032 A021     		movs	r1, #160
 2399 0034 7B18     		adds	r3, r7, r1
 2400 0036 0022     		movs	r2, #0
 2401 0038 1A60     		str	r2, [r3]
 2402 003a 7B18     		adds	r3, r7, r1
 2403 003c 0022     		movs	r2, #0
 2404 003e 5A60     		str	r2, [r3, #4]
 2405 0040 7B18     		adds	r3, r7, r1
 2406 0042 0022     		movs	r2, #0
 2407 0044 9A60     		str	r2, [r3, #8]
 2408 0046 0023     		movs	r3, #0
 2409 0048 9C22     		movs	r2, #156
 2410 004a BA18     		adds	r2, r7, r2
 2411 004c 1360     		str	r3, [r2]
 2412 004e EDE0     		b	.L196
 2413              	.L207:
 2414 0050 BB68     		ldr	r3, [r7, #8]
 2415 0052 DB68     		ldr	r3, [r3, #12]
ARM GAS  C:\Users\SONG_J~1\AppData\Local\Temp\ccpfiTpO.s 			page 45


 2416 0054 BC22     		movs	r2, #188
 2417 0056 BA18     		adds	r2, r7, r2
 2418 0058 1360     		str	r3, [r2]
 2419 005a BFE0     		b	.L197
 2420              	.L205:
 2421 005c B023     		movs	r3, #176
 2422 005e FB18     		adds	r3, r7, r3
 2423 0060 1B68     		ldr	r3, [r3]
 2424 0062 002B     		cmp	r3, #0
 2425 0064 3FD1     		bne	.L198
 2426 0066 BB68     		ldr	r3, [r7, #8]
 2427 0068 181D     		adds	r0, r3, #4
 2428 006a 9C23     		movs	r3, #156
 2429 006c FB18     		adds	r3, r7, r3
 2430 006e 1968     		ldr	r1, [r3]
 2431 0070 AC23     		movs	r3, #172
 2432 0072 FB18     		adds	r3, r7, r3
 2433 0074 1A68     		ldr	r2, [r3]
 2434 0076 BC23     		movs	r3, #188
 2435 0078 FB18     		adds	r3, r7, r3
 2436 007a 1B68     		ldr	r3, [r3]
 2437 007c 1033     		adds	r3, r3, #16
 2438 007e 1C00     		movs	r4, r3
 2439 0080 B023     		movs	r3, #176
 2440 0082 FB18     		adds	r3, r7, r3
 2441 0084 0093     		str	r3, [sp]
 2442 0086 2300     		movs	r3, r4
 2443 0088 FFF7FEFF 		bl	lwm2m_data_serialize
 2444 008c 0300     		movs	r3, r0
 2445 008e B422     		movs	r2, #180
 2446 0090 B918     		adds	r1, r7, r2
 2447 0092 0B60     		str	r3, [r1]
 2448 0094 BB18     		adds	r3, r7, r2
 2449 0096 1B68     		ldr	r3, [r3]
 2450 0098 002B     		cmp	r3, #0
 2451 009a 1EDA     		bge	.L199
 2452 009c AC23     		movs	r3, #172
 2453 009e FB18     		adds	r3, r7, r3
 2454 00a0 1B68     		ldr	r3, [r3]
 2455 00a2 002B     		cmp	r3, #0
 2456 00a4 0CD0     		beq	.L200
 2457 00a6 9C23     		movs	r3, #156
 2458 00a8 FB18     		adds	r3, r7, r3
 2459 00aa 1B68     		ldr	r3, [r3]
 2460 00ac AC24     		movs	r4, #172
 2461 00ae 3A19     		adds	r2, r7, r4
 2462 00b0 1268     		ldr	r2, [r2]
 2463 00b2 1100     		movs	r1, r2
 2464 00b4 1800     		movs	r0, r3
 2465 00b6 FFF7FEFF 		bl	lwm2m_data_free
 2466 00ba 0023     		movs	r3, #0
 2467 00bc 3A19     		adds	r2, r7, r4
 2468 00be 1360     		str	r3, [r2]
 2469              	.L200:
 2470 00c0 B023     		movs	r3, #176
 2471 00c2 FB18     		adds	r3, r7, r3
 2472 00c4 1B68     		ldr	r3, [r3]
ARM GAS  C:\Users\SONG_J~1\AppData\Local\Temp\ccpfiTpO.s 			page 46


 2473 00c6 002B     		cmp	r3, #0
 2474 00c8 00D1     		bne	.LCB2536
 2475 00ca 8EE0     		b	.L209	@long jump
 2476              	.LCB2536:
 2477 00cc B023     		movs	r3, #176
 2478 00ce FB18     		adds	r3, r7, r3
 2479 00d0 1B68     		ldr	r3, [r3]
 2480 00d2 1800     		movs	r0, r3
 2481 00d4 FFF7FEFF 		bl	lwm2m_free
 2482 00d8 87E0     		b	.L209
 2483              	.L199:
 2484 00da B423     		movs	r3, #180
 2485 00dc FB18     		adds	r3, r7, r3
 2486 00de 1B68     		ldr	r3, [r3]
 2487 00e0 B822     		movs	r2, #184
 2488 00e2 BA18     		adds	r2, r7, r2
 2489 00e4 1360     		str	r3, [r2]
 2490              	.L198:
 2491 00e6 BC23     		movs	r3, #188
 2492 00e8 FB18     		adds	r3, r7, r3
 2493 00ea 1B68     		ldr	r3, [r3]
 2494 00ec 1B79     		ldrb	r3, [r3, #4]
 2495 00ee 002B     		cmp	r3, #0
 2496 00f0 6ED0     		beq	.L203
 2497 00f2 BC20     		movs	r0, #188
 2498 00f4 3B18     		adds	r3, r7, r0
 2499 00f6 1A68     		ldr	r2, [r3]
 2500 00f8 3B68     		ldr	r3, [r7]
 2501 00fa 7C68     		ldr	r4, [r7, #4]
 2502 00fc 1362     		str	r3, [r2, #32]
 2503 00fe 5462     		str	r4, [r2, #36]
 2504 0100 FB68     		ldr	r3, [r7, #12]
 2505 0102 9B8C     		ldrh	r3, [r3, #36]
 2506 0104 5A1C     		adds	r2, r3, #1
 2507 0106 91B2     		uxth	r1, r2
 2508 0108 FA68     		ldr	r2, [r7, #12]
 2509 010a 9184     		strh	r1, [r2, #36]
 2510 010c 3A18     		adds	r2, r7, r0
 2511 010e 1268     		ldr	r2, [r2]
 2512 0110 9385     		strh	r3, [r2, #44]
 2513 0112 A023     		movs	r3, #160
 2514 0114 FB18     		adds	r3, r7, r3
 2515 0116 9B68     		ldr	r3, [r3, #8]
 2516 0118 002B     		cmp	r3, #0
 2517 011a 49D1     		bne	.L204
 2518 011c 1024     		movs	r4, #16
 2519 011e 3819     		adds	r0, r7, r4
 2520 0120 0023     		movs	r3, #0
 2521 0122 4522     		movs	r2, #69
 2522 0124 0121     		movs	r1, #1
 2523 0126 FFF7FEFF 		bl	coap_init_message
 2524 012a BC25     		movs	r5, #188
 2525 012c 7B19     		adds	r3, r7, r5
 2526 012e 1B68     		ldr	r3, [r3]
 2527 0130 1B8A     		ldrh	r3, [r3, #16]
 2528 0132 1A00     		movs	r2, r3
 2529 0134 3B19     		adds	r3, r7, r4
ARM GAS  C:\Users\SONG_J~1\AppData\Local\Temp\ccpfiTpO.s 			page 47


 2530 0136 1100     		movs	r1, r2
 2531 0138 1800     		movs	r0, r3
 2532 013a FFF7FEFF 		bl	coap_set_header_content_type
 2533 013e B023     		movs	r3, #176
 2534 0140 FB18     		adds	r3, r7, r3
 2535 0142 1968     		ldr	r1, [r3]
 2536 0144 B823     		movs	r3, #184
 2537 0146 FB18     		adds	r3, r7, r3
 2538 0148 1A68     		ldr	r2, [r3]
 2539 014a 3B19     		adds	r3, r7, r4
 2540 014c 1800     		movs	r0, r3
 2541 014e FFF7FEFF 		bl	coap_set_payload
 2542 0152 7B19     		adds	r3, r7, r5
 2543 0154 1B68     		ldr	r3, [r3]
 2544 0156 9A8D     		ldrh	r2, [r3, #44]
 2545 0158 2000     		movs	r0, r4
 2546 015a 3B19     		adds	r3, r7, r4
 2547 015c 1A81     		strh	r2, [r3, #8]
 2548 015e 7B19     		adds	r3, r7, r5
 2549 0160 1B68     		ldr	r3, [r3]
 2550 0162 1233     		adds	r3, r3, #18
 2551 0164 1900     		movs	r1, r3
 2552 0166 7B19     		adds	r3, r7, r5
 2553 0168 1B68     		ldr	r3, [r3]
 2554 016a DA69     		ldr	r2, [r3, #28]
 2555 016c 0400     		movs	r4, r0
 2556 016e 3B18     		adds	r3, r7, r0
 2557 0170 1800     		movs	r0, r3
 2558 0172 FFF7FEFF 		bl	coap_set_header_token
 2559 0176 7B19     		adds	r3, r7, r5
 2560 0178 1B68     		ldr	r3, [r3]
 2561 017a 9A6A     		ldr	r2, [r3, #40]
 2562 017c 511C     		adds	r1, r2, #1
 2563 017e 7B19     		adds	r3, r7, r5
 2564 0180 1B68     		ldr	r3, [r3]
 2565 0182 9962     		str	r1, [r3, #40]
 2566 0184 3B19     		adds	r3, r7, r4
 2567 0186 1100     		movs	r1, r2
 2568 0188 1800     		movs	r0, r3
 2569 018a FFF7FEFF 		bl	coap_set_header_observe
 2570 018e 7B19     		adds	r3, r7, r5
 2571 0190 1B68     		ldr	r3, [r3]
 2572 0192 9B68     		ldr	r3, [r3, #8]
 2573 0194 DA69     		ldr	r2, [r3, #28]
 2574 0196 3919     		adds	r1, r7, r4
 2575 0198 FB68     		ldr	r3, [r7, #12]
 2576 019a 1800     		movs	r0, r3
 2577 019c FFF7FEFF 		bl	message_send
 2578 01a0 3B19     		adds	r3, r7, r4
 2579 01a2 1B89     		ldrh	r3, [r3, #8]
 2580 01a4 374A     		ldr	r2, .L211+12
 2581 01a6 3549     		ldr	r1, .L211+4
 2582 01a8 3748     		ldr	r0, .L211+16
 2583 01aa FFF7FEFF 		bl	atiny_printf
 2584 01ae 0FE0     		b	.L203
 2585              	.L204:
 2586 01b0 B023     		movs	r3, #176
ARM GAS  C:\Users\SONG_J~1\AppData\Local\Temp\ccpfiTpO.s 			page 48


 2587 01b2 FB18     		adds	r3, r7, r3
 2588 01b4 1C68     		ldr	r4, [r3]
 2589 01b6 BC23     		movs	r3, #188
 2590 01b8 FB18     		adds	r3, r7, r3
 2591 01ba 1A68     		ldr	r2, [r3]
 2592 01bc A023     		movs	r3, #160
 2593 01be F918     		adds	r1, r7, r3
 2594 01c0 F868     		ldr	r0, [r7, #12]
 2595 01c2 B823     		movs	r3, #184
 2596 01c4 FB18     		adds	r3, r7, r3
 2597 01c6 1B68     		ldr	r3, [r3]
 2598 01c8 0093     		str	r3, [sp]
 2599 01ca 2300     		movs	r3, r4
 2600 01cc FFF7FEFF 		bl	observe_send_transaction
 2601              	.L203:
 2602 01d0 BC22     		movs	r2, #188
 2603 01d2 BB18     		adds	r3, r7, r2
 2604 01d4 1B68     		ldr	r3, [r3]
 2605 01d6 1B68     		ldr	r3, [r3]
 2606 01d8 BA18     		adds	r2, r7, r2
 2607 01da 1360     		str	r3, [r2]
 2608              	.L197:
 2609 01dc BC23     		movs	r3, #188
 2610 01de FB18     		adds	r3, r7, r3
 2611 01e0 1B68     		ldr	r3, [r3]
 2612 01e2 002B     		cmp	r3, #0
 2613 01e4 00D0     		beq	.LCB2693
 2614 01e6 39E7     		b	.L205	@long jump
 2615              	.LCB2693:
 2616 01e8 00E0     		b	.L202
 2617              	.L209:
 2618 01ea C046     		nop
 2619              	.L202:
 2620 01ec AC23     		movs	r3, #172
 2621 01ee FB18     		adds	r3, r7, r3
 2622 01f0 1B68     		ldr	r3, [r3]
 2623 01f2 002B     		cmp	r3, #0
 2624 01f4 0CD0     		beq	.L206
 2625 01f6 9C23     		movs	r3, #156
 2626 01f8 FB18     		adds	r3, r7, r3
 2627 01fa 1B68     		ldr	r3, [r3]
 2628 01fc AC24     		movs	r4, #172
 2629 01fe 3A19     		adds	r2, r7, r4
 2630 0200 1268     		ldr	r2, [r2]
 2631 0202 1100     		movs	r1, r2
 2632 0204 1800     		movs	r0, r3
 2633 0206 FFF7FEFF 		bl	lwm2m_data_free
 2634 020a 0023     		movs	r3, #0
 2635 020c 3A19     		adds	r2, r7, r4
 2636 020e 1360     		str	r3, [r2]
 2637              	.L206:
 2638 0210 B023     		movs	r3, #176
 2639 0212 FB18     		adds	r3, r7, r3
 2640 0214 1B68     		ldr	r3, [r3]
 2641 0216 002B     		cmp	r3, #0
 2642 0218 08D0     		beq	.L196
 2643 021a B024     		movs	r4, #176
ARM GAS  C:\Users\SONG_J~1\AppData\Local\Temp\ccpfiTpO.s 			page 49


 2644 021c 3B19     		adds	r3, r7, r4
 2645 021e 1B68     		ldr	r3, [r3]
 2646 0220 1800     		movs	r0, r3
 2647 0222 FFF7FEFF 		bl	lwm2m_free
 2648 0226 0023     		movs	r3, #0
 2649 0228 3A19     		adds	r2, r7, r4
 2650 022a 1360     		str	r3, [r2]
 2651              	.L196:
 2652 022c BB68     		ldr	r3, [r7, #8]
 2653 022e 191D     		adds	r1, r3, #4
 2654 0230 AC23     		movs	r3, #172
 2655 0232 FC18     		adds	r4, r7, r3
 2656 0234 9C23     		movs	r3, #156
 2657 0236 FA18     		adds	r2, r7, r3
 2658 0238 F868     		ldr	r0, [r7, #12]
 2659 023a 0023     		movs	r3, #0
 2660 023c 0193     		str	r3, [sp, #4]
 2661 023e A023     		movs	r3, #160
 2662 0240 FB18     		adds	r3, r7, r3
 2663 0242 0093     		str	r3, [sp]
 2664 0244 2300     		movs	r3, r4
 2665 0246 FFF7FEFF 		bl	object_readData
 2666 024a 0300     		movs	r3, r0
 2667 024c 452B     		cmp	r3, #69
 2668 024e 00D1     		bne	.LCB2753
 2669 0250 FEE6     		b	.L207	@long jump
 2670              	.LCB2753:
 2671 0252 AC23     		movs	r3, #172
 2672 0254 FB18     		adds	r3, r7, r3
 2673 0256 1B68     		ldr	r3, [r3]
 2674 0258 002B     		cmp	r3, #0
 2675 025a 09D0     		beq	.L210
 2676 025c 9C23     		movs	r3, #156
 2677 025e FB18     		adds	r3, r7, r3
 2678 0260 1B68     		ldr	r3, [r3]
 2679 0262 AC22     		movs	r2, #172
 2680 0264 BA18     		adds	r2, r7, r2
 2681 0266 1268     		ldr	r2, [r2]
 2682 0268 1100     		movs	r1, r2
 2683 026a 1800     		movs	r0, r3
 2684 026c FFF7FEFF 		bl	lwm2m_data_free
 2685              	.L210:
 2686 0270 C046     		nop
 2687 0272 BD46     		mov	sp, r7
 2688 0274 30B0     		add	sp, sp, #192
 2689              		@ sp needed
 2690 0276 B0BD     		pop	{r4, r5, r7, pc}
 2691              	.L212:
 2692              		.align	2
 2693              	.L211:
 2694 0278 37020000 		.word	567
 2695 027c 00000000 		.word	__func__.7198
 2696 0280 50030000 		.word	.LC90
 2697 0284 6A020000 		.word	618
 2698 0288 64030000 		.word	.LC92
 2700              		.section	.rodata
 2701              		.align	2
ARM GAS  C:\Users\SONG_J~1\AppData\Local\Temp\ccpfiTpO.s 			page 50


 2702              	.LC100:
 2703 0388 5B25733A 		.ascii	"[%s:%d] Notify with no conditions\015\012\000"
 2703      25645D20 
 2703      4E6F7469 
 2703      66792077 
 2703      69746820 
 2704              		.align	2
 2705              	.LC102:
 2706 03ac 5B25733A 		.ascii	"[%s:%d] Checking lower threshold\015\012\000"
 2706      25645D20 
 2706      43686563 
 2706      6B696E67 
 2706      206C6F77 
 2707              		.global	__aeabi_l2d
 2708              		.global	__aeabi_dcmple
 2709              		.global	__aeabi_dcmpgt
 2710              		.global	__aeabi_dcmpge
 2711              		.global	__aeabi_dcmplt
 2712 03cf 00       		.align	2
 2713              	.LC104:
 2714 03d0 5B25733A 		.ascii	"[%s:%d] Notify on lower threshold crossing\015\012\000"
 2714      25645D20 
 2714      4E6F7469 
 2714      6679206F 
 2714      6E206C6F 
 2715 03fd 000000   		.align	2
 2716              	.LC106:
 2717 0400 5B25733A 		.ascii	"[%s:%d] Checking upper threshold\015\012\000"
 2717      25645D20 
 2717      43686563 
 2717      6B696E67 
 2717      20757070 
 2718 0423 00       		.align	2
 2719              	.LC108:
 2720 0424 5B25733A 		.ascii	"[%s:%d] Notify on lower upper crossing\015\012\000"
 2720      25645D20 
 2720      4E6F7469 
 2720      6679206F 
 2720      6E206C6F 
 2721 044d 000000   		.align	2
 2722              	.LC110:
 2723 0450 5B25733A 		.ascii	"[%s:%d] Checking step\015\012\000"
 2723      25645D20 
 2723      43686563 
 2723      6B696E67 
 2723      20737465 
 2724              		.align	2
 2725              	.LC112:
 2726 0468 5B25733A 		.ascii	"[%s:%d] Notify on step condition\015\012\000"
 2726      25645D20 
 2726      4E6F7469 
 2726      6679206F 
 2726      6E207374 
 2727              		.global	__aeabi_dsub
 2728 048b 00       		.align	2
 2729              	.LC114:
 2730 048c 5B25733A 		.ascii	"[%s:%d] Checking minimal period (%d s)\015\012\000"
ARM GAS  C:\Users\SONG_J~1\AppData\Local\Temp\ccpfiTpO.s 			page 51


 2730      25645D20 
 2730      43686563 
 2730      6B696E67 
 2730      206D696E 
 2731 04b5 000000   		.align	2
 2732              	.LC116:
 2733 04b8 5B25733A 		.ascii	"[%s:%d] Notify on minimal period\015\012\000"
 2733      25645D20 
 2733      4E6F7469 
 2733      6679206F 
 2733      6E206D69 
 2734 04db 00       		.align	2
 2735              	.LC118:
 2736 04dc 5B25733A 		.ascii	"[%s:%d] Checking maximal period (%d s)\015\012\000"
 2736      25645D20 
 2736      43686563 
 2736      6B696E67 
 2736      206D6178 
 2737 0505 000000   		.align	2
 2738              	.LC120:
 2739 0508 5B25733A 		.ascii	"[%s:%d] Notify on maximal period\015\012\000"
 2739      25645D20 
 2739      4E6F7469 
 2739      6679206F 
 2739      6E206D61 
 2740 052b 00       		.align	2
 2741              	.LC122:
 2742 052c 5B25733A 		.ascii	"[%s:%d] non observe, msgid:\015\012\000"
 2742      25645D20 
 2742      6E6F6E20 
 2742      6F627365 
 2742      7276652C 
 2743              		.section	.text.observe_step,"ax",%progbits
 2744              		.align	1
 2745              		.global	observe_step
 2746              		.syntax unified
 2747              		.code	16
 2748              		.thumb_func
 2749              		.fpu softvfp
 2751              	observe_step:
 2752              		@ args = 4, pretend = 0, frame = 280
 2753              		@ frame_needed = 1, uses_anonymous_args = 0
 2754 0000 F0B5     		push	{r4, r5, r6, r7, lr}
 2755 0002 C646     		mov	lr, r8
 2756 0004 00B5     		push	{lr}
 2757 0006 C8B0     		sub	sp, sp, #288
 2758 0008 02AF     		add	r7, sp, #8
 2759 000a F862     		str	r0, [r7, #44]
 2760 000c 3A62     		str	r2, [r7, #32]
 2761 000e 7B62     		str	r3, [r7, #36]
 2762 0010 E34A     		ldr	r2, .L330
 2763 0012 E449     		ldr	r1, .L330+4
 2764 0014 E44B     		ldr	r3, .L330+8
 2765 0016 1800     		movs	r0, r3
 2766 0018 FFF7FEFF 		bl	atiny_printf
 2767 001c FB6A     		ldr	r3, [r7, #44]
 2768 001e DB69     		ldr	r3, [r3, #28]
ARM GAS  C:\Users\SONG_J~1\AppData\Local\Temp\ccpfiTpO.s 			page 52


 2769 0020 F422     		movs	r2, #244
 2770 0022 1821     		movs	r1, #24
 2771 0024 8C46     		mov	ip, r1
 2772 0026 0821     		movs	r1, #8
 2773 0028 8846     		mov	r8, r1
 2774 002a B844     		add	r8, r8, r7
 2775 002c C444     		add	ip, ip, r8
 2776 002e 6244     		add	r2, r2, ip
 2777 0030 1360     		str	r3, [r2]
 2778 0032 01F003FB 		bl	.L214	@ far jump
 2779              	.L307:
 2780 0036 0023     		movs	r3, #0
 2781 0038 C822     		movs	r2, #200
 2782 003a 1821     		movs	r1, #24
 2783 003c 8C46     		mov	ip, r1
 2784 003e 0821     		movs	r1, #8
 2785 0040 8846     		mov	r8, r1
 2786 0042 B844     		add	r8, r8, r7
 2787 0044 C444     		add	ip, ip, r8
 2788 0046 6244     		add	r2, r2, ip
 2789 0048 1360     		str	r3, [r2]
 2790 004a 0023     		movs	r3, #0
 2791 004c C422     		movs	r2, #196
 2792 004e 1821     		movs	r1, #24
 2793 0050 8C46     		mov	ip, r1
 2794 0052 0821     		movs	r1, #8
 2795 0054 8846     		mov	r8, r1
 2796 0056 B844     		add	r8, r8, r7
 2797 0058 C444     		add	ip, ip, r8
 2798 005a 6244     		add	r2, r2, ip
 2799 005c 1360     		str	r3, [r2]
 2800 005e 0023     		movs	r3, #0
 2801 0060 C022     		movs	r2, #192
 2802 0062 1821     		movs	r1, #24
 2803 0064 8C46     		mov	ip, r1
 2804 0066 0821     		movs	r1, #8
 2805 0068 8846     		mov	r8, r1
 2806 006a B844     		add	r8, r8, r7
 2807 006c C444     		add	ip, ip, r8
 2808 006e 6244     		add	r2, r2, ip
 2809 0070 1360     		str	r3, [r2]
 2810 0072 B421     		movs	r1, #180
 2811 0074 1820     		movs	r0, #24
 2812 0076 0823     		movs	r3, #8
 2813 0078 FB18     		adds	r3, r7, r3
 2814 007a 1B18     		adds	r3, r3, r0
 2815 007c 5B18     		adds	r3, r3, r1
 2816 007e 0022     		movs	r2, #0
 2817 0080 1A60     		str	r2, [r3]
 2818 0082 0823     		movs	r3, #8
 2819 0084 FB18     		adds	r3, r7, r3
 2820 0086 1B18     		adds	r3, r3, r0
 2821 0088 5B18     		adds	r3, r3, r1
 2822 008a 0022     		movs	r2, #0
 2823 008c 5A60     		str	r2, [r3, #4]
 2824 008e 0823     		movs	r3, #8
 2825 0090 FB18     		adds	r3, r7, r3
ARM GAS  C:\Users\SONG_J~1\AppData\Local\Temp\ccpfiTpO.s 			page 53


 2826 0092 1B18     		adds	r3, r3, r0
 2827 0094 5B18     		adds	r3, r3, r1
 2828 0096 0022     		movs	r2, #0
 2829 0098 9A60     		str	r2, [r3, #8]
 2830 009a 0023     		movs	r3, #0
 2831 009c B022     		movs	r2, #176
 2832 009e 1821     		movs	r1, #24
 2833 00a0 8C46     		mov	ip, r1
 2834 00a2 0821     		movs	r1, #8
 2835 00a4 8846     		mov	r8, r1
 2836 00a6 B844     		add	r8, r8, r7
 2837 00a8 C444     		add	ip, ip, r8
 2838 00aa 6244     		add	r2, r2, ip
 2839 00ac 1360     		str	r3, [r2]
 2840 00ae 0023     		movs	r3, #0
 2841 00b0 0024     		movs	r4, #0
 2842 00b2 A822     		movs	r2, #168
 2843 00b4 1821     		movs	r1, #24
 2844 00b6 8C46     		mov	ip, r1
 2845 00b8 0821     		movs	r1, #8
 2846 00ba 8846     		mov	r8, r1
 2847 00bc B844     		add	r8, r8, r7
 2848 00be C444     		add	ip, ip, r8
 2849 00c0 6244     		add	r2, r2, ip
 2850 00c2 1360     		str	r3, [r2]
 2851 00c4 5460     		str	r4, [r2, #4]
 2852 00c6 0023     		movs	r3, #0
 2853 00c8 0024     		movs	r4, #0
 2854 00ca A022     		movs	r2, #160
 2855 00cc 1821     		movs	r1, #24
 2856 00ce 8C46     		mov	ip, r1
 2857 00d0 0821     		movs	r1, #8
 2858 00d2 8846     		mov	r8, r1
 2859 00d4 B844     		add	r8, r8, r7
 2860 00d6 C444     		add	ip, ip, r8
 2861 00d8 6244     		add	r2, r2, ip
 2862 00da 1360     		str	r3, [r2]
 2863 00dc 5460     		str	r4, [r2, #4]
 2864 00de EF23     		movs	r3, #239
 2865 00e0 1822     		movs	r2, #24
 2866 00e2 9446     		mov	ip, r2
 2867 00e4 0822     		movs	r2, #8
 2868 00e6 9046     		mov	r8, r2
 2869 00e8 B844     		add	r8, r8, r7
 2870 00ea C444     		add	ip, ip, r8
 2871 00ec 6344     		add	r3, r3, ip
 2872 00ee 0022     		movs	r2, #0
 2873 00f0 1A70     		strb	r2, [r3]
 2874 00f2 F423     		movs	r3, #244
 2875 00f4 1822     		movs	r2, #24
 2876 00f6 9446     		mov	ip, r2
 2877 00f8 0822     		movs	r2, #8
 2878 00fa 9046     		mov	r8, r2
 2879 00fc B844     		add	r8, r8, r7
 2880 00fe C444     		add	ip, ip, r8
 2881 0100 6344     		add	r3, r3, ip
 2882 0102 1B68     		ldr	r3, [r3]
ARM GAS  C:\Users\SONG_J~1\AppData\Local\Temp\ccpfiTpO.s 			page 54


 2883 0104 0433     		adds	r3, r3, #4
 2884 0106 002B     		cmp	r3, #0
 2885 0108 06D1     		bne	.L215
 2886 010a A84A     		ldr	r2, .L330+12
 2887 010c A549     		ldr	r1, .L330+4
 2888 010e A84B     		ldr	r3, .L330+16
 2889 0110 1800     		movs	r0, r3
 2890 0112 FFF7FEFF 		bl	atiny_printf
 2891 0116 4AE0     		b	.L216
 2892              	.L215:
 2893 0118 F424     		movs	r4, #244
 2894 011a 1823     		movs	r3, #24
 2895 011c 0822     		movs	r2, #8
 2896 011e BA18     		adds	r2, r7, r2
 2897 0120 D218     		adds	r2, r2, r3
 2898 0122 1319     		adds	r3, r2, r4
 2899 0124 1B68     		ldr	r3, [r3]
 2900 0126 DB88     		ldrh	r3, [r3, #6]
 2901 0128 A04A     		ldr	r2, .L330+12
 2902 012a 9E49     		ldr	r1, .L330+4
 2903 012c A148     		ldr	r0, .L330+20
 2904 012e FFF7FEFF 		bl	atiny_printf
 2905 0132 1823     		movs	r3, #24
 2906 0134 0822     		movs	r2, #8
 2907 0136 9446     		mov	ip, r2
 2908 0138 BC44     		add	ip, ip, r7
 2909 013a 6344     		add	r3, r3, ip
 2910 013c 1B19     		adds	r3, r3, r4
 2911 013e 1B68     		ldr	r3, [r3]
 2912 0140 1B79     		ldrb	r3, [r3, #4]
 2913 0142 1A00     		movs	r2, r3
 2914 0144 0223     		movs	r3, #2
 2915 0146 1340     		ands	r3, r2
 2916 0148 0FD0     		beq	.L217
 2917 014a F423     		movs	r3, #244
 2918 014c 1822     		movs	r2, #24
 2919 014e 9446     		mov	ip, r2
 2920 0150 0822     		movs	r2, #8
 2921 0152 9046     		mov	r8, r2
 2922 0154 B844     		add	r8, r8, r7
 2923 0156 C444     		add	ip, ip, r8
 2924 0158 6344     		add	r3, r3, ip
 2925 015a 1B68     		ldr	r3, [r3]
 2926 015c 1B89     		ldrh	r3, [r3, #8]
 2927 015e 1A00     		movs	r2, r3
 2928 0160 954B     		ldr	r3, .L330+24
 2929 0162 1100     		movs	r1, r2
 2930 0164 1800     		movs	r0, r3
 2931 0166 FFF7FEFF 		bl	atiny_printf
 2932              	.L217:
 2933 016a F423     		movs	r3, #244
 2934 016c 1822     		movs	r2, #24
 2935 016e 9446     		mov	ip, r2
 2936 0170 0822     		movs	r2, #8
 2937 0172 9046     		mov	r8, r2
 2938 0174 B844     		add	r8, r8, r7
 2939 0176 C444     		add	ip, ip, r8
ARM GAS  C:\Users\SONG_J~1\AppData\Local\Temp\ccpfiTpO.s 			page 55


 2940 0178 6344     		add	r3, r3, ip
 2941 017a 1B68     		ldr	r3, [r3]
 2942 017c 1B79     		ldrb	r3, [r3, #4]
 2943 017e 1A00     		movs	r2, r3
 2944 0180 0123     		movs	r3, #1
 2945 0182 1340     		ands	r3, r2
 2946 0184 0FD0     		beq	.L218
 2947 0186 F423     		movs	r3, #244
 2948 0188 1822     		movs	r2, #24
 2949 018a 9446     		mov	ip, r2
 2950 018c 0822     		movs	r2, #8
 2951 018e 9046     		mov	r8, r2
 2952 0190 B844     		add	r8, r8, r7
 2953 0192 C444     		add	ip, ip, r8
 2954 0194 6344     		add	r3, r3, ip
 2955 0196 1B68     		ldr	r3, [r3]
 2956 0198 5B89     		ldrh	r3, [r3, #10]
 2957 019a 1A00     		movs	r2, r3
 2958 019c 864B     		ldr	r3, .L330+24
 2959 019e 1100     		movs	r1, r2
 2960 01a0 1800     		movs	r0, r3
 2961 01a2 FFF7FEFF 		bl	atiny_printf
 2962              	.L218:
 2963 01a6 854B     		ldr	r3, .L330+28
 2964 01a8 1800     		movs	r0, r3
 2965 01aa FFF7FEFF 		bl	atiny_printf
 2966              	.L216:
 2967 01ae F423     		movs	r3, #244
 2968 01b0 1822     		movs	r2, #24
 2969 01b2 9446     		mov	ip, r2
 2970 01b4 0822     		movs	r2, #8
 2971 01b6 9046     		mov	r8, r2
 2972 01b8 B844     		add	r8, r8, r7
 2973 01ba C444     		add	ip, ip, r8
 2974 01bc 6344     		add	r3, r3, ip
 2975 01be 1B68     		ldr	r3, [r3]
 2976 01c0 0433     		adds	r3, r3, #4
 2977 01c2 1800     		movs	r0, r3
 2978 01c4 FFF7FEFF 		bl	dm_isUriOpaqueHandle
 2979 01c8 031E     		subs	r3, r0, #0
 2980 01ca 1ED0     		beq	.L219
 2981 01cc 3B6A     		ldr	r3, [r7, #32]
 2982 01ce 7C6A     		ldr	r4, [r7, #36]
 2983 01d0 3B60     		str	r3, [r7]
 2984 01d2 7C60     		str	r4, [r7, #4]
 2985 01d4 F422     		movs	r2, #244
 2986 01d6 1823     		movs	r3, #24
 2987 01d8 9C46     		mov	ip, r3
 2988 01da 0823     		movs	r3, #8
 2989 01dc 9846     		mov	r8, r3
 2990 01de B844     		add	r8, r8, r7
 2991 01e0 C444     		add	ip, ip, r8
 2992 01e2 6244     		add	r2, r2, ip
 2993 01e4 1168     		ldr	r1, [r2]
 2994 01e6 F86A     		ldr	r0, [r7, #44]
 2995 01e8 8822     		movs	r2, #136
 2996 01ea 5200     		lsls	r2, r2, #1
ARM GAS  C:\Users\SONG_J~1\AppData\Local\Temp\ccpfiTpO.s 			page 56


 2997 01ec 1823     		movs	r3, #24
 2998 01ee 9C46     		mov	ip, r3
 2999 01f0 0823     		movs	r3, #8
 3000 01f2 9846     		mov	r8, r3
 3001 01f4 B844     		add	r8, r8, r7
 3002 01f6 C444     		add	ip, ip, r8
 3003 01f8 6244     		add	r2, r2, ip
 3004 01fa 1268     		ldr	r2, [r2]
 3005 01fc 0092     		str	r2, [sp]
 3006 01fe 3A68     		ldr	r2, [r7]
 3007 0200 7B68     		ldr	r3, [r7, #4]
 3008 0202 FFF7FEFF 		bl	observe_app_step
 3009 0206 01F008FA 		bl	.L306	@ far jump
 3010              	.L219:
 3011 020a B423     		movs	r3, #180
 3012 020c 1822     		movs	r2, #24
 3013 020e 9446     		mov	ip, r2
 3014 0210 0822     		movs	r2, #8
 3015 0212 9046     		mov	r8, r2
 3016 0214 B844     		add	r8, r8, r7
 3017 0216 C444     		add	ip, ip, r8
 3018 0218 6344     		add	r3, r3, ip
 3019 021a 0022     		movs	r2, #0
 3020 021c 9A60     		str	r2, [r3, #8]
 3021 021e F423     		movs	r3, #244
 3022 0220 1822     		movs	r2, #24
 3023 0222 9446     		mov	ip, r2
 3024 0224 0822     		movs	r2, #8
 3025 0226 9046     		mov	r8, r2
 3026 0228 B844     		add	r8, r8, r7
 3027 022a C444     		add	ip, ip, r8
 3028 022c 6344     		add	r3, r3, ip
 3029 022e 1B68     		ldr	r3, [r3]
 3030 0230 1B79     		ldrb	r3, [r3, #4]
 3031 0232 1A00     		movs	r2, r3
 3032 0234 0123     		movs	r3, #1
 3033 0236 1340     		ands	r3, r2
 3034 0238 00D1     		bne	.LCB3091
 3035 023a C1E0     		b	.L322	@long jump
 3036              	.LCB3091:
 3037 023c F423     		movs	r3, #244
 3038 023e 1822     		movs	r2, #24
 3039 0240 9446     		mov	ip, r2
 3040 0242 0822     		movs	r2, #8
 3041 0244 9046     		mov	r8, r2
 3042 0246 B844     		add	r8, r8, r7
 3043 0248 C444     		add	ip, ip, r8
 3044 024a 6344     		add	r3, r3, ip
 3045 024c 1B68     		ldr	r3, [r3]
 3046 024e 191D     		adds	r1, r3, #4
 3047 0250 C023     		movs	r3, #192
 3048 0252 1822     		movs	r2, #24
 3049 0254 0820     		movs	r0, #8
 3050 0256 3818     		adds	r0, r7, r0
 3051 0258 8018     		adds	r0, r0, r2
 3052 025a C418     		adds	r4, r0, r3
 3053 025c B023     		movs	r3, #176
ARM GAS  C:\Users\SONG_J~1\AppData\Local\Temp\ccpfiTpO.s 			page 57


 3054 025e 0820     		movs	r0, #8
 3055 0260 8446     		mov	ip, r0
 3056 0262 BC44     		add	ip, ip, r7
 3057 0264 6244     		add	r2, r2, ip
 3058 0266 D218     		adds	r2, r2, r3
 3059 0268 F86A     		ldr	r0, [r7, #44]
 3060 026a 0023     		movs	r3, #0
 3061 026c 0193     		str	r3, [sp, #4]
 3062 026e B423     		movs	r3, #180
 3063 0270 3B60     		str	r3, [r7]
 3064 0272 1823     		movs	r3, #24
 3065 0274 9C46     		mov	ip, r3
 3066 0276 0823     		movs	r3, #8
 3067 0278 9846     		mov	r8, r3
 3068 027a B844     		add	r8, r8, r7
 3069 027c C444     		add	ip, ip, r8
 3070 027e 3B68     		ldr	r3, [r7]
 3071 0280 6344     		add	r3, r3, ip
 3072 0282 0093     		str	r3, [sp]
 3073 0284 2300     		movs	r3, r4
 3074 0286 FFF7FEFF 		bl	object_readData
 3075 028a 0300     		movs	r3, r0
 3076 028c 452B     		cmp	r3, #69
 3077 028e 01D0     		beq	.LCB3133
 3078 0290 01F0C2F9 		bl	.L323	@far jump
 3079              	.LCB3133:
 3080 0294 C023     		movs	r3, #192
 3081 0296 1822     		movs	r2, #24
 3082 0298 9446     		mov	ip, r2
 3083 029a 0822     		movs	r2, #8
 3084 029c 9046     		mov	r8, r2
 3085 029e B844     		add	r8, r8, r7
 3086 02a0 C444     		add	ip, ip, r8
 3087 02a2 6344     		add	r3, r3, ip
 3088 02a4 1B68     		ldr	r3, [r3]
 3089 02a6 1B78     		ldrb	r3, [r3]
 3090 02a8 062B     		cmp	r3, #6
 3091 02aa 02D0     		beq	.L224
 3092 02ac 072B     		cmp	r3, #7
 3093 02ae 3BD0     		beq	.L225
 3094 02b0 87E0     		b	.L221
 3095              	.L224:
 3096 02b2 C023     		movs	r3, #192
 3097 02b4 1822     		movs	r2, #24
 3098 02b6 9446     		mov	ip, r2
 3099 02b8 0822     		movs	r2, #8
 3100 02ba 9046     		mov	r8, r2
 3101 02bc B844     		add	r8, r8, r7
 3102 02be C444     		add	ip, ip, r8
 3103 02c0 6344     		add	r3, r3, ip
 3104 02c2 1B68     		ldr	r3, [r3]
 3105 02c4 A022     		movs	r2, #160
 3106 02c6 1821     		movs	r1, #24
 3107 02c8 8C46     		mov	ip, r1
 3108 02ca 0821     		movs	r1, #8
 3109 02cc 8846     		mov	r8, r1
 3110 02ce B844     		add	r8, r8, r7
ARM GAS  C:\Users\SONG_J~1\AppData\Local\Temp\ccpfiTpO.s 			page 58


 3111 02d0 C444     		add	ip, ip, r8
 3112 02d2 6244     		add	r2, r2, ip
 3113 02d4 1100     		movs	r1, r2
 3114 02d6 1800     		movs	r0, r3
 3115 02d8 FFF7FEFF 		bl	lwm2m_data_decode_int
 3116 02dc 0300     		movs	r3, r0
 3117 02de 012B     		cmp	r3, #1
 3118 02e0 17D0     		beq	.L226
 3119 02e2 B023     		movs	r3, #176
 3120 02e4 1822     		movs	r2, #24
 3121 02e6 9446     		mov	ip, r2
 3122 02e8 0822     		movs	r2, #8
 3123 02ea 9046     		mov	r8, r2
 3124 02ec B844     		add	r8, r8, r7
 3125 02ee C444     		add	ip, ip, r8
 3126 02f0 6344     		add	r3, r3, ip
 3127 02f2 1B68     		ldr	r3, [r3]
 3128 02f4 C022     		movs	r2, #192
 3129 02f6 1821     		movs	r1, #24
 3130 02f8 8C46     		mov	ip, r1
 3131 02fa 0821     		movs	r1, #8
 3132 02fc 8846     		mov	r8, r1
 3133 02fe B844     		add	r8, r8, r7
 3134 0300 C444     		add	ip, ip, r8
 3135 0302 6244     		add	r2, r2, ip
 3136 0304 1268     		ldr	r2, [r2]
 3137 0306 1100     		movs	r1, r2
 3138 0308 1800     		movs	r0, r3
 3139 030a FFF7FEFF 		bl	lwm2m_data_free
 3140 030e 01F084F9 		bl	.L306	@ far jump
 3141              	.L226:
 3142 0312 EF23     		movs	r3, #239
 3143 0314 1822     		movs	r2, #24
 3144 0316 9446     		mov	ip, r2
 3145 0318 0822     		movs	r2, #8
 3146 031a 9046     		mov	r8, r2
 3147 031c B844     		add	r8, r8, r7
 3148 031e C444     		add	ip, ip, r8
 3149 0320 6344     		add	r3, r3, ip
 3150 0322 0122     		movs	r2, #1
 3151 0324 1A70     		strb	r2, [r3]
 3152 0326 4CE0     		b	.L221
 3153              	.L225:
 3154 0328 C023     		movs	r3, #192
 3155 032a 1822     		movs	r2, #24
 3156 032c 9446     		mov	ip, r2
 3157 032e 0822     		movs	r2, #8
 3158 0330 9046     		mov	r8, r2
 3159 0332 B844     		add	r8, r8, r7
 3160 0334 C444     		add	ip, ip, r8
 3161 0336 6344     		add	r3, r3, ip
 3162 0338 1B68     		ldr	r3, [r3]
 3163 033a A822     		movs	r2, #168
 3164 033c 1821     		movs	r1, #24
 3165 033e 8C46     		mov	ip, r1
 3166 0340 0821     		movs	r1, #8
 3167 0342 8846     		mov	r8, r1
ARM GAS  C:\Users\SONG_J~1\AppData\Local\Temp\ccpfiTpO.s 			page 59


 3168 0344 B844     		add	r8, r8, r7
 3169 0346 C444     		add	ip, ip, r8
 3170 0348 6244     		add	r2, r2, ip
 3171 034a 1100     		movs	r1, r2
 3172 034c 1800     		movs	r0, r3
 3173 034e FFF7FEFF 		bl	lwm2m_data_decode_float
 3174 0352 0300     		movs	r3, r0
 3175 0354 012B     		cmp	r3, #1
 3176 0356 17D0     		beq	.L227
 3177 0358 B023     		movs	r3, #176
 3178 035a 1822     		movs	r2, #24
 3179 035c 9446     		mov	ip, r2
 3180 035e 0822     		movs	r2, #8
 3181 0360 9046     		mov	r8, r2
 3182 0362 B844     		add	r8, r8, r7
 3183 0364 C444     		add	ip, ip, r8
 3184 0366 6344     		add	r3, r3, ip
 3185 0368 1B68     		ldr	r3, [r3]
 3186 036a C022     		movs	r2, #192
 3187 036c 1821     		movs	r1, #24
 3188 036e 8C46     		mov	ip, r1
 3189 0370 0821     		movs	r1, #8
 3190 0372 8846     		mov	r8, r1
 3191 0374 B844     		add	r8, r8, r7
 3192 0376 C444     		add	ip, ip, r8
 3193 0378 6244     		add	r2, r2, ip
 3194 037a 1268     		ldr	r2, [r2]
 3195 037c 1100     		movs	r1, r2
 3196 037e 1800     		movs	r0, r3
 3197 0380 FFF7FEFF 		bl	lwm2m_data_free
 3198 0384 01F049F9 		bl	.L306	@ far jump
 3199              	.L227:
 3200 0388 EF23     		movs	r3, #239
 3201 038a 1822     		movs	r2, #24
 3202 038c 9446     		mov	ip, r2
 3203 038e 0822     		movs	r2, #8
 3204 0390 9046     		mov	r8, r2
 3205 0392 B844     		add	r8, r8, r7
 3206 0394 C444     		add	ip, ip, r8
 3207 0396 6344     		add	r3, r3, ip
 3208 0398 0122     		movs	r2, #1
 3209 039a 1A70     		strb	r2, [r3]
 3210 039c 11E0     		b	.L221
 3211              	.L331:
 3212 039e C046     		.align	2
 3213              	.L330:
 3214 03a0 8B020000 		.word	651
 3215 03a4 00000000 		.word	__func__.7219
 3216 03a8 50030000 		.word	.LC90
 3217 03ac 9A020000 		.word	666
 3218 03b0 70010000 		.word	.LC36
 3219 03b4 80010000 		.word	.LC38
 3220 03b8 8C010000 		.word	.LC40
 3221 03bc 90010000 		.word	.LC42
 3222              	.L322:
 3223 03c0 C046     		nop
 3224              	.L221:
ARM GAS  C:\Users\SONG_J~1\AppData\Local\Temp\ccpfiTpO.s 			page 60


 3225 03c2 F423     		movs	r3, #244
 3226 03c4 1822     		movs	r2, #24
 3227 03c6 9446     		mov	ip, r2
 3228 03c8 0822     		movs	r2, #8
 3229 03ca 9046     		mov	r8, r2
 3230 03cc B844     		add	r8, r8, r7
 3231 03ce C444     		add	ip, ip, r8
 3232 03d0 6344     		add	r3, r3, ip
 3233 03d2 1B68     		ldr	r3, [r3]
 3234 03d4 DB68     		ldr	r3, [r3, #12]
 3235 03d6 F022     		movs	r2, #240
 3236 03d8 1821     		movs	r1, #24
 3237 03da 8C46     		mov	ip, r1
 3238 03dc 0821     		movs	r1, #8
 3239 03de 8846     		mov	r8, r1
 3240 03e0 B844     		add	r8, r8, r7
 3241 03e2 C444     		add	ip, ip, r8
 3242 03e4 6244     		add	r2, r2, ip
 3243 03e6 1360     		str	r3, [r2]
 3244 03e8 01F0C9F8 		bl	.L228	@ far jump
 3245              	.L303:
 3246 03ec F023     		movs	r3, #240
 3247 03ee 1822     		movs	r2, #24
 3248 03f0 9446     		mov	ip, r2
 3249 03f2 0822     		movs	r2, #8
 3250 03f4 9046     		mov	r8, r2
 3251 03f6 B844     		add	r8, r8, r7
 3252 03f8 C444     		add	ip, ip, r8
 3253 03fa 6344     		add	r3, r3, ip
 3254 03fc 1B68     		ldr	r3, [r3]
 3255 03fe 1B79     		ldrb	r3, [r3, #4]
 3256 0400 002B     		cmp	r3, #0
 3257 0402 01D1     		bne	.LCB3326
 3258 0404 01F0AAF8 		bl	.L229	@far jump
 3259              	.LCB3326:
 3260 0408 EE23     		movs	r3, #238
 3261 040a 1822     		movs	r2, #24
 3262 040c 9446     		mov	ip, r2
 3263 040e 0822     		movs	r2, #8
 3264 0410 9046     		mov	r8, r2
 3265 0412 B844     		add	r8, r8, r7
 3266 0414 C444     		add	ip, ip, r8
 3267 0416 6344     		add	r3, r3, ip
 3268 0418 0022     		movs	r2, #0
 3269 041a 1A70     		strb	r2, [r3]
 3270 041c F023     		movs	r3, #240
 3271 041e 1822     		movs	r2, #24
 3272 0420 9446     		mov	ip, r2
 3273 0422 0822     		movs	r2, #8
 3274 0424 9046     		mov	r8, r2
 3275 0426 B844     		add	r8, r8, r7
 3276 0428 C444     		add	ip, ip, r8
 3277 042a 6344     		add	r3, r3, ip
 3278 042c 1B68     		ldr	r3, [r3]
 3279 042e 5B79     		ldrb	r3, [r3, #5]
 3280 0430 002B     		cmp	r3, #0
 3281 0432 01D1     		bne	.LCB3348
ARM GAS  C:\Users\SONG_J~1\AppData\Local\Temp\ccpfiTpO.s 			page 61


 3282 0434 00F080FD 		bl	.L230	@far jump
 3283              	.LCB3348:
 3284 0438 F023     		movs	r3, #240
 3285 043a 1822     		movs	r2, #24
 3286 043c 9446     		mov	ip, r2
 3287 043e 0822     		movs	r2, #8
 3288 0440 9046     		mov	r8, r2
 3289 0442 B844     		add	r8, r8, r7
 3290 0444 C444     		add	ip, ip, r8
 3291 0446 6344     		add	r3, r3, ip
 3292 0448 1B68     		ldr	r3, [r3]
 3293 044a DB68     		ldr	r3, [r3, #12]
 3294 044c 002B     		cmp	r3, #0
 3295 044e 0DD0     		beq	.L231
 3296 0450 F023     		movs	r3, #240
 3297 0452 1822     		movs	r2, #24
 3298 0454 9446     		mov	ip, r2
 3299 0456 0822     		movs	r2, #8
 3300 0458 9046     		mov	r8, r2
 3301 045a B844     		add	r8, r8, r7
 3302 045c C444     		add	ip, ip, r8
 3303 045e 6344     		add	r3, r3, ip
 3304 0460 1B68     		ldr	r3, [r3]
 3305 0462 DB68     		ldr	r3, [r3, #12]
 3306 0464 1B78     		ldrb	r3, [r3]
 3307 0466 002B     		cmp	r3, #0
 3308 0468 00D0     		beq	.LCB3373
 3309 046a 74E0     		b	.L232	@long jump
 3310              	.LCB3373:
 3311              	.L231:
 3312 046c EE23     		movs	r3, #238
 3313 046e 1822     		movs	r2, #24
 3314 0470 9446     		mov	ip, r2
 3315 0472 0822     		movs	r2, #8
 3316 0474 9046     		mov	r8, r2
 3317 0476 B844     		add	r8, r8, r7
 3318 0478 C444     		add	ip, ip, r8
 3319 047a 6344     		add	r3, r3, ip
 3320 047c 0122     		movs	r2, #1
 3321 047e 1A70     		strb	r2, [r3]
 3322 0480 D14A     		ldr	r2, .L332
 3323 0482 D249     		ldr	r1, .L332+4
 3324 0484 D24B     		ldr	r3, .L332+8
 3325 0486 1800     		movs	r0, r3
 3326 0488 FFF7FEFF 		bl	atiny_printf
 3327 048c F423     		movs	r3, #244
 3328 048e 1822     		movs	r2, #24
 3329 0490 9446     		mov	ip, r2
 3330 0492 0822     		movs	r2, #8
 3331 0494 9046     		mov	r8, r2
 3332 0496 B844     		add	r8, r8, r7
 3333 0498 C444     		add	ip, ip, r8
 3334 049a 6344     		add	r3, r3, ip
 3335 049c 1B68     		ldr	r3, [r3]
 3336 049e 0433     		adds	r3, r3, #4
 3337 04a0 002B     		cmp	r3, #0
 3338 04a2 07D1     		bne	.L233
ARM GAS  C:\Users\SONG_J~1\AppData\Local\Temp\ccpfiTpO.s 			page 62


 3339 04a4 B323     		movs	r3, #179
 3340 04a6 9A00     		lsls	r2, r3, #2
 3341 04a8 C849     		ldr	r1, .L332+4
 3342 04aa CA4B     		ldr	r3, .L332+12
 3343 04ac 1800     		movs	r0, r3
 3344 04ae FFF7FEFF 		bl	atiny_printf
 3345 04b2 50E0     		b	.L232
 3346              	.L233:
 3347 04b4 F423     		movs	r3, #244
 3348 04b6 1822     		movs	r2, #24
 3349 04b8 0821     		movs	r1, #8
 3350 04ba 8C46     		mov	ip, r1
 3351 04bc BC44     		add	ip, ip, r7
 3352 04be 6244     		add	r2, r2, ip
 3353 04c0 D218     		adds	r2, r2, r3
 3354 04c2 1368     		ldr	r3, [r2]
 3355 04c4 DB88     		ldrh	r3, [r3, #6]
 3356 04c6 1C00     		movs	r4, r3
 3357 04c8 B323     		movs	r3, #179
 3358 04ca 9A00     		lsls	r2, r3, #2
 3359 04cc BF49     		ldr	r1, .L332+4
 3360 04ce C248     		ldr	r0, .L332+16
 3361 04d0 2300     		movs	r3, r4
 3362 04d2 FFF7FEFF 		bl	atiny_printf
 3363 04d6 F423     		movs	r3, #244
 3364 04d8 1822     		movs	r2, #24
 3365 04da 9446     		mov	ip, r2
 3366 04dc 0822     		movs	r2, #8
 3367 04de 9046     		mov	r8, r2
 3368 04e0 B844     		add	r8, r8, r7
 3369 04e2 C444     		add	ip, ip, r8
 3370 04e4 6344     		add	r3, r3, ip
 3371 04e6 1B68     		ldr	r3, [r3]
 3372 04e8 1B79     		ldrb	r3, [r3, #4]
 3373 04ea 1A00     		movs	r2, r3
 3374 04ec 0223     		movs	r3, #2
 3375 04ee 1340     		ands	r3, r2
 3376 04f0 0FD0     		beq	.L234
 3377 04f2 F423     		movs	r3, #244
 3378 04f4 1822     		movs	r2, #24
 3379 04f6 9446     		mov	ip, r2
 3380 04f8 0822     		movs	r2, #8
 3381 04fa 9046     		mov	r8, r2
 3382 04fc B844     		add	r8, r8, r7
 3383 04fe C444     		add	ip, ip, r8
 3384 0500 6344     		add	r3, r3, ip
 3385 0502 1B68     		ldr	r3, [r3]
 3386 0504 1B89     		ldrh	r3, [r3, #8]
 3387 0506 1A00     		movs	r2, r3
 3388 0508 B44B     		ldr	r3, .L332+20
 3389 050a 1100     		movs	r1, r2
 3390 050c 1800     		movs	r0, r3
 3391 050e FFF7FEFF 		bl	atiny_printf
 3392              	.L234:
 3393 0512 F423     		movs	r3, #244
 3394 0514 1822     		movs	r2, #24
 3395 0516 9446     		mov	ip, r2
ARM GAS  C:\Users\SONG_J~1\AppData\Local\Temp\ccpfiTpO.s 			page 63


 3396 0518 0822     		movs	r2, #8
 3397 051a 9046     		mov	r8, r2
 3398 051c B844     		add	r8, r8, r7
 3399 051e C444     		add	ip, ip, r8
 3400 0520 6344     		add	r3, r3, ip
 3401 0522 1B68     		ldr	r3, [r3]
 3402 0524 1B79     		ldrb	r3, [r3, #4]
 3403 0526 1A00     		movs	r2, r3
 3404 0528 0123     		movs	r3, #1
 3405 052a 1340     		ands	r3, r2
 3406 052c 0FD0     		beq	.L235
 3407 052e F423     		movs	r3, #244
 3408 0530 1822     		movs	r2, #24
 3409 0532 9446     		mov	ip, r2
 3410 0534 0822     		movs	r2, #8
 3411 0536 9046     		mov	r8, r2
 3412 0538 B844     		add	r8, r8, r7
 3413 053a C444     		add	ip, ip, r8
 3414 053c 6344     		add	r3, r3, ip
 3415 053e 1B68     		ldr	r3, [r3]
 3416 0540 5B89     		ldrh	r3, [r3, #10]
 3417 0542 1A00     		movs	r2, r3
 3418 0544 A54B     		ldr	r3, .L332+20
 3419 0546 1100     		movs	r1, r2
 3420 0548 1800     		movs	r0, r3
 3421 054a FFF7FEFF 		bl	atiny_printf
 3422              	.L235:
 3423 054e A44B     		ldr	r3, .L332+24
 3424 0550 1800     		movs	r0, r3
 3425 0552 FFF7FEFF 		bl	atiny_printf
 3426              	.L232:
 3427 0556 EE23     		movs	r3, #238
 3428 0558 1822     		movs	r2, #24
 3429 055a 9446     		mov	ip, r2
 3430 055c 0822     		movs	r2, #8
 3431 055e 9046     		mov	r8, r2
 3432 0560 B844     		add	r8, r8, r7
 3433 0562 C444     		add	ip, ip, r8
 3434 0564 6344     		add	r3, r3, ip
 3435 0566 1B78     		ldrb	r3, [r3]
 3436 0568 0122     		movs	r2, #1
 3437 056a 5340     		eors	r3, r2
 3438 056c DBB2     		uxtb	r3, r3
 3439 056e 002B     		cmp	r3, #0
 3440 0570 01D1     		bne	.LCB3513
 3441 0572 00F0FAFB 		bl	.L324	@far jump
 3442              	.LCB3513:
 3443 0576 F023     		movs	r3, #240
 3444 0578 1822     		movs	r2, #24
 3445 057a 9446     		mov	ip, r2
 3446 057c 0822     		movs	r2, #8
 3447 057e 9046     		mov	r8, r2
 3448 0580 B844     		add	r8, r8, r7
 3449 0582 C444     		add	ip, ip, r8
 3450 0584 6344     		add	r3, r3, ip
 3451 0586 1B68     		ldr	r3, [r3]
 3452 0588 DB68     		ldr	r3, [r3, #12]
ARM GAS  C:\Users\SONG_J~1\AppData\Local\Temp\ccpfiTpO.s 			page 64


 3453 058a 002B     		cmp	r3, #0
 3454 058c 01D1     		bne	.LCB3525
 3455 058e 00F0ECFB 		bl	.L324	@far jump
 3456              	.LCB3525:
 3457 0592 F023     		movs	r3, #240
 3458 0594 1822     		movs	r2, #24
 3459 0596 9446     		mov	ip, r2
 3460 0598 0822     		movs	r2, #8
 3461 059a 9046     		mov	r8, r2
 3462 059c B844     		add	r8, r8, r7
 3463 059e C444     		add	ip, ip, r8
 3464 05a0 6344     		add	r3, r3, ip
 3465 05a2 1B68     		ldr	r3, [r3]
 3466 05a4 DB68     		ldr	r3, [r3, #12]
 3467 05a6 1B78     		ldrb	r3, [r3]
 3468 05a8 1A00     		movs	r2, r3
 3469 05aa 1C23     		movs	r3, #28
 3470 05ac 1340     		ands	r3, r2
 3471 05ae 01D1     		bne	.LCB3541
 3472 05b0 00F0DBFB 		bl	.L324	@far jump
 3473              	.LCB3541:
 3474 05b4 F023     		movs	r3, #240
 3475 05b6 1822     		movs	r2, #24
 3476 05b8 9446     		mov	ip, r2
 3477 05ba 0822     		movs	r2, #8
 3478 05bc 9046     		mov	r8, r2
 3479 05be B844     		add	r8, r8, r7
 3480 05c0 C444     		add	ip, ip, r8
 3481 05c2 6344     		add	r3, r3, ip
 3482 05c4 1B68     		ldr	r3, [r3]
 3483 05c6 DB68     		ldr	r3, [r3, #12]
 3484 05c8 1B78     		ldrb	r3, [r3]
 3485 05ca 1A00     		movs	r2, r3
 3486 05cc 0823     		movs	r3, #8
 3487 05ce 1340     		ands	r3, r2
 3488 05d0 00D1     		bne	.LCB3557
 3489 05d2 38E1     		b	.L325	@long jump
 3490              	.LCB3557:
 3491 05d4 834A     		ldr	r2, .L332+28
 3492 05d6 7D49     		ldr	r1, .L332+4
 3493 05d8 834B     		ldr	r3, .L332+32
 3494 05da 1800     		movs	r0, r3
 3495 05dc FFF7FEFF 		bl	atiny_printf
 3496 05e0 C023     		movs	r3, #192
 3497 05e2 1822     		movs	r2, #24
 3498 05e4 9446     		mov	ip, r2
 3499 05e6 0822     		movs	r2, #8
 3500 05e8 9046     		mov	r8, r2
 3501 05ea B844     		add	r8, r8, r7
 3502 05ec C444     		add	ip, ip, r8
 3503 05ee 6344     		add	r3, r3, ip
 3504 05f0 1B68     		ldr	r3, [r3]
 3505 05f2 1B78     		ldrb	r3, [r3]
 3506 05f4 062B     		cmp	r3, #6
 3507 05f6 03D0     		beq	.L239
 3508 05f8 072B     		cmp	r3, #7
 3509 05fa 00D1     		bne	.LCB3576
ARM GAS  C:\Users\SONG_J~1\AppData\Local\Temp\ccpfiTpO.s 			page 65


 3510 05fc 93E0     		b	.L240	@long jump
 3511              	.LCB3576:
 3512 05fe 23E1     		b	.L237
 3513              	.L239:
 3514 0600 A023     		movs	r3, #160
 3515 0602 1822     		movs	r2, #24
 3516 0604 9446     		mov	ip, r2
 3517 0606 0822     		movs	r2, #8
 3518 0608 9046     		mov	r8, r2
 3519 060a B844     		add	r8, r8, r7
 3520 060c C444     		add	ip, ip, r8
 3521 060e 6344     		add	r3, r3, ip
 3522 0610 5C68     		ldr	r4, [r3, #4]
 3523 0612 1B68     		ldr	r3, [r3]
 3524 0614 1800     		movs	r0, r3
 3525 0616 2100     		movs	r1, r4
 3526 0618 FFF7FEFF 		bl	__aeabi_l2d
 3527 061c F023     		movs	r3, #240
 3528 061e 1822     		movs	r2, #24
 3529 0620 9446     		mov	ip, r2
 3530 0622 0822     		movs	r2, #8
 3531 0624 9046     		mov	r8, r2
 3532 0626 B844     		add	r8, r8, r7
 3533 0628 C444     		add	ip, ip, r8
 3534 062a 6344     		add	r3, r3, ip
 3535 062c 1B68     		ldr	r3, [r3]
 3536 062e DB68     		ldr	r3, [r3, #12]
 3537 0630 DC69     		ldr	r4, [r3, #28]
 3538 0632 9B69     		ldr	r3, [r3, #24]
 3539 0634 1A00     		movs	r2, r3
 3540 0636 2300     		movs	r3, r4
 3541 0638 FFF7FEFF 		bl	__aeabi_dcmple
 3542 063c 031E     		subs	r3, r0, #0
 3543 063e 1FD0     		beq	.L241
 3544 0640 F023     		movs	r3, #240
 3545 0642 1822     		movs	r2, #24
 3546 0644 0821     		movs	r1, #8
 3547 0646 8C46     		mov	ip, r1
 3548 0648 BC44     		add	ip, ip, r7
 3549 064a 6244     		add	r2, r2, ip
 3550 064c D218     		adds	r2, r2, r3
 3551 064e 1368     		ldr	r3, [r2]
 3552 0650 5C6B     		ldr	r4, [r3, #52]
 3553 0652 1B6B     		ldr	r3, [r3, #48]
 3554 0654 1800     		movs	r0, r3
 3555 0656 2100     		movs	r1, r4
 3556 0658 FFF7FEFF 		bl	__aeabi_l2d
 3557 065c F023     		movs	r3, #240
 3558 065e 1822     		movs	r2, #24
 3559 0660 9446     		mov	ip, r2
 3560 0662 0822     		movs	r2, #8
 3561 0664 9046     		mov	r8, r2
 3562 0666 B844     		add	r8, r8, r7
 3563 0668 C444     		add	ip, ip, r8
 3564 066a 6344     		add	r3, r3, ip
 3565 066c 1B68     		ldr	r3, [r3]
 3566 066e DB68     		ldr	r3, [r3, #12]
ARM GAS  C:\Users\SONG_J~1\AppData\Local\Temp\ccpfiTpO.s 			page 66


 3567 0670 DC69     		ldr	r4, [r3, #28]
 3568 0672 9B69     		ldr	r3, [r3, #24]
 3569 0674 1A00     		movs	r2, r3
 3570 0676 2300     		movs	r3, r4
 3571 0678 FFF7FEFF 		bl	__aeabi_dcmpgt
 3572 067c 031E     		subs	r3, r0, #0
 3573 067e 41D1     		bne	.L243
 3574              	.L241:
 3575 0680 A023     		movs	r3, #160
 3576 0682 1822     		movs	r2, #24
 3577 0684 9446     		mov	ip, r2
 3578 0686 0822     		movs	r2, #8
 3579 0688 9046     		mov	r8, r2
 3580 068a B844     		add	r8, r8, r7
 3581 068c C444     		add	ip, ip, r8
 3582 068e 6344     		add	r3, r3, ip
 3583 0690 5C68     		ldr	r4, [r3, #4]
 3584 0692 1B68     		ldr	r3, [r3]
 3585 0694 1800     		movs	r0, r3
 3586 0696 2100     		movs	r1, r4
 3587 0698 FFF7FEFF 		bl	__aeabi_l2d
 3588 069c F023     		movs	r3, #240
 3589 069e 1822     		movs	r2, #24
 3590 06a0 9446     		mov	ip, r2
 3591 06a2 0822     		movs	r2, #8
 3592 06a4 9046     		mov	r8, r2
 3593 06a6 B844     		add	r8, r8, r7
 3594 06a8 C444     		add	ip, ip, r8
 3595 06aa 6344     		add	r3, r3, ip
 3596 06ac 1B68     		ldr	r3, [r3]
 3597 06ae DB68     		ldr	r3, [r3, #12]
 3598 06b0 DC69     		ldr	r4, [r3, #28]
 3599 06b2 9B69     		ldr	r3, [r3, #24]
 3600 06b4 1A00     		movs	r2, r3
 3601 06b6 2300     		movs	r3, r4
 3602 06b8 FFF7FEFF 		bl	__aeabi_dcmpge
 3603 06bc 031E     		subs	r3, r0, #0
 3604 06be 00D1     		bne	.L309
 3605 06c0 C2E0     		b	.L237
 3606              	.L309:
 3607 06c2 F023     		movs	r3, #240
 3608 06c4 1822     		movs	r2, #24
 3609 06c6 0821     		movs	r1, #8
 3610 06c8 8C46     		mov	ip, r1
 3611 06ca BC44     		add	ip, ip, r7
 3612 06cc 6244     		add	r2, r2, ip
 3613 06ce D218     		adds	r2, r2, r3
 3614 06d0 1368     		ldr	r3, [r2]
 3615 06d2 5C6B     		ldr	r4, [r3, #52]
 3616 06d4 1B6B     		ldr	r3, [r3, #48]
 3617 06d6 1800     		movs	r0, r3
 3618 06d8 2100     		movs	r1, r4
 3619 06da FFF7FEFF 		bl	__aeabi_l2d
 3620 06de F023     		movs	r3, #240
 3621 06e0 1822     		movs	r2, #24
 3622 06e2 9446     		mov	ip, r2
 3623 06e4 0822     		movs	r2, #8
ARM GAS  C:\Users\SONG_J~1\AppData\Local\Temp\ccpfiTpO.s 			page 67


 3624 06e6 9046     		mov	r8, r2
 3625 06e8 B844     		add	r8, r8, r7
 3626 06ea C444     		add	ip, ip, r8
 3627 06ec 6344     		add	r3, r3, ip
 3628 06ee 1B68     		ldr	r3, [r3]
 3629 06f0 DB68     		ldr	r3, [r3, #12]
 3630 06f2 DC69     		ldr	r4, [r3, #28]
 3631 06f4 9B69     		ldr	r3, [r3, #24]
 3632 06f6 1A00     		movs	r2, r3
 3633 06f8 2300     		movs	r3, r4
 3634 06fa FFF7FEFF 		bl	__aeabi_dcmplt
 3635 06fe 031E     		subs	r3, r0, #0
 3636 0700 00D1     		bne	.L243
 3637 0702 A1E0     		b	.L237
 3638              	.L243:
 3639 0704 394A     		ldr	r2, .L332+36
 3640 0706 3149     		ldr	r1, .L332+4
 3641 0708 394B     		ldr	r3, .L332+40
 3642 070a 1800     		movs	r0, r3
 3643 070c FFF7FEFF 		bl	atiny_printf
 3644 0710 EE23     		movs	r3, #238
 3645 0712 1822     		movs	r2, #24
 3646 0714 9446     		mov	ip, r2
 3647 0716 0822     		movs	r2, #8
 3648 0718 9046     		mov	r8, r2
 3649 071a B844     		add	r8, r8, r7
 3650 071c C444     		add	ip, ip, r8
 3651 071e 6344     		add	r3, r3, ip
 3652 0720 0122     		movs	r2, #1
 3653 0722 1A70     		strb	r2, [r3]
 3654 0724 90E0     		b	.L237
 3655              	.L240:
 3656 0726 F023     		movs	r3, #240
 3657 0728 1822     		movs	r2, #24
 3658 072a 9446     		mov	ip, r2
 3659 072c 0822     		movs	r2, #8
 3660 072e 9046     		mov	r8, r2
 3661 0730 B844     		add	r8, r8, r7
 3662 0732 C444     		add	ip, ip, r8
 3663 0734 6344     		add	r3, r3, ip
 3664 0736 1B68     		ldr	r3, [r3]
 3665 0738 DB68     		ldr	r3, [r3, #12]
 3666 073a 9869     		ldr	r0, [r3, #24]
 3667 073c D969     		ldr	r1, [r3, #28]
 3668 073e A823     		movs	r3, #168
 3669 0740 1822     		movs	r2, #24
 3670 0742 9446     		mov	ip, r2
 3671 0744 0822     		movs	r2, #8
 3672 0746 9046     		mov	r8, r2
 3673 0748 B844     		add	r8, r8, r7
 3674 074a C444     		add	ip, ip, r8
 3675 074c 6344     		add	r3, r3, ip
 3676 074e 5C68     		ldr	r4, [r3, #4]
 3677 0750 1B68     		ldr	r3, [r3]
 3678 0752 1A00     		movs	r2, r3
 3679 0754 2300     		movs	r3, r4
 3680 0756 FFF7FEFF 		bl	__aeabi_dcmpge
ARM GAS  C:\Users\SONG_J~1\AppData\Local\Temp\ccpfiTpO.s 			page 68


 3681 075a 031E     		subs	r3, r0, #0
 3682 075c 16D0     		beq	.L247
 3683 075e F022     		movs	r2, #240
 3684 0760 1824     		movs	r4, #24
 3685 0762 0823     		movs	r3, #8
 3686 0764 FB18     		adds	r3, r7, r3
 3687 0766 1B19     		adds	r3, r3, r4
 3688 0768 9B18     		adds	r3, r3, r2
 3689 076a 1B68     		ldr	r3, [r3]
 3690 076c 186B     		ldr	r0, [r3, #48]
 3691 076e 596B     		ldr	r1, [r3, #52]
 3692 0770 0823     		movs	r3, #8
 3693 0772 FB18     		adds	r3, r7, r3
 3694 0774 1B19     		adds	r3, r3, r4
 3695 0776 9B18     		adds	r3, r3, r2
 3696 0778 1B68     		ldr	r3, [r3]
 3697 077a DB68     		ldr	r3, [r3, #12]
 3698 077c DC69     		ldr	r4, [r3, #28]
 3699 077e 9B69     		ldr	r3, [r3, #24]
 3700 0780 1A00     		movs	r2, r3
 3701 0782 2300     		movs	r3, r4
 3702 0784 FFF7FEFF 		bl	__aeabi_dcmpgt
 3703 0788 031E     		subs	r3, r0, #0
 3704 078a 4BD1     		bne	.L249
 3705              	.L247:
 3706 078c F023     		movs	r3, #240
 3707 078e 1822     		movs	r2, #24
 3708 0790 9446     		mov	ip, r2
 3709 0792 0822     		movs	r2, #8
 3710 0794 9046     		mov	r8, r2
 3711 0796 B844     		add	r8, r8, r7
 3712 0798 C444     		add	ip, ip, r8
 3713 079a 6344     		add	r3, r3, ip
 3714 079c 1B68     		ldr	r3, [r3]
 3715 079e DB68     		ldr	r3, [r3, #12]
 3716 07a0 9869     		ldr	r0, [r3, #24]
 3717 07a2 D969     		ldr	r1, [r3, #28]
 3718 07a4 A823     		movs	r3, #168
 3719 07a6 1822     		movs	r2, #24
 3720 07a8 9446     		mov	ip, r2
 3721 07aa 0822     		movs	r2, #8
 3722 07ac 9046     		mov	r8, r2
 3723 07ae B844     		add	r8, r8, r7
 3724 07b0 C444     		add	ip, ip, r8
 3725 07b2 6344     		add	r3, r3, ip
 3726 07b4 5C68     		ldr	r4, [r3, #4]
 3727 07b6 1B68     		ldr	r3, [r3]
 3728 07b8 1A00     		movs	r2, r3
 3729 07ba 2300     		movs	r3, r4
 3730 07bc FFF7FEFF 		bl	__aeabi_dcmple
 3731 07c0 031E     		subs	r3, r0, #0
 3732 07c2 17D1     		bne	.L311
 3733 07c4 40E0     		b	.L237
 3734              	.L333:
 3735 07c6 C046     		.align	2
 3736              	.L332:
 3737 07c8 CB020000 		.word	715
ARM GAS  C:\Users\SONG_J~1\AppData\Local\Temp\ccpfiTpO.s 			page 69


 3738 07cc 00000000 		.word	__func__.7219
 3739 07d0 88030000 		.word	.LC100
 3740 07d4 70010000 		.word	.LC36
 3741 07d8 80010000 		.word	.LC38
 3742 07dc 8C010000 		.word	.LC40
 3743 07e0 90010000 		.word	.LC42
 3744 07e4 D5020000 		.word	725
 3745 07e8 AC030000 		.word	.LC102
 3746 07ec DF020000 		.word	735
 3747 07f0 D0030000 		.word	.LC104
 3748              	.L311:
 3749 07f4 F022     		movs	r2, #240
 3750 07f6 1824     		movs	r4, #24
 3751 07f8 0823     		movs	r3, #8
 3752 07fa FB18     		adds	r3, r7, r3
 3753 07fc 1B19     		adds	r3, r3, r4
 3754 07fe 9B18     		adds	r3, r3, r2
 3755 0800 1B68     		ldr	r3, [r3]
 3756 0802 186B     		ldr	r0, [r3, #48]
 3757 0804 596B     		ldr	r1, [r3, #52]
 3758 0806 0823     		movs	r3, #8
 3759 0808 FB18     		adds	r3, r7, r3
 3760 080a 1B19     		adds	r3, r3, r4
 3761 080c 9B18     		adds	r3, r3, r2
 3762 080e 1B68     		ldr	r3, [r3]
 3763 0810 DB68     		ldr	r3, [r3, #12]
 3764 0812 DC69     		ldr	r4, [r3, #28]
 3765 0814 9B69     		ldr	r3, [r3, #24]
 3766 0816 1A00     		movs	r2, r3
 3767 0818 2300     		movs	r3, r4
 3768 081a FFF7FEFF 		bl	__aeabi_dcmplt
 3769 081e 031E     		subs	r3, r0, #0
 3770 0820 00D1     		bne	.L249
 3771 0822 11E0     		b	.L237
 3772              	.L249:
 3773 0824 B54A     		ldr	r2, .L334
 3774 0826 B649     		ldr	r1, .L334+4
 3775 0828 B64B     		ldr	r3, .L334+8
 3776 082a 1800     		movs	r0, r3
 3777 082c FFF7FEFF 		bl	atiny_printf
 3778 0830 EE23     		movs	r3, #238
 3779 0832 1822     		movs	r2, #24
 3780 0834 9446     		mov	ip, r2
 3781 0836 0822     		movs	r2, #8
 3782 0838 9046     		mov	r8, r2
 3783 083a B844     		add	r8, r8, r7
 3784 083c C444     		add	ip, ip, r8
 3785 083e 6344     		add	r3, r3, ip
 3786 0840 0122     		movs	r2, #1
 3787 0842 1A70     		strb	r2, [r3]
 3788 0844 00E0     		b	.L237
 3789              	.L325:
 3790 0846 C046     		nop
 3791              	.L237:
 3792 0848 F023     		movs	r3, #240
 3793 084a 1822     		movs	r2, #24
 3794 084c 9446     		mov	ip, r2
ARM GAS  C:\Users\SONG_J~1\AppData\Local\Temp\ccpfiTpO.s 			page 70


 3795 084e 0822     		movs	r2, #8
 3796 0850 9046     		mov	r8, r2
 3797 0852 B844     		add	r8, r8, r7
 3798 0854 C444     		add	ip, ip, r8
 3799 0856 6344     		add	r3, r3, ip
 3800 0858 1B68     		ldr	r3, [r3]
 3801 085a DB68     		ldr	r3, [r3, #12]
 3802 085c 1B78     		ldrb	r3, [r3]
 3803 085e 1A00     		movs	r2, r3
 3804 0860 0423     		movs	r3, #4
 3805 0862 1340     		ands	r3, r2
 3806 0864 00D1     		bne	.LCB3891
 3807 0866 21E1     		b	.L326	@long jump
 3808              	.LCB3891:
 3809 0868 A74A     		ldr	r2, .L334+12
 3810 086a A549     		ldr	r1, .L334+4
 3811 086c A74B     		ldr	r3, .L334+16
 3812 086e 1800     		movs	r0, r3
 3813 0870 FFF7FEFF 		bl	atiny_printf
 3814 0874 C023     		movs	r3, #192
 3815 0876 1822     		movs	r2, #24
 3816 0878 9446     		mov	ip, r2
 3817 087a 0822     		movs	r2, #8
 3818 087c 9046     		mov	r8, r2
 3819 087e B844     		add	r8, r8, r7
 3820 0880 C444     		add	ip, ip, r8
 3821 0882 6344     		add	r3, r3, ip
 3822 0884 1B68     		ldr	r3, [r3]
 3823 0886 1B78     		ldrb	r3, [r3]
 3824 0888 062B     		cmp	r3, #6
 3825 088a 03D0     		beq	.L255
 3826 088c 072B     		cmp	r3, #7
 3827 088e 00D1     		bne	.LCB3910
 3828 0890 93E0     		b	.L256	@long jump
 3829              	.LCB3910:
 3830 0892 0CE1     		b	.L253
 3831              	.L255:
 3832 0894 A023     		movs	r3, #160
 3833 0896 1822     		movs	r2, #24
 3834 0898 9446     		mov	ip, r2
 3835 089a 0822     		movs	r2, #8
 3836 089c 9046     		mov	r8, r2
 3837 089e B844     		add	r8, r8, r7
 3838 08a0 C444     		add	ip, ip, r8
 3839 08a2 6344     		add	r3, r3, ip
 3840 08a4 5C68     		ldr	r4, [r3, #4]
 3841 08a6 1B68     		ldr	r3, [r3]
 3842 08a8 1800     		movs	r0, r3
 3843 08aa 2100     		movs	r1, r4
 3844 08ac FFF7FEFF 		bl	__aeabi_l2d
 3845 08b0 F023     		movs	r3, #240
 3846 08b2 1822     		movs	r2, #24
 3847 08b4 9446     		mov	ip, r2
 3848 08b6 0822     		movs	r2, #8
 3849 08b8 9046     		mov	r8, r2
 3850 08ba B844     		add	r8, r8, r7
 3851 08bc C444     		add	ip, ip, r8
ARM GAS  C:\Users\SONG_J~1\AppData\Local\Temp\ccpfiTpO.s 			page 71


 3852 08be 6344     		add	r3, r3, ip
 3853 08c0 1B68     		ldr	r3, [r3]
 3854 08c2 DB68     		ldr	r3, [r3, #12]
 3855 08c4 5C69     		ldr	r4, [r3, #20]
 3856 08c6 1B69     		ldr	r3, [r3, #16]
 3857 08c8 1A00     		movs	r2, r3
 3858 08ca 2300     		movs	r3, r4
 3859 08cc FFF7FEFF 		bl	__aeabi_dcmple
 3860 08d0 031E     		subs	r3, r0, #0
 3861 08d2 1FD0     		beq	.L257
 3862 08d4 F023     		movs	r3, #240
 3863 08d6 1822     		movs	r2, #24
 3864 08d8 0821     		movs	r1, #8
 3865 08da 8C46     		mov	ip, r1
 3866 08dc BC44     		add	ip, ip, r7
 3867 08de 6244     		add	r2, r2, ip
 3868 08e0 D218     		adds	r2, r2, r3
 3869 08e2 1368     		ldr	r3, [r2]
 3870 08e4 5C6B     		ldr	r4, [r3, #52]
 3871 08e6 1B6B     		ldr	r3, [r3, #48]
 3872 08e8 1800     		movs	r0, r3
 3873 08ea 2100     		movs	r1, r4
 3874 08ec FFF7FEFF 		bl	__aeabi_l2d
 3875 08f0 F023     		movs	r3, #240
 3876 08f2 1822     		movs	r2, #24
 3877 08f4 9446     		mov	ip, r2
 3878 08f6 0822     		movs	r2, #8
 3879 08f8 9046     		mov	r8, r2
 3880 08fa B844     		add	r8, r8, r7
 3881 08fc C444     		add	ip, ip, r8
 3882 08fe 6344     		add	r3, r3, ip
 3883 0900 1B68     		ldr	r3, [r3]
 3884 0902 DB68     		ldr	r3, [r3, #12]
 3885 0904 5C69     		ldr	r4, [r3, #20]
 3886 0906 1B69     		ldr	r3, [r3, #16]
 3887 0908 1A00     		movs	r2, r3
 3888 090a 2300     		movs	r3, r4
 3889 090c FFF7FEFF 		bl	__aeabi_dcmpgt
 3890 0910 031E     		subs	r3, r0, #0
 3891 0912 41D1     		bne	.L259
 3892              	.L257:
 3893 0914 A023     		movs	r3, #160
 3894 0916 1822     		movs	r2, #24
 3895 0918 9446     		mov	ip, r2
 3896 091a 0822     		movs	r2, #8
 3897 091c 9046     		mov	r8, r2
 3898 091e B844     		add	r8, r8, r7
 3899 0920 C444     		add	ip, ip, r8
 3900 0922 6344     		add	r3, r3, ip
 3901 0924 5C68     		ldr	r4, [r3, #4]
 3902 0926 1B68     		ldr	r3, [r3]
 3903 0928 1800     		movs	r0, r3
 3904 092a 2100     		movs	r1, r4
 3905 092c FFF7FEFF 		bl	__aeabi_l2d
 3906 0930 F023     		movs	r3, #240
 3907 0932 1822     		movs	r2, #24
 3908 0934 9446     		mov	ip, r2
ARM GAS  C:\Users\SONG_J~1\AppData\Local\Temp\ccpfiTpO.s 			page 72


 3909 0936 0822     		movs	r2, #8
 3910 0938 9046     		mov	r8, r2
 3911 093a B844     		add	r8, r8, r7
 3912 093c C444     		add	ip, ip, r8
 3913 093e 6344     		add	r3, r3, ip
 3914 0940 1B68     		ldr	r3, [r3]
 3915 0942 DB68     		ldr	r3, [r3, #12]
 3916 0944 5C69     		ldr	r4, [r3, #20]
 3917 0946 1B69     		ldr	r3, [r3, #16]
 3918 0948 1A00     		movs	r2, r3
 3919 094a 2300     		movs	r3, r4
 3920 094c FFF7FEFF 		bl	__aeabi_dcmpge
 3921 0950 031E     		subs	r3, r0, #0
 3922 0952 00D1     		bne	.L313
 3923 0954 ABE0     		b	.L253
 3924              	.L313:
 3925 0956 F023     		movs	r3, #240
 3926 0958 1822     		movs	r2, #24
 3927 095a 0821     		movs	r1, #8
 3928 095c 8C46     		mov	ip, r1
 3929 095e BC44     		add	ip, ip, r7
 3930 0960 6244     		add	r2, r2, ip
 3931 0962 D218     		adds	r2, r2, r3
 3932 0964 1368     		ldr	r3, [r2]
 3933 0966 5C6B     		ldr	r4, [r3, #52]
 3934 0968 1B6B     		ldr	r3, [r3, #48]
 3935 096a 1800     		movs	r0, r3
 3936 096c 2100     		movs	r1, r4
 3937 096e FFF7FEFF 		bl	__aeabi_l2d
 3938 0972 F023     		movs	r3, #240
 3939 0974 1822     		movs	r2, #24
 3940 0976 9446     		mov	ip, r2
 3941 0978 0822     		movs	r2, #8
 3942 097a 9046     		mov	r8, r2
 3943 097c B844     		add	r8, r8, r7
 3944 097e C444     		add	ip, ip, r8
 3945 0980 6344     		add	r3, r3, ip
 3946 0982 1B68     		ldr	r3, [r3]
 3947 0984 DB68     		ldr	r3, [r3, #12]
 3948 0986 5C69     		ldr	r4, [r3, #20]
 3949 0988 1B69     		ldr	r3, [r3, #16]
 3950 098a 1A00     		movs	r2, r3
 3951 098c 2300     		movs	r3, r4
 3952 098e FFF7FEFF 		bl	__aeabi_dcmplt
 3953 0992 031E     		subs	r3, r0, #0
 3954 0994 00D1     		bne	.L259
 3955 0996 8AE0     		b	.L253
 3956              	.L259:
 3957 0998 5D4A     		ldr	r2, .L334+20
 3958 099a 5949     		ldr	r1, .L334+4
 3959 099c 5D4B     		ldr	r3, .L334+24
 3960 099e 1800     		movs	r0, r3
 3961 09a0 FFF7FEFF 		bl	atiny_printf
 3962 09a4 EE23     		movs	r3, #238
 3963 09a6 1822     		movs	r2, #24
 3964 09a8 9446     		mov	ip, r2
 3965 09aa 0822     		movs	r2, #8
ARM GAS  C:\Users\SONG_J~1\AppData\Local\Temp\ccpfiTpO.s 			page 73


 3966 09ac 9046     		mov	r8, r2
 3967 09ae B844     		add	r8, r8, r7
 3968 09b0 C444     		add	ip, ip, r8
 3969 09b2 6344     		add	r3, r3, ip
 3970 09b4 0122     		movs	r2, #1
 3971 09b6 1A70     		strb	r2, [r3]
 3972 09b8 79E0     		b	.L253
 3973              	.L256:
 3974 09ba F023     		movs	r3, #240
 3975 09bc 1822     		movs	r2, #24
 3976 09be 9446     		mov	ip, r2
 3977 09c0 0822     		movs	r2, #8
 3978 09c2 9046     		mov	r8, r2
 3979 09c4 B844     		add	r8, r8, r7
 3980 09c6 C444     		add	ip, ip, r8
 3981 09c8 6344     		add	r3, r3, ip
 3982 09ca 1B68     		ldr	r3, [r3]
 3983 09cc DB68     		ldr	r3, [r3, #12]
 3984 09ce 1869     		ldr	r0, [r3, #16]
 3985 09d0 5969     		ldr	r1, [r3, #20]
 3986 09d2 A823     		movs	r3, #168
 3987 09d4 1822     		movs	r2, #24
 3988 09d6 9446     		mov	ip, r2
 3989 09d8 0822     		movs	r2, #8
 3990 09da 9046     		mov	r8, r2
 3991 09dc B844     		add	r8, r8, r7
 3992 09de C444     		add	ip, ip, r8
 3993 09e0 6344     		add	r3, r3, ip
 3994 09e2 5C68     		ldr	r4, [r3, #4]
 3995 09e4 1B68     		ldr	r3, [r3]
 3996 09e6 1A00     		movs	r2, r3
 3997 09e8 2300     		movs	r3, r4
 3998 09ea FFF7FEFF 		bl	__aeabi_dcmpge
 3999 09ee 031E     		subs	r3, r0, #0
 4000 09f0 16D0     		beq	.L263
 4001 09f2 F022     		movs	r2, #240
 4002 09f4 1824     		movs	r4, #24
 4003 09f6 0823     		movs	r3, #8
 4004 09f8 FB18     		adds	r3, r7, r3
 4005 09fa 1B19     		adds	r3, r3, r4
 4006 09fc 9B18     		adds	r3, r3, r2
 4007 09fe 1B68     		ldr	r3, [r3]
 4008 0a00 186B     		ldr	r0, [r3, #48]
 4009 0a02 596B     		ldr	r1, [r3, #52]
 4010 0a04 0823     		movs	r3, #8
 4011 0a06 FB18     		adds	r3, r7, r3
 4012 0a08 1B19     		adds	r3, r3, r4
 4013 0a0a 9B18     		adds	r3, r3, r2
 4014 0a0c 1B68     		ldr	r3, [r3]
 4015 0a0e DB68     		ldr	r3, [r3, #12]
 4016 0a10 5C69     		ldr	r4, [r3, #20]
 4017 0a12 1B69     		ldr	r3, [r3, #16]
 4018 0a14 1A00     		movs	r2, r3
 4019 0a16 2300     		movs	r3, r4
 4020 0a18 FFF7FEFF 		bl	__aeabi_dcmpgt
 4021 0a1c 031E     		subs	r3, r0, #0
 4022 0a1e 34D1     		bne	.L265
ARM GAS  C:\Users\SONG_J~1\AppData\Local\Temp\ccpfiTpO.s 			page 74


 4023              	.L263:
 4024 0a20 F023     		movs	r3, #240
 4025 0a22 1822     		movs	r2, #24
 4026 0a24 9446     		mov	ip, r2
 4027 0a26 0822     		movs	r2, #8
 4028 0a28 9046     		mov	r8, r2
 4029 0a2a B844     		add	r8, r8, r7
 4030 0a2c C444     		add	ip, ip, r8
 4031 0a2e 6344     		add	r3, r3, ip
 4032 0a30 1B68     		ldr	r3, [r3]
 4033 0a32 DB68     		ldr	r3, [r3, #12]
 4034 0a34 1869     		ldr	r0, [r3, #16]
 4035 0a36 5969     		ldr	r1, [r3, #20]
 4036 0a38 A823     		movs	r3, #168
 4037 0a3a 1822     		movs	r2, #24
 4038 0a3c 9446     		mov	ip, r2
 4039 0a3e 0822     		movs	r2, #8
 4040 0a40 9046     		mov	r8, r2
 4041 0a42 B844     		add	r8, r8, r7
 4042 0a44 C444     		add	ip, ip, r8
 4043 0a46 6344     		add	r3, r3, ip
 4044 0a48 5C68     		ldr	r4, [r3, #4]
 4045 0a4a 1B68     		ldr	r3, [r3]
 4046 0a4c 1A00     		movs	r2, r3
 4047 0a4e 2300     		movs	r3, r4
 4048 0a50 FFF7FEFF 		bl	__aeabi_dcmple
 4049 0a54 031E     		subs	r3, r0, #0
 4050 0a56 00D1     		bne	.L315
 4051 0a58 29E0     		b	.L253
 4052              	.L315:
 4053 0a5a F022     		movs	r2, #240
 4054 0a5c 1824     		movs	r4, #24
 4055 0a5e 0823     		movs	r3, #8
 4056 0a60 FB18     		adds	r3, r7, r3
 4057 0a62 1B19     		adds	r3, r3, r4
 4058 0a64 9B18     		adds	r3, r3, r2
 4059 0a66 1B68     		ldr	r3, [r3]
 4060 0a68 186B     		ldr	r0, [r3, #48]
 4061 0a6a 596B     		ldr	r1, [r3, #52]
 4062 0a6c 0823     		movs	r3, #8
 4063 0a6e FB18     		adds	r3, r7, r3
 4064 0a70 1B19     		adds	r3, r3, r4
 4065 0a72 9B18     		adds	r3, r3, r2
 4066 0a74 1B68     		ldr	r3, [r3]
 4067 0a76 DB68     		ldr	r3, [r3, #12]
 4068 0a78 5C69     		ldr	r4, [r3, #20]
 4069 0a7a 1B69     		ldr	r3, [r3, #16]
 4070 0a7c 1A00     		movs	r2, r3
 4071 0a7e 2300     		movs	r3, r4
 4072 0a80 FFF7FEFF 		bl	__aeabi_dcmplt
 4073 0a84 031E     		subs	r3, r0, #0
 4074 0a86 00D1     		bne	.L265
 4075 0a88 11E0     		b	.L253
 4076              	.L265:
 4077 0a8a 234A     		ldr	r2, .L334+28
 4078 0a8c 1C49     		ldr	r1, .L334+4
 4079 0a8e 214B     		ldr	r3, .L334+24
ARM GAS  C:\Users\SONG_J~1\AppData\Local\Temp\ccpfiTpO.s 			page 75


 4080 0a90 1800     		movs	r0, r3
 4081 0a92 FFF7FEFF 		bl	atiny_printf
 4082 0a96 EE23     		movs	r3, #238
 4083 0a98 1822     		movs	r2, #24
 4084 0a9a 9446     		mov	ip, r2
 4085 0a9c 0822     		movs	r2, #8
 4086 0a9e 9046     		mov	r8, r2
 4087 0aa0 B844     		add	r8, r8, r7
 4088 0aa2 C444     		add	ip, ip, r8
 4089 0aa4 6344     		add	r3, r3, ip
 4090 0aa6 0122     		movs	r2, #1
 4091 0aa8 1A70     		strb	r2, [r3]
 4092 0aaa 00E0     		b	.L253
 4093              	.L326:
 4094 0aac C046     		nop
 4095              	.L253:
 4096 0aae F023     		movs	r3, #240
 4097 0ab0 1822     		movs	r2, #24
 4098 0ab2 9446     		mov	ip, r2
 4099 0ab4 0822     		movs	r2, #8
 4100 0ab6 9046     		mov	r8, r2
 4101 0ab8 B844     		add	r8, r8, r7
 4102 0aba C444     		add	ip, ip, r8
 4103 0abc 6344     		add	r3, r3, ip
 4104 0abe 1B68     		ldr	r3, [r3]
 4105 0ac0 DB68     		ldr	r3, [r3, #12]
 4106 0ac2 1B78     		ldrb	r3, [r3]
 4107 0ac4 1A00     		movs	r2, r3
 4108 0ac6 1023     		movs	r3, #16
 4109 0ac8 1340     		ands	r3, r2
 4110 0aca 00D1     		bne	.LCB4209
 4111 0acc 4DE1     		b	.L324	@long jump
 4112              	.LCB4209:
 4113 0ace 134A     		ldr	r2, .L334+32
 4114 0ad0 0B49     		ldr	r1, .L334+4
 4115 0ad2 134B     		ldr	r3, .L334+36
 4116 0ad4 1800     		movs	r0, r3
 4117 0ad6 FFF7FEFF 		bl	atiny_printf
 4118 0ada C023     		movs	r3, #192
 4119 0adc 1822     		movs	r2, #24
 4120 0ade 9446     		mov	ip, r2
 4121 0ae0 0822     		movs	r2, #8
 4122 0ae2 9046     		mov	r8, r2
 4123 0ae4 B844     		add	r8, r8, r7
 4124 0ae6 C444     		add	ip, ip, r8
 4125 0ae8 6344     		add	r3, r3, ip
 4126 0aea 1B68     		ldr	r3, [r3]
 4127 0aec 1B78     		ldrb	r3, [r3]
 4128 0aee 062B     		cmp	r3, #6
 4129 0af0 18D0     		beq	.L270
 4130 0af2 072B     		cmp	r3, #7
 4131 0af4 00D1     		bne	.LCB4228
 4132 0af6 A2E0     		b	.L271	@long jump
 4133              	.LCB4228:
 4134 0af8 3AE1     		b	.L236
 4135              	.L335:
 4136 0afa C046     		.align	2
ARM GAS  C:\Users\SONG_J~1\AppData\Local\Temp\ccpfiTpO.s 			page 76


 4137              	.L334:
 4138 0afc E9020000 		.word	745
 4139 0b00 00000000 		.word	__func__.7219
 4140 0b04 D0030000 		.word	.LC104
 4141 0b08 F3020000 		.word	755
 4142 0b0c 00040000 		.word	.LC106
 4143 0b10 FD020000 		.word	765
 4144 0b14 24040000 		.word	.LC108
 4145 0b18 07030000 		.word	775
 4146 0b1c 11030000 		.word	785
 4147 0b20 50040000 		.word	.LC110
 4148              	.L270:
 4149 0b24 A023     		movs	r3, #160
 4150 0b26 1822     		movs	r2, #24
 4151 0b28 9446     		mov	ip, r2
 4152 0b2a 0822     		movs	r2, #8
 4153 0b2c 9046     		mov	r8, r2
 4154 0b2e B844     		add	r8, r8, r7
 4155 0b30 C444     		add	ip, ip, r8
 4156 0b32 6344     		add	r3, r3, ip
 4157 0b34 1968     		ldr	r1, [r3]
 4158 0b36 5A68     		ldr	r2, [r3, #4]
 4159 0b38 F023     		movs	r3, #240
 4160 0b3a 1820     		movs	r0, #24
 4161 0b3c 8446     		mov	ip, r0
 4162 0b3e 0820     		movs	r0, #8
 4163 0b40 8046     		mov	r8, r0
 4164 0b42 B844     		add	r8, r8, r7
 4165 0b44 C444     		add	ip, ip, r8
 4166 0b46 6344     		add	r3, r3, ip
 4167 0b48 1B68     		ldr	r3, [r3]
 4168 0b4a 5C6B     		ldr	r4, [r3, #52]
 4169 0b4c 1B6B     		ldr	r3, [r3, #48]
 4170 0b4e C91A     		subs	r1, r1, r3
 4171 0b50 A241     		sbcs	r2, r2, r4
 4172 0b52 0B00     		movs	r3, r1
 4173 0b54 1400     		movs	r4, r2
 4174 0b56 D822     		movs	r2, #216
 4175 0b58 1821     		movs	r1, #24
 4176 0b5a 8C46     		mov	ip, r1
 4177 0b5c 0821     		movs	r1, #8
 4178 0b5e 8846     		mov	r8, r1
 4179 0b60 B844     		add	r8, r8, r7
 4180 0b62 C444     		add	ip, ip, r8
 4181 0b64 6244     		add	r2, r2, ip
 4182 0b66 1360     		str	r3, [r2]
 4183 0b68 5460     		str	r4, [r2, #4]
 4184 0b6a DC23     		movs	r3, #220
 4185 0b6c 1822     		movs	r2, #24
 4186 0b6e 9446     		mov	ip, r2
 4187 0b70 0822     		movs	r2, #8
 4188 0b72 9046     		mov	r8, r2
 4189 0b74 B844     		add	r8, r8, r7
 4190 0b76 C444     		add	ip, ip, r8
 4191 0b78 6344     		add	r3, r3, ip
 4192 0b7a 1B68     		ldr	r3, [r3]
 4193 0b7c 002B     		cmp	r3, #0
ARM GAS  C:\Users\SONG_J~1\AppData\Local\Temp\ccpfiTpO.s 			page 77


 4194 0b7e 22DA     		bge	.L272
 4195 0b80 D823     		movs	r3, #216
 4196 0b82 1822     		movs	r2, #24
 4197 0b84 9446     		mov	ip, r2
 4198 0b86 0822     		movs	r2, #8
 4199 0b88 9046     		mov	r8, r2
 4200 0b8a B844     		add	r8, r8, r7
 4201 0b8c C444     		add	ip, ip, r8
 4202 0b8e 6344     		add	r3, r3, ip
 4203 0b90 5C68     		ldr	r4, [r3, #4]
 4204 0b92 1B68     		ldr	r3, [r3]
 4205 0b94 0022     		movs	r2, #0
 4206 0b96 5942     		rsbs	r1, r3, #0
 4207 0b98 A241     		sbcs	r2, r4
 4208 0b9a 0800     		movs	r0, r1
 4209 0b9c 1100     		movs	r1, r2
 4210 0b9e FFF7FEFF 		bl	__aeabi_l2d
 4211 0ba2 F023     		movs	r3, #240
 4212 0ba4 1822     		movs	r2, #24
 4213 0ba6 9446     		mov	ip, r2
 4214 0ba8 0822     		movs	r2, #8
 4215 0baa 9046     		mov	r8, r2
 4216 0bac B844     		add	r8, r8, r7
 4217 0bae C444     		add	ip, ip, r8
 4218 0bb0 6344     		add	r3, r3, ip
 4219 0bb2 1B68     		ldr	r3, [r3]
 4220 0bb4 DB68     		ldr	r3, [r3, #12]
 4221 0bb6 5C6A     		ldr	r4, [r3, #36]
 4222 0bb8 1B6A     		ldr	r3, [r3, #32]
 4223 0bba 1A00     		movs	r2, r3
 4224 0bbc 2300     		movs	r3, r4
 4225 0bbe FFF7FEFF 		bl	__aeabi_dcmpge
 4226 0bc2 031E     		subs	r3, r0, #0
 4227 0bc4 2AD1     		bne	.L274
 4228              	.L272:
 4229 0bc6 DC23     		movs	r3, #220
 4230 0bc8 1822     		movs	r2, #24
 4231 0bca 9446     		mov	ip, r2
 4232 0bcc 0822     		movs	r2, #8
 4233 0bce 9046     		mov	r8, r2
 4234 0bd0 B844     		add	r8, r8, r7
 4235 0bd2 C444     		add	ip, ip, r8
 4236 0bd4 6344     		add	r3, r3, ip
 4237 0bd6 1B68     		ldr	r3, [r3]
 4238 0bd8 002B     		cmp	r3, #0
 4239 0bda 00DA     		bge	.LCB4331
 4240 0bdc C7E0     		b	.L327	@long jump
 4241              	.LCB4331:
 4242 0bde D823     		movs	r3, #216
 4243 0be0 1822     		movs	r2, #24
 4244 0be2 9446     		mov	ip, r2
 4245 0be4 0822     		movs	r2, #8
 4246 0be6 9046     		mov	r8, r2
 4247 0be8 B844     		add	r8, r8, r7
 4248 0bea C444     		add	ip, ip, r8
 4249 0bec 6344     		add	r3, r3, ip
 4250 0bee 1868     		ldr	r0, [r3]
ARM GAS  C:\Users\SONG_J~1\AppData\Local\Temp\ccpfiTpO.s 			page 78


 4251 0bf0 5968     		ldr	r1, [r3, #4]
 4252 0bf2 FFF7FEFF 		bl	__aeabi_l2d
 4253 0bf6 F023     		movs	r3, #240
 4254 0bf8 1822     		movs	r2, #24
 4255 0bfa 9446     		mov	ip, r2
 4256 0bfc 0822     		movs	r2, #8
 4257 0bfe 9046     		mov	r8, r2
 4258 0c00 B844     		add	r8, r8, r7
 4259 0c02 C444     		add	ip, ip, r8
 4260 0c04 6344     		add	r3, r3, ip
 4261 0c06 1B68     		ldr	r3, [r3]
 4262 0c08 DB68     		ldr	r3, [r3, #12]
 4263 0c0a 5C6A     		ldr	r4, [r3, #36]
 4264 0c0c 1B6A     		ldr	r3, [r3, #32]
 4265 0c0e 1A00     		movs	r2, r3
 4266 0c10 2300     		movs	r3, r4
 4267 0c12 FFF7FEFF 		bl	__aeabi_dcmpge
 4268 0c16 031E     		subs	r3, r0, #0
 4269 0c18 00D1     		bne	.L274
 4270 0c1a A8E0     		b	.L327
 4271              	.L274:
 4272 0c1c B94A     		ldr	r2, .L336
 4273 0c1e BA49     		ldr	r1, .L336+4
 4274 0c20 BA4B     		ldr	r3, .L336+8
 4275 0c22 1800     		movs	r0, r3
 4276 0c24 FFF7FEFF 		bl	atiny_printf
 4277 0c28 EE23     		movs	r3, #238
 4278 0c2a 1822     		movs	r2, #24
 4279 0c2c 9446     		mov	ip, r2
 4280 0c2e 0822     		movs	r2, #8
 4281 0c30 9046     		mov	r8, r2
 4282 0c32 B844     		add	r8, r8, r7
 4283 0c34 C444     		add	ip, ip, r8
 4284 0c36 6344     		add	r3, r3, ip
 4285 0c38 0122     		movs	r2, #1
 4286 0c3a 1A70     		strb	r2, [r3]
 4287 0c3c 97E0     		b	.L327
 4288              	.L271:
 4289 0c3e A823     		movs	r3, #168
 4290 0c40 1822     		movs	r2, #24
 4291 0c42 9446     		mov	ip, r2
 4292 0c44 0822     		movs	r2, #8
 4293 0c46 9046     		mov	r8, r2
 4294 0c48 B844     		add	r8, r8, r7
 4295 0c4a C444     		add	ip, ip, r8
 4296 0c4c 6344     		add	r3, r3, ip
 4297 0c4e 1868     		ldr	r0, [r3]
 4298 0c50 5968     		ldr	r1, [r3, #4]
 4299 0c52 F023     		movs	r3, #240
 4300 0c54 1822     		movs	r2, #24
 4301 0c56 9446     		mov	ip, r2
 4302 0c58 0822     		movs	r2, #8
 4303 0c5a 9046     		mov	r8, r2
 4304 0c5c B844     		add	r8, r8, r7
 4305 0c5e C444     		add	ip, ip, r8
 4306 0c60 6344     		add	r3, r3, ip
 4307 0c62 1B68     		ldr	r3, [r3]
ARM GAS  C:\Users\SONG_J~1\AppData\Local\Temp\ccpfiTpO.s 			page 79


 4308 0c64 5C6B     		ldr	r4, [r3, #52]
 4309 0c66 1B6B     		ldr	r3, [r3, #48]
 4310 0c68 1A00     		movs	r2, r3
 4311 0c6a 2300     		movs	r3, r4
 4312 0c6c FFF7FEFF 		bl	__aeabi_dsub
 4313 0c70 0300     		movs	r3, r0
 4314 0c72 0C00     		movs	r4, r1
 4315 0c74 E021     		movs	r1, #224
 4316 0c76 1822     		movs	r2, #24
 4317 0c78 0820     		movs	r0, #8
 4318 0c7a 8446     		mov	ip, r0
 4319 0c7c BC44     		add	ip, ip, r7
 4320 0c7e 6244     		add	r2, r2, ip
 4321 0c80 5218     		adds	r2, r2, r1
 4322 0c82 1360     		str	r3, [r2]
 4323 0c84 5460     		str	r4, [r2, #4]
 4324 0c86 0022     		movs	r2, #0
 4325 0c88 0023     		movs	r3, #0
 4326 0c8a 1820     		movs	r0, #24
 4327 0c8c 8446     		mov	ip, r0
 4328 0c8e 0820     		movs	r0, #8
 4329 0c90 8046     		mov	r8, r0
 4330 0c92 B844     		add	r8, r8, r7
 4331 0c94 C444     		add	ip, ip, r8
 4332 0c96 6144     		add	r1, r1, ip
 4333 0c98 0868     		ldr	r0, [r1]
 4334 0c9a 4968     		ldr	r1, [r1, #4]
 4335 0c9c FFF7FEFF 		bl	__aeabi_dcmplt
 4336 0ca0 031E     		subs	r3, r0, #0
 4337 0ca2 23D0     		beq	.L278
 4338 0ca4 E023     		movs	r3, #224
 4339 0ca6 1822     		movs	r2, #24
 4340 0ca8 9446     		mov	ip, r2
 4341 0caa 0822     		movs	r2, #8
 4342 0cac 9046     		mov	r8, r2
 4343 0cae B844     		add	r8, r8, r7
 4344 0cb0 C444     		add	ip, ip, r8
 4345 0cb2 6344     		add	r3, r3, ip
 4346 0cb4 1A68     		ldr	r2, [r3]
 4347 0cb6 5B68     		ldr	r3, [r3, #4]
 4348 0cb8 0020     		movs	r0, #0
 4349 0cba 0021     		movs	r1, #0
 4350 0cbc FFF7FEFF 		bl	__aeabi_dsub
 4351 0cc0 0300     		movs	r3, r0
 4352 0cc2 0C00     		movs	r4, r1
 4353 0cc4 1800     		movs	r0, r3
 4354 0cc6 2100     		movs	r1, r4
 4355 0cc8 F023     		movs	r3, #240
 4356 0cca 1822     		movs	r2, #24
 4357 0ccc 9446     		mov	ip, r2
 4358 0cce 0822     		movs	r2, #8
 4359 0cd0 9046     		mov	r8, r2
 4360 0cd2 B844     		add	r8, r8, r7
 4361 0cd4 C444     		add	ip, ip, r8
 4362 0cd6 6344     		add	r3, r3, ip
 4363 0cd8 1B68     		ldr	r3, [r3]
 4364 0cda DB68     		ldr	r3, [r3, #12]
ARM GAS  C:\Users\SONG_J~1\AppData\Local\Temp\ccpfiTpO.s 			page 80


 4365 0cdc 5C6A     		ldr	r4, [r3, #36]
 4366 0cde 1B6A     		ldr	r3, [r3, #32]
 4367 0ce0 1A00     		movs	r2, r3
 4368 0ce2 2300     		movs	r3, r4
 4369 0ce4 FFF7FEFF 		bl	__aeabi_dcmpge
 4370 0ce8 031E     		subs	r3, r0, #0
 4371 0cea 2DD1     		bne	.L280
 4372              	.L278:
 4373 0cec 0022     		movs	r2, #0
 4374 0cee 0023     		movs	r3, #0
 4375 0cf0 E021     		movs	r1, #224
 4376 0cf2 1820     		movs	r0, #24
 4377 0cf4 8446     		mov	ip, r0
 4378 0cf6 0820     		movs	r0, #8
 4379 0cf8 8046     		mov	r8, r0
 4380 0cfa B844     		add	r8, r8, r7
 4381 0cfc C444     		add	ip, ip, r8
 4382 0cfe 6144     		add	r1, r1, ip
 4383 0d00 0868     		ldr	r0, [r1]
 4384 0d02 4968     		ldr	r1, [r1, #4]
 4385 0d04 FFF7FEFF 		bl	__aeabi_dcmpge
 4386 0d08 031E     		subs	r3, r0, #0
 4387 0d0a 00D1     		bne	.L317
 4388 0d0c 30E0     		b	.L236
 4389              	.L317:
 4390 0d0e F023     		movs	r3, #240
 4391 0d10 1822     		movs	r2, #24
 4392 0d12 9446     		mov	ip, r2
 4393 0d14 0822     		movs	r2, #8
 4394 0d16 9046     		mov	r8, r2
 4395 0d18 B844     		add	r8, r8, r7
 4396 0d1a C444     		add	ip, ip, r8
 4397 0d1c 6344     		add	r3, r3, ip
 4398 0d1e 1B68     		ldr	r3, [r3]
 4399 0d20 DB68     		ldr	r3, [r3, #12]
 4400 0d22 5C6A     		ldr	r4, [r3, #36]
 4401 0d24 1B6A     		ldr	r3, [r3, #32]
 4402 0d26 1A00     		movs	r2, r3
 4403 0d28 2300     		movs	r3, r4
 4404 0d2a E021     		movs	r1, #224
 4405 0d2c 1820     		movs	r0, #24
 4406 0d2e 8446     		mov	ip, r0
 4407 0d30 0820     		movs	r0, #8
 4408 0d32 8046     		mov	r8, r0
 4409 0d34 B844     		add	r8, r8, r7
 4410 0d36 C444     		add	ip, ip, r8
 4411 0d38 6144     		add	r1, r1, ip
 4412 0d3a 0868     		ldr	r0, [r1]
 4413 0d3c 4968     		ldr	r1, [r1, #4]
 4414 0d3e FFF7FEFF 		bl	__aeabi_dcmpge
 4415 0d42 031E     		subs	r3, r0, #0
 4416 0d44 00D1     		bne	.L280
 4417 0d46 13E0     		b	.L236
 4418              	.L280:
 4419 0d48 714A     		ldr	r2, .L336+12
 4420 0d4a 6F49     		ldr	r1, .L336+4
 4421 0d4c 6F4B     		ldr	r3, .L336+8
ARM GAS  C:\Users\SONG_J~1\AppData\Local\Temp\ccpfiTpO.s 			page 81


 4422 0d4e 1800     		movs	r0, r3
 4423 0d50 FFF7FEFF 		bl	atiny_printf
 4424 0d54 EE23     		movs	r3, #238
 4425 0d56 1822     		movs	r2, #24
 4426 0d58 9446     		mov	ip, r2
 4427 0d5a 0822     		movs	r2, #8
 4428 0d5c 9046     		mov	r8, r2
 4429 0d5e B844     		add	r8, r8, r7
 4430 0d60 C444     		add	ip, ip, r8
 4431 0d62 6344     		add	r3, r3, ip
 4432 0d64 0122     		movs	r2, #1
 4433 0d66 1A70     		strb	r2, [r3]
 4434 0d68 02E0     		b	.L236
 4435              	.L324:
 4436 0d6a C046     		nop
 4437 0d6c 00E0     		b	.L236
 4438              	.L327:
 4439 0d6e C046     		nop
 4440              	.L236:
 4441 0d70 F023     		movs	r3, #240
 4442 0d72 1822     		movs	r2, #24
 4443 0d74 9446     		mov	ip, r2
 4444 0d76 0822     		movs	r2, #8
 4445 0d78 9046     		mov	r8, r2
 4446 0d7a B844     		add	r8, r8, r7
 4447 0d7c C444     		add	ip, ip, r8
 4448 0d7e 6344     		add	r3, r3, ip
 4449 0d80 1B68     		ldr	r3, [r3]
 4450 0d82 DB68     		ldr	r3, [r3, #12]
 4451 0d84 002B     		cmp	r3, #0
 4452 0d86 00D1     		bne	.LCB4550
 4453 0d88 D6E0     		b	.L230	@long jump
 4454              	.LCB4550:
 4455 0d8a F023     		movs	r3, #240
 4456 0d8c 1822     		movs	r2, #24
 4457 0d8e 9446     		mov	ip, r2
 4458 0d90 0822     		movs	r2, #8
 4459 0d92 9046     		mov	r8, r2
 4460 0d94 B844     		add	r8, r8, r7
 4461 0d96 C444     		add	ip, ip, r8
 4462 0d98 6344     		add	r3, r3, ip
 4463 0d9a 1B68     		ldr	r3, [r3]
 4464 0d9c DB68     		ldr	r3, [r3, #12]
 4465 0d9e 1B78     		ldrb	r3, [r3]
 4466 0da0 1A00     		movs	r2, r3
 4467 0da2 0123     		movs	r3, #1
 4468 0da4 1340     		ands	r3, r2
 4469 0da6 00D1     		bne	.LCB4566
 4470 0da8 C6E0     		b	.L230	@long jump
 4471              	.LCB4566:
 4472 0daa F022     		movs	r2, #240
 4473 0dac 1823     		movs	r3, #24
 4474 0dae 0821     		movs	r1, #8
 4475 0db0 7918     		adds	r1, r7, r1
 4476 0db2 C918     		adds	r1, r1, r3
 4477 0db4 8B18     		adds	r3, r1, r2
 4478 0db6 1B68     		ldr	r3, [r3]
ARM GAS  C:\Users\SONG_J~1\AppData\Local\Temp\ccpfiTpO.s 			page 82


 4479 0db8 DB68     		ldr	r3, [r3, #12]
 4480 0dba 5C68     		ldr	r4, [r3, #4]
 4481 0dbc CE23     		movs	r3, #206
 4482 0dbe 9A00     		lsls	r2, r3, #2
 4483 0dc0 5149     		ldr	r1, .L336+4
 4484 0dc2 5448     		ldr	r0, .L336+16
 4485 0dc4 2300     		movs	r3, r4
 4486 0dc6 FFF7FEFF 		bl	atiny_printf
 4487 0dca F022     		movs	r2, #240
 4488 0dcc 1823     		movs	r3, #24
 4489 0dce 0821     		movs	r1, #8
 4490 0dd0 8C46     		mov	ip, r1
 4491 0dd2 BC44     		add	ip, ip, r7
 4492 0dd4 6344     		add	r3, r3, ip
 4493 0dd6 9B18     		adds	r3, r3, r2
 4494 0dd8 1B68     		ldr	r3, [r3]
 4495 0dda 5C6A     		ldr	r4, [r3, #36]
 4496 0ddc 1B6A     		ldr	r3, [r3, #32]
 4497 0dde 1821     		movs	r1, #24
 4498 0de0 8C46     		mov	ip, r1
 4499 0de2 0821     		movs	r1, #8
 4500 0de4 8846     		mov	r8, r1
 4501 0de6 B844     		add	r8, r8, r7
 4502 0de8 C444     		add	ip, ip, r8
 4503 0dea 6244     		add	r2, r2, ip
 4504 0dec 1268     		ldr	r2, [r2]
 4505 0dee D268     		ldr	r2, [r2, #12]
 4506 0df0 5268     		ldr	r2, [r2, #4]
 4507 0df2 1500     		movs	r5, r2
 4508 0df4 0022     		movs	r2, #0
 4509 0df6 1600     		movs	r6, r2
 4510 0df8 5B19     		adds	r3, r3, r5
 4511 0dfa 7441     		adcs	r4, r4, r6
 4512 0dfc 7A6A     		ldr	r2, [r7, #36]
 4513 0dfe A242     		cmp	r2, r4
 4514 0e00 07DB     		blt	.L318
 4515 0e02 7A6A     		ldr	r2, [r7, #36]
 4516 0e04 A242     		cmp	r2, r4
 4517 0e06 00D0     		beq	.LCB4617
 4518 0e08 86E0     		b	.L284	@long jump
 4519              	.LCB4617:
 4520 0e0a 3A6A     		ldr	r2, [r7, #32]
 4521 0e0c 9A42     		cmp	r2, r3
 4522 0e0e 00D3     		bcc	.LCB4620
 4523 0e10 82E0     		b	.L284	@long jump
 4524              	.LCB4620:
 4525              	.L318:
 4526 0e12 F022     		movs	r2, #240
 4527 0e14 1823     		movs	r3, #24
 4528 0e16 0821     		movs	r1, #8
 4529 0e18 8C46     		mov	ip, r1
 4530 0e1a BC44     		add	ip, ip, r7
 4531 0e1c 6344     		add	r3, r3, ip
 4532 0e1e 9B18     		adds	r3, r3, r2
 4533 0e20 1B68     		ldr	r3, [r3]
 4534 0e22 5C6A     		ldr	r4, [r3, #36]
 4535 0e24 1B6A     		ldr	r3, [r3, #32]
ARM GAS  C:\Users\SONG_J~1\AppData\Local\Temp\ccpfiTpO.s 			page 83


 4536 0e26 1821     		movs	r1, #24
 4537 0e28 8C46     		mov	ip, r1
 4538 0e2a 0821     		movs	r1, #8
 4539 0e2c 8846     		mov	r8, r1
 4540 0e2e B844     		add	r8, r8, r7
 4541 0e30 C444     		add	ip, ip, r8
 4542 0e32 6244     		add	r2, r2, ip
 4543 0e34 1268     		ldr	r2, [r2]
 4544 0e36 D268     		ldr	r2, [r2, #12]
 4545 0e38 5268     		ldr	r2, [r2, #4]
 4546 0e3a BA61     		str	r2, [r7, #24]
 4547 0e3c 0022     		movs	r2, #0
 4548 0e3e FA61     		str	r2, [r7, #28]
 4549 0e40 B969     		ldr	r1, [r7, #24]
 4550 0e42 FA69     		ldr	r2, [r7, #28]
 4551 0e44 C918     		adds	r1, r1, r3
 4552 0e46 6241     		adcs	r2, r2, r4
 4553 0e48 3B6A     		ldr	r3, [r7, #32]
 4554 0e4a 7C6A     		ldr	r4, [r7, #36]
 4555 0e4c C91A     		subs	r1, r1, r3
 4556 0e4e A241     		sbcs	r2, r2, r4
 4557 0e50 0B00     		movs	r3, r1
 4558 0e52 1400     		movs	r4, r2
 4559 0e54 D022     		movs	r2, #208
 4560 0e56 1821     		movs	r1, #24
 4561 0e58 8C46     		mov	ip, r1
 4562 0e5a 0821     		movs	r1, #8
 4563 0e5c 8846     		mov	r8, r1
 4564 0e5e B844     		add	r8, r8, r7
 4565 0e60 C444     		add	ip, ip, r8
 4566 0e62 6244     		add	r2, r2, ip
 4567 0e64 1360     		str	r3, [r2]
 4568 0e66 5460     		str	r4, [r2, #4]
 4569 0e68 8823     		movs	r3, #136
 4570 0e6a 5B00     		lsls	r3, r3, #1
 4571 0e6c 1822     		movs	r2, #24
 4572 0e6e 9446     		mov	ip, r2
 4573 0e70 0822     		movs	r2, #8
 4574 0e72 9046     		mov	r8, r2
 4575 0e74 B844     		add	r8, r8, r7
 4576 0e76 C444     		add	ip, ip, r8
 4577 0e78 6344     		add	r3, r3, ip
 4578 0e7a 1B68     		ldr	r3, [r3]
 4579 0e7c 5C68     		ldr	r4, [r3, #4]
 4580 0e7e 1B68     		ldr	r3, [r3]
 4581 0e80 D422     		movs	r2, #212
 4582 0e82 1821     		movs	r1, #24
 4583 0e84 8C46     		mov	ip, r1
 4584 0e86 0821     		movs	r1, #8
 4585 0e88 8846     		mov	r8, r1
 4586 0e8a B844     		add	r8, r8, r7
 4587 0e8c C444     		add	ip, ip, r8
 4588 0e8e 6244     		add	r2, r2, ip
 4589 0e90 1268     		ldr	r2, [r2]
 4590 0e92 A242     		cmp	r2, r4
 4591 0e94 15DB     		blt	.L319
 4592 0e96 D422     		movs	r2, #212
ARM GAS  C:\Users\SONG_J~1\AppData\Local\Temp\ccpfiTpO.s 			page 84


 4593 0e98 1821     		movs	r1, #24
 4594 0e9a 8C46     		mov	ip, r1
 4595 0e9c 0821     		movs	r1, #8
 4596 0e9e 8846     		mov	r8, r1
 4597 0ea0 B844     		add	r8, r8, r7
 4598 0ea2 C444     		add	ip, ip, r8
 4599 0ea4 6244     		add	r2, r2, ip
 4600 0ea6 1268     		ldr	r2, [r2]
 4601 0ea8 A242     		cmp	r2, r4
 4602 0eaa 20D1     		bne	.L286
 4603 0eac D022     		movs	r2, #208
 4604 0eae 1821     		movs	r1, #24
 4605 0eb0 8C46     		mov	ip, r1
 4606 0eb2 0821     		movs	r1, #8
 4607 0eb4 8846     		mov	r8, r1
 4608 0eb6 B844     		add	r8, r8, r7
 4609 0eb8 C444     		add	ip, ip, r8
 4610 0eba 6244     		add	r2, r2, ip
 4611 0ebc 1268     		ldr	r2, [r2]
 4612 0ebe 9A42     		cmp	r2, r3
 4613 0ec0 15D2     		bcs	.L286
 4614              	.L319:
 4615 0ec2 8823     		movs	r3, #136
 4616 0ec4 5B00     		lsls	r3, r3, #1
 4617 0ec6 1822     		movs	r2, #24
 4618 0ec8 9446     		mov	ip, r2
 4619 0eca 0822     		movs	r2, #8
 4620 0ecc 9046     		mov	r8, r2
 4621 0ece B844     		add	r8, r8, r7
 4622 0ed0 C444     		add	ip, ip, r8
 4623 0ed2 6344     		add	r3, r3, ip
 4624 0ed4 1A68     		ldr	r2, [r3]
 4625 0ed6 D023     		movs	r3, #208
 4626 0ed8 1821     		movs	r1, #24
 4627 0eda 8C46     		mov	ip, r1
 4628 0edc 0821     		movs	r1, #8
 4629 0ede 8846     		mov	r8, r1
 4630 0ee0 B844     		add	r8, r8, r7
 4631 0ee2 C444     		add	ip, ip, r8
 4632 0ee4 6344     		add	r3, r3, ip
 4633 0ee6 5C68     		ldr	r4, [r3, #4]
 4634 0ee8 1B68     		ldr	r3, [r3]
 4635 0eea 1360     		str	r3, [r2]
 4636 0eec 5460     		str	r4, [r2, #4]
 4637              	.L286:
 4638 0eee EE23     		movs	r3, #238
 4639 0ef0 1822     		movs	r2, #24
 4640 0ef2 9446     		mov	ip, r2
 4641 0ef4 0822     		movs	r2, #8
 4642 0ef6 9046     		mov	r8, r2
 4643 0ef8 B844     		add	r8, r8, r7
 4644 0efa C444     		add	ip, ip, r8
 4645 0efc 6344     		add	r3, r3, ip
 4646 0efe 0022     		movs	r2, #0
 4647 0f00 1A70     		strb	r2, [r3]
 4648 0f02 19E0     		b	.L230
 4649              	.L337:
ARM GAS  C:\Users\SONG_J~1\AppData\Local\Temp\ccpfiTpO.s 			page 85


 4650              		.align	2
 4651              	.L336:
 4652 0f04 1D030000 		.word	797
 4653 0f08 00000000 		.word	__func__.7219
 4654 0f0c 68040000 		.word	.LC112
 4655 0f10 2A030000 		.word	810
 4656 0f14 8C040000 		.word	.LC114
 4657              	.L284:
 4658 0f18 984A     		ldr	r2, .L338
 4659 0f1a 9949     		ldr	r1, .L338+4
 4660 0f1c 994B     		ldr	r3, .L338+8
 4661 0f1e 1800     		movs	r0, r3
 4662 0f20 FFF7FEFF 		bl	atiny_printf
 4663 0f24 EE23     		movs	r3, #238
 4664 0f26 1822     		movs	r2, #24
 4665 0f28 9446     		mov	ip, r2
 4666 0f2a 0822     		movs	r2, #8
 4667 0f2c 9046     		mov	r8, r2
 4668 0f2e B844     		add	r8, r8, r7
 4669 0f30 C444     		add	ip, ip, r8
 4670 0f32 6344     		add	r3, r3, ip
 4671 0f34 0122     		movs	r2, #1
 4672 0f36 1A70     		strb	r2, [r3]
 4673              	.L230:
 4674 0f38 EE23     		movs	r3, #238
 4675 0f3a 1822     		movs	r2, #24
 4676 0f3c 9446     		mov	ip, r2
 4677 0f3e 0822     		movs	r2, #8
 4678 0f40 9046     		mov	r8, r2
 4679 0f42 B844     		add	r8, r8, r7
 4680 0f44 C444     		add	ip, ip, r8
 4681 0f46 6344     		add	r3, r3, ip
 4682 0f48 1B78     		ldrb	r3, [r3]
 4683 0f4a 0122     		movs	r2, #1
 4684 0f4c 5340     		eors	r3, r2
 4685 0f4e DBB2     		uxtb	r3, r3
 4686 0f50 002B     		cmp	r3, #0
 4687 0f52 5CD0     		beq	.L288
 4688 0f54 F023     		movs	r3, #240
 4689 0f56 1822     		movs	r2, #24
 4690 0f58 9446     		mov	ip, r2
 4691 0f5a 0822     		movs	r2, #8
 4692 0f5c 9046     		mov	r8, r2
 4693 0f5e B844     		add	r8, r8, r7
 4694 0f60 C444     		add	ip, ip, r8
 4695 0f62 6344     		add	r3, r3, ip
 4696 0f64 1B68     		ldr	r3, [r3]
 4697 0f66 DB68     		ldr	r3, [r3, #12]
 4698 0f68 002B     		cmp	r3, #0
 4699 0f6a 50D0     		beq	.L288
 4700 0f6c F023     		movs	r3, #240
 4701 0f6e 1822     		movs	r2, #24
 4702 0f70 9446     		mov	ip, r2
 4703 0f72 0822     		movs	r2, #8
 4704 0f74 9046     		mov	r8, r2
 4705 0f76 B844     		add	r8, r8, r7
 4706 0f78 C444     		add	ip, ip, r8
ARM GAS  C:\Users\SONG_J~1\AppData\Local\Temp\ccpfiTpO.s 			page 86


 4707 0f7a 6344     		add	r3, r3, ip
 4708 0f7c 1B68     		ldr	r3, [r3]
 4709 0f7e DB68     		ldr	r3, [r3, #12]
 4710 0f80 1B78     		ldrb	r3, [r3]
 4711 0f82 1A00     		movs	r2, r3
 4712 0f84 0223     		movs	r3, #2
 4713 0f86 1340     		ands	r3, r2
 4714 0f88 41D0     		beq	.L288
 4715 0f8a F024     		movs	r4, #240
 4716 0f8c 1823     		movs	r3, #24
 4717 0f8e 0822     		movs	r2, #8
 4718 0f90 BA18     		adds	r2, r7, r2
 4719 0f92 D218     		adds	r2, r2, r3
 4720 0f94 1319     		adds	r3, r2, r4
 4721 0f96 1B68     		ldr	r3, [r3]
 4722 0f98 DB68     		ldr	r3, [r3, #12]
 4723 0f9a 9B68     		ldr	r3, [r3, #8]
 4724 0f9c 7A4A     		ldr	r2, .L338+12
 4725 0f9e 7849     		ldr	r1, .L338+4
 4726 0fa0 7A48     		ldr	r0, .L338+16
 4727 0fa2 FFF7FEFF 		bl	atiny_printf
 4728 0fa6 2200     		movs	r2, r4
 4729 0fa8 1823     		movs	r3, #24
 4730 0faa 0821     		movs	r1, #8
 4731 0fac 8C46     		mov	ip, r1
 4732 0fae BC44     		add	ip, ip, r7
 4733 0fb0 6344     		add	r3, r3, ip
 4734 0fb2 9B18     		adds	r3, r3, r2
 4735 0fb4 1B68     		ldr	r3, [r3]
 4736 0fb6 5C6A     		ldr	r4, [r3, #36]
 4737 0fb8 1B6A     		ldr	r3, [r3, #32]
 4738 0fba 1821     		movs	r1, #24
 4739 0fbc 8C46     		mov	ip, r1
 4740 0fbe 0821     		movs	r1, #8
 4741 0fc0 8846     		mov	r8, r1
 4742 0fc2 B844     		add	r8, r8, r7
 4743 0fc4 C444     		add	ip, ip, r8
 4744 0fc6 6244     		add	r2, r2, ip
 4745 0fc8 1268     		ldr	r2, [r2]
 4746 0fca D268     		ldr	r2, [r2, #12]
 4747 0fcc 9268     		ldr	r2, [r2, #8]
 4748 0fce 3A61     		str	r2, [r7, #16]
 4749 0fd0 0022     		movs	r2, #0
 4750 0fd2 7A61     		str	r2, [r7, #20]
 4751 0fd4 3969     		ldr	r1, [r7, #16]
 4752 0fd6 7A69     		ldr	r2, [r7, #20]
 4753 0fd8 5B18     		adds	r3, r3, r1
 4754 0fda 5441     		adcs	r4, r4, r2
 4755 0fdc 7A6A     		ldr	r2, [r7, #36]
 4756 0fde A242     		cmp	r2, r4
 4757 0fe0 15DB     		blt	.L288
 4758 0fe2 7A6A     		ldr	r2, [r7, #36]
 4759 0fe4 A242     		cmp	r2, r4
 4760 0fe6 02D1     		bne	.L320
 4761 0fe8 3A6A     		ldr	r2, [r7, #32]
 4762 0fea 9A42     		cmp	r2, r3
 4763 0fec 0FD3     		bcc	.L288
ARM GAS  C:\Users\SONG_J~1\AppData\Local\Temp\ccpfiTpO.s 			page 87


 4764              	.L320:
 4765 0fee 684A     		ldr	r2, .L338+20
 4766 0ff0 6349     		ldr	r1, .L338+4
 4767 0ff2 684B     		ldr	r3, .L338+24
 4768 0ff4 1800     		movs	r0, r3
 4769 0ff6 FFF7FEFF 		bl	atiny_printf
 4770 0ffa EE23     		movs	r3, #238
 4771 0ffc 1822     		movs	r2, #24
 4772 0ffe 9446     		mov	ip, r2
 4773 1000 0822     		movs	r2, #8
 4774 1002 9046     		mov	r8, r2
 4775 1004 B844     		add	r8, r8, r7
 4776 1006 C444     		add	ip, ip, r8
 4777 1008 6344     		add	r3, r3, ip
 4778 100a 0122     		movs	r2, #1
 4779 100c 1A70     		strb	r2, [r3]
 4780              	.L288:
 4781 100e EE23     		movs	r3, #238
 4782 1010 1822     		movs	r2, #24
 4783 1012 9446     		mov	ip, r2
 4784 1014 0822     		movs	r2, #8
 4785 1016 9046     		mov	r8, r2
 4786 1018 B844     		add	r8, r8, r7
 4787 101a C444     		add	ip, ip, r8
 4788 101c 6344     		add	r3, r3, ip
 4789 101e 1B78     		ldrb	r3, [r3]
 4790 1020 002B     		cmp	r3, #0
 4791 1022 00D1     		bne	.LCB4889
 4792 1024 BEE1     		b	.L290	@long jump
 4793              	.LCB4889:
 4794 1026 C823     		movs	r3, #200
 4795 1028 1822     		movs	r2, #24
 4796 102a 9446     		mov	ip, r2
 4797 102c 0822     		movs	r2, #8
 4798 102e 9046     		mov	r8, r2
 4799 1030 B844     		add	r8, r8, r7
 4800 1032 C444     		add	ip, ip, r8
 4801 1034 6344     		add	r3, r3, ip
 4802 1036 1B68     		ldr	r3, [r3]
 4803 1038 002B     		cmp	r3, #0
 4804 103a 00D0     		beq	.LCB4900
 4805 103c FFE0     		b	.L291	@long jump
 4806              	.LCB4900:
 4807 103e C023     		movs	r3, #192
 4808 1040 1822     		movs	r2, #24
 4809 1042 9446     		mov	ip, r2
 4810 1044 0822     		movs	r2, #8
 4811 1046 9046     		mov	r8, r2
 4812 1048 B844     		add	r8, r8, r7
 4813 104a C444     		add	ip, ip, r8
 4814 104c 6344     		add	r3, r3, ip
 4815 104e 1B68     		ldr	r3, [r3]
 4816 1050 002B     		cmp	r3, #0
 4817 1052 57D0     		beq	.L292
 4818 1054 F423     		movs	r3, #244
 4819 1056 1822     		movs	r2, #24
 4820 1058 9446     		mov	ip, r2
ARM GAS  C:\Users\SONG_J~1\AppData\Local\Temp\ccpfiTpO.s 			page 88


 4821 105a 0822     		movs	r2, #8
 4822 105c 9046     		mov	r8, r2
 4823 105e B844     		add	r8, r8, r7
 4824 1060 C444     		add	ip, ip, r8
 4825 1062 6344     		add	r3, r3, ip
 4826 1064 1B68     		ldr	r3, [r3]
 4827 1066 181D     		adds	r0, r3, #4
 4828 1068 B023     		movs	r3, #176
 4829 106a 1822     		movs	r2, #24
 4830 106c 9446     		mov	ip, r2
 4831 106e 0822     		movs	r2, #8
 4832 1070 9046     		mov	r8, r2
 4833 1072 B844     		add	r8, r8, r7
 4834 1074 C444     		add	ip, ip, r8
 4835 1076 6344     		add	r3, r3, ip
 4836 1078 1968     		ldr	r1, [r3]
 4837 107a C023     		movs	r3, #192
 4838 107c 1822     		movs	r2, #24
 4839 107e 9446     		mov	ip, r2
 4840 1080 0822     		movs	r2, #8
 4841 1082 9046     		mov	r8, r2
 4842 1084 B844     		add	r8, r8, r7
 4843 1086 C444     		add	ip, ip, r8
 4844 1088 6344     		add	r3, r3, ip
 4845 108a 1A68     		ldr	r2, [r3]
 4846 108c F023     		movs	r3, #240
 4847 108e 1824     		movs	r4, #24
 4848 1090 A446     		mov	ip, r4
 4849 1092 0824     		movs	r4, #8
 4850 1094 A046     		mov	r8, r4
 4851 1096 B844     		add	r8, r8, r7
 4852 1098 C444     		add	ip, ip, r8
 4853 109a 6344     		add	r3, r3, ip
 4854 109c 1B68     		ldr	r3, [r3]
 4855 109e 1033     		adds	r3, r3, #16
 4856 10a0 1C00     		movs	r4, r3
 4857 10a2 C823     		movs	r3, #200
 4858 10a4 3B60     		str	r3, [r7]
 4859 10a6 1823     		movs	r3, #24
 4860 10a8 9C46     		mov	ip, r3
 4861 10aa 0823     		movs	r3, #8
 4862 10ac 9846     		mov	r8, r3
 4863 10ae B844     		add	r8, r8, r7
 4864 10b0 C444     		add	ip, ip, r8
 4865 10b2 3B68     		ldr	r3, [r7]
 4866 10b4 6344     		add	r3, r3, ip
 4867 10b6 0093     		str	r3, [sp]
 4868 10b8 2300     		movs	r3, r4
 4869 10ba FFF7FEFF 		bl	lwm2m_data_serialize
 4870 10be 0300     		movs	r3, r0
 4871 10c0 CC22     		movs	r2, #204
 4872 10c2 1820     		movs	r0, #24
 4873 10c4 0821     		movs	r1, #8
 4874 10c6 7918     		adds	r1, r7, r1
 4875 10c8 0918     		adds	r1, r1, r0
 4876 10ca 8918     		adds	r1, r1, r2
 4877 10cc 0B60     		str	r3, [r1]
ARM GAS  C:\Users\SONG_J~1\AppData\Local\Temp\ccpfiTpO.s 			page 89


 4878 10ce 0823     		movs	r3, #8
 4879 10d0 FB18     		adds	r3, r7, r3
 4880 10d2 1B18     		adds	r3, r3, r0
 4881 10d4 9B18     		adds	r3, r3, r2
 4882 10d6 1B68     		ldr	r3, [r3]
 4883 10d8 002B     		cmp	r3, #0
 4884 10da 00DA     		bge	.LCB4980
 4885 10dc 62E2     		b	.L328	@long jump
 4886              	.LCB4980:
 4887 10de CC23     		movs	r3, #204
 4888 10e0 1822     		movs	r2, #24
 4889 10e2 9446     		mov	ip, r2
 4890 10e4 0822     		movs	r2, #8
 4891 10e6 9046     		mov	r8, r2
 4892 10e8 B844     		add	r8, r8, r7
 4893 10ea C444     		add	ip, ip, r8
 4894 10ec 6344     		add	r3, r3, ip
 4895 10ee 1B68     		ldr	r3, [r3]
 4896 10f0 C422     		movs	r2, #196
 4897 10f2 1821     		movs	r1, #24
 4898 10f4 8C46     		mov	ip, r1
 4899 10f6 0821     		movs	r1, #8
 4900 10f8 8846     		mov	r8, r1
 4901 10fa B844     		add	r8, r8, r7
 4902 10fc C444     		add	ip, ip, r8
 4903 10fe 6244     		add	r2, r2, ip
 4904 1100 1360     		str	r3, [r2]
 4905 1102 49E0     		b	.L295
 4906              	.L292:
 4907 1104 F423     		movs	r3, #244
 4908 1106 1822     		movs	r2, #24
 4909 1108 9446     		mov	ip, r2
 4910 110a 0822     		movs	r2, #8
 4911 110c 9046     		mov	r8, r2
 4912 110e B844     		add	r8, r8, r7
 4913 1110 C444     		add	ip, ip, r8
 4914 1112 6344     		add	r3, r3, ip
 4915 1114 1B68     		ldr	r3, [r3]
 4916 1116 191D     		adds	r1, r3, #4
 4917 1118 F023     		movs	r3, #240
 4918 111a 1822     		movs	r2, #24
 4919 111c 9446     		mov	ip, r2
 4920 111e 0822     		movs	r2, #8
 4921 1120 9046     		mov	r8, r2
 4922 1122 B844     		add	r8, r8, r7
 4923 1124 C444     		add	ip, ip, r8
 4924 1126 6344     		add	r3, r3, ip
 4925 1128 1B68     		ldr	r3, [r3]
 4926 112a 1033     		adds	r3, r3, #16
 4927 112c 1A00     		movs	r2, r3
 4928 112e C823     		movs	r3, #200
 4929 1130 1820     		movs	r0, #24
 4930 1132 0824     		movs	r4, #8
 4931 1134 A446     		mov	ip, r4
 4932 1136 BC44     		add	ip, ip, r7
 4933 1138 6044     		add	r0, r0, ip
 4934 113a C418     		adds	r4, r0, r3
ARM GAS  C:\Users\SONG_J~1\AppData\Local\Temp\ccpfiTpO.s 			page 90


 4935 113c F86A     		ldr	r0, [r7, #44]
 4936 113e 0023     		movs	r3, #0
 4937 1140 0193     		str	r3, [sp, #4]
 4938 1142 C423     		movs	r3, #196
 4939 1144 3B60     		str	r3, [r7]
 4940 1146 1823     		movs	r3, #24
 4941 1148 9C46     		mov	ip, r3
 4942 114a 0823     		movs	r3, #8
 4943 114c 9846     		mov	r8, r3
 4944 114e B844     		add	r8, r8, r7
 4945 1150 C444     		add	ip, ip, r8
 4946 1152 3B68     		ldr	r3, [r7]
 4947 1154 6344     		add	r3, r3, ip
 4948 1156 0093     		str	r3, [sp]
 4949 1158 2300     		movs	r3, r4
 4950 115a FFF7FEFF 		bl	object_read
 4951 115e 0300     		movs	r3, r0
 4952 1160 452B     		cmp	r3, #69
 4953 1162 19D0     		beq	.L295
 4954 1164 0023     		movs	r3, #0
 4955 1166 C822     		movs	r2, #200
 4956 1168 1821     		movs	r1, #24
 4957 116a 8C46     		mov	ip, r1
 4958 116c 0821     		movs	r1, #8
 4959 116e 8846     		mov	r8, r1
 4960 1170 B844     		add	r8, r8, r7
 4961 1172 C444     		add	ip, ip, r8
 4962 1174 6244     		add	r2, r2, ip
 4963 1176 1360     		str	r3, [r2]
 4964 1178 15E2     		b	.L294
 4965              	.L339:
 4966 117a C046     		.align	2
 4967              	.L338:
 4968 117c 43030000 		.word	835
 4969 1180 00000000 		.word	__func__.7219
 4970 1184 B8040000 		.word	.LC116
 4971 1188 4E030000 		.word	846
 4972 118c DC040000 		.word	.LC118
 4973 1190 52030000 		.word	850
 4974 1194 08050000 		.word	.LC120
 4975              	.L295:
 4976 1198 B423     		movs	r3, #180
 4977 119a 1822     		movs	r2, #24
 4978 119c 9446     		mov	ip, r2
 4979 119e 0822     		movs	r2, #8
 4980 11a0 9046     		mov	r8, r2
 4981 11a2 B844     		add	r8, r8, r7
 4982 11a4 C444     		add	ip, ip, r8
 4983 11a6 6344     		add	r3, r3, ip
 4984 11a8 9B68     		ldr	r3, [r3, #8]
 4985 11aa 002B     		cmp	r3, #0
 4986 11ac 47D1     		bne	.L291
 4987 11ae 1424     		movs	r4, #20
 4988 11b0 1823     		movs	r3, #24
 4989 11b2 0822     		movs	r2, #8
 4990 11b4 BA18     		adds	r2, r7, r2
 4991 11b6 D218     		adds	r2, r2, r3
ARM GAS  C:\Users\SONG_J~1\AppData\Local\Temp\ccpfiTpO.s 			page 91


 4992 11b8 1019     		adds	r0, r2, r4
 4993 11ba 0023     		movs	r3, #0
 4994 11bc 4522     		movs	r2, #69
 4995 11be 0121     		movs	r1, #1
 4996 11c0 FFF7FEFF 		bl	coap_init_message
 4997 11c4 F023     		movs	r3, #240
 4998 11c6 1822     		movs	r2, #24
 4999 11c8 9446     		mov	ip, r2
 5000 11ca 0822     		movs	r2, #8
 5001 11cc 9046     		mov	r8, r2
 5002 11ce B844     		add	r8, r8, r7
 5003 11d0 C444     		add	ip, ip, r8
 5004 11d2 6344     		add	r3, r3, ip
 5005 11d4 1B68     		ldr	r3, [r3]
 5006 11d6 1B8A     		ldrh	r3, [r3, #16]
 5007 11d8 1A00     		movs	r2, r3
 5008 11da 1823     		movs	r3, #24
 5009 11dc 0821     		movs	r1, #8
 5010 11de 7918     		adds	r1, r7, r1
 5011 11e0 C918     		adds	r1, r1, r3
 5012 11e2 0B19     		adds	r3, r1, r4
 5013 11e4 1100     		movs	r1, r2
 5014 11e6 1800     		movs	r0, r3
 5015 11e8 FFF7FEFF 		bl	coap_set_header_content_type
 5016 11ec C823     		movs	r3, #200
 5017 11ee 1822     		movs	r2, #24
 5018 11f0 9446     		mov	ip, r2
 5019 11f2 0822     		movs	r2, #8
 5020 11f4 9046     		mov	r8, r2
 5021 11f6 B844     		add	r8, r8, r7
 5022 11f8 C444     		add	ip, ip, r8
 5023 11fa 6344     		add	r3, r3, ip
 5024 11fc 1968     		ldr	r1, [r3]
 5025 11fe C423     		movs	r3, #196
 5026 1200 1822     		movs	r2, #24
 5027 1202 9446     		mov	ip, r2
 5028 1204 0822     		movs	r2, #8
 5029 1206 9046     		mov	r8, r2
 5030 1208 B844     		add	r8, r8, r7
 5031 120a C444     		add	ip, ip, r8
 5032 120c 6344     		add	r3, r3, ip
 5033 120e 1A68     		ldr	r2, [r3]
 5034 1210 1823     		movs	r3, #24
 5035 1212 0820     		movs	r0, #8
 5036 1214 3818     		adds	r0, r7, r0
 5037 1216 C018     		adds	r0, r0, r3
 5038 1218 0319     		adds	r3, r0, r4
 5039 121a 1800     		movs	r0, r3
 5040 121c FFF7FEFF 		bl	coap_set_payload
 5041 1220 1823     		movs	r3, #24
 5042 1222 0822     		movs	r2, #8
 5043 1224 9446     		mov	ip, r2
 5044 1226 BC44     		add	ip, ip, r7
 5045 1228 6344     		add	r3, r3, ip
 5046 122a 1B19     		adds	r3, r3, r4
 5047 122c 1B89     		ldrh	r3, [r3, #8]
 5048 122e 1C00     		movs	r4, r3
ARM GAS  C:\Users\SONG_J~1\AppData\Local\Temp\ccpfiTpO.s 			page 92


 5049 1230 DE23     		movs	r3, #222
 5050 1232 9A00     		lsls	r2, r3, #2
 5051 1234 D949     		ldr	r1, .L340
 5052 1236 DA48     		ldr	r0, .L340+4
 5053 1238 2300     		movs	r3, r4
 5054 123a FFF7FEFF 		bl	atiny_printf
 5055              	.L291:
 5056 123e F020     		movs	r0, #240
 5057 1240 1822     		movs	r2, #24
 5058 1242 0823     		movs	r3, #8
 5059 1244 FB18     		adds	r3, r7, r3
 5060 1246 9B18     		adds	r3, r3, r2
 5061 1248 1B18     		adds	r3, r3, r0
 5062 124a 1A68     		ldr	r2, [r3]
 5063 124c 3B6A     		ldr	r3, [r7, #32]
 5064 124e 7C6A     		ldr	r4, [r7, #36]
 5065 1250 1362     		str	r3, [r2, #32]
 5066 1252 5462     		str	r4, [r2, #36]
 5067 1254 FB6A     		ldr	r3, [r7, #44]
 5068 1256 9B8C     		ldrh	r3, [r3, #36]
 5069 1258 5A1C     		adds	r2, r3, #1
 5070 125a 91B2     		uxth	r1, r2
 5071 125c FA6A     		ldr	r2, [r7, #44]
 5072 125e 9184     		strh	r1, [r2, #36]
 5073 1260 1822     		movs	r2, #24
 5074 1262 0821     		movs	r1, #8
 5075 1264 8C46     		mov	ip, r1
 5076 1266 BC44     		add	ip, ip, r7
 5077 1268 6244     		add	r2, r2, ip
 5078 126a 1218     		adds	r2, r2, r0
 5079 126c 1268     		ldr	r2, [r2]
 5080 126e 9385     		strh	r3, [r2, #44]
 5081 1270 B423     		movs	r3, #180
 5082 1272 1822     		movs	r2, #24
 5083 1274 9446     		mov	ip, r2
 5084 1276 0822     		movs	r2, #8
 5085 1278 9046     		mov	r8, r2
 5086 127a B844     		add	r8, r8, r7
 5087 127c C444     		add	ip, ip, r8
 5088 127e 6344     		add	r3, r3, ip
 5089 1280 9B68     		ldr	r3, [r3, #8]
 5090 1282 002B     		cmp	r3, #0
 5091 1284 51D1     		bne	.L296
 5092 1286 F024     		movs	r4, #240
 5093 1288 1821     		movs	r1, #24
 5094 128a 0823     		movs	r3, #8
 5095 128c FB18     		adds	r3, r7, r3
 5096 128e 5B18     		adds	r3, r3, r1
 5097 1290 1B19     		adds	r3, r3, r4
 5098 1292 1B68     		ldr	r3, [r3]
 5099 1294 9A8D     		ldrh	r2, [r3, #44]
 5100 1296 1420     		movs	r0, #20
 5101 1298 0823     		movs	r3, #8
 5102 129a FB18     		adds	r3, r7, r3
 5103 129c 5B18     		adds	r3, r3, r1
 5104 129e 1B18     		adds	r3, r3, r0
 5105 12a0 1A81     		strh	r2, [r3, #8]
ARM GAS  C:\Users\SONG_J~1\AppData\Local\Temp\ccpfiTpO.s 			page 93


 5106 12a2 0A00     		movs	r2, r1
 5107 12a4 0823     		movs	r3, #8
 5108 12a6 FB18     		adds	r3, r7, r3
 5109 12a8 9B18     		adds	r3, r3, r2
 5110 12aa 1B19     		adds	r3, r3, r4
 5111 12ac 1B68     		ldr	r3, [r3]
 5112 12ae 1233     		adds	r3, r3, #18
 5113 12b0 1900     		movs	r1, r3
 5114 12b2 0823     		movs	r3, #8
 5115 12b4 FB18     		adds	r3, r7, r3
 5116 12b6 9B18     		adds	r3, r3, r2
 5117 12b8 1B19     		adds	r3, r3, r4
 5118 12ba 1B68     		ldr	r3, [r3]
 5119 12bc DA69     		ldr	r2, [r3, #28]
 5120 12be 1823     		movs	r3, #24
 5121 12c0 BB62     		str	r3, [r7, #40]
 5122 12c2 0823     		movs	r3, #8
 5123 12c4 9C46     		mov	ip, r3
 5124 12c6 BC44     		add	ip, ip, r7
 5125 12c8 BB6A     		ldr	r3, [r7, #40]
 5126 12ca 6344     		add	r3, r3, ip
 5127 12cc 1B18     		adds	r3, r3, r0
 5128 12ce 1800     		movs	r0, r3
 5129 12d0 FFF7FEFF 		bl	coap_set_header_token
 5130 12d4 1822     		movs	r2, #24
 5131 12d6 1000     		movs	r0, r2
 5132 12d8 0823     		movs	r3, #8
 5133 12da FB18     		adds	r3, r7, r3
 5134 12dc 9B18     		adds	r3, r3, r2
 5135 12de 1B19     		adds	r3, r3, r4
 5136 12e0 1B68     		ldr	r3, [r3]
 5137 12e2 9A6A     		ldr	r2, [r3, #40]
 5138 12e4 511C     		adds	r1, r2, #1
 5139 12e6 0823     		movs	r3, #8
 5140 12e8 FB18     		adds	r3, r7, r3
 5141 12ea 1B18     		adds	r3, r3, r0
 5142 12ec 1B19     		adds	r3, r3, r4
 5143 12ee 1B68     		ldr	r3, [r3]
 5144 12f0 9962     		str	r1, [r3, #40]
 5145 12f2 1420     		movs	r0, #20
 5146 12f4 1821     		movs	r1, #24
 5147 12f6 0823     		movs	r3, #8
 5148 12f8 FB18     		adds	r3, r7, r3
 5149 12fa 5B18     		adds	r3, r3, r1
 5150 12fc 1B18     		adds	r3, r3, r0
 5151 12fe 1100     		movs	r1, r2
 5152 1300 1800     		movs	r0, r3
 5153 1302 FFF7FEFF 		bl	coap_set_header_observe
 5154 1306 1821     		movs	r1, #24
 5155 1308 0823     		movs	r3, #8
 5156 130a FB18     		adds	r3, r7, r3
 5157 130c 5B18     		adds	r3, r3, r1
 5158 130e 1B19     		adds	r3, r3, r4
 5159 1310 1B68     		ldr	r3, [r3]
 5160 1312 9B68     		ldr	r3, [r3, #8]
 5161 1314 DA69     		ldr	r2, [r3, #28]
 5162 1316 1420     		movs	r0, #20
ARM GAS  C:\Users\SONG_J~1\AppData\Local\Temp\ccpfiTpO.s 			page 94


 5163 1318 0823     		movs	r3, #8
 5164 131a FB18     		adds	r3, r7, r3
 5165 131c 5B18     		adds	r3, r3, r1
 5166 131e 1918     		adds	r1, r3, r0
 5167 1320 FB6A     		ldr	r3, [r7, #44]
 5168 1322 1800     		movs	r0, r3
 5169 1324 FFF7FEFF 		bl	message_send
 5170 1328 27E0     		b	.L297
 5171              	.L296:
 5172 132a C823     		movs	r3, #200
 5173 132c 1822     		movs	r2, #24
 5174 132e 9446     		mov	ip, r2
 5175 1330 0822     		movs	r2, #8
 5176 1332 9046     		mov	r8, r2
 5177 1334 B844     		add	r8, r8, r7
 5178 1336 C444     		add	ip, ip, r8
 5179 1338 6344     		add	r3, r3, ip
 5180 133a 1C68     		ldr	r4, [r3]
 5181 133c C423     		movs	r3, #196
 5182 133e 1822     		movs	r2, #24
 5183 1340 9446     		mov	ip, r2
 5184 1342 0822     		movs	r2, #8
 5185 1344 9046     		mov	r8, r2
 5186 1346 B844     		add	r8, r8, r7
 5187 1348 C444     		add	ip, ip, r8
 5188 134a 6344     		add	r3, r3, ip
 5189 134c 1B68     		ldr	r3, [r3]
 5190 134e F022     		movs	r2, #240
 5191 1350 1821     		movs	r1, #24
 5192 1352 8C46     		mov	ip, r1
 5193 1354 0821     		movs	r1, #8
 5194 1356 8846     		mov	r8, r1
 5195 1358 B844     		add	r8, r8, r7
 5196 135a C444     		add	ip, ip, r8
 5197 135c 6244     		add	r2, r2, ip
 5198 135e 1268     		ldr	r2, [r2]
 5199 1360 B421     		movs	r1, #180
 5200 1362 1820     		movs	r0, #24
 5201 1364 8446     		mov	ip, r0
 5202 1366 0820     		movs	r0, #8
 5203 1368 8046     		mov	r8, r0
 5204 136a B844     		add	r8, r8, r7
 5205 136c C444     		add	ip, ip, r8
 5206 136e 6144     		add	r1, r1, ip
 5207 1370 F86A     		ldr	r0, [r7, #44]
 5208 1372 0093     		str	r3, [sp]
 5209 1374 2300     		movs	r3, r4
 5210 1376 FFF7FEFF 		bl	observe_send_transaction
 5211              	.L297:
 5212 137a FB6A     		ldr	r3, [r7, #44]
 5213 137c 1B6A     		ldr	r3, [r3, #32]
 5214 137e 1800     		movs	r0, r3
 5215 1380 FFF7FEFF 		bl	atiny_mutex_lock
 5216 1384 F023     		movs	r3, #240
 5217 1386 1822     		movs	r2, #24
 5218 1388 9446     		mov	ip, r2
 5219 138a 0822     		movs	r2, #8
ARM GAS  C:\Users\SONG_J~1\AppData\Local\Temp\ccpfiTpO.s 			page 95


 5220 138c 9046     		mov	r8, r2
 5221 138e B844     		add	r8, r8, r7
 5222 1390 C444     		add	ip, ip, r8
 5223 1392 6344     		add	r3, r3, ip
 5224 1394 1B68     		ldr	r3, [r3]
 5225 1396 0022     		movs	r2, #0
 5226 1398 5A71     		strb	r2, [r3, #5]
 5227 139a FB6A     		ldr	r3, [r7, #44]
 5228 139c 1B6A     		ldr	r3, [r3, #32]
 5229 139e 1800     		movs	r0, r3
 5230 13a0 FFF7FEFF 		bl	atiny_mutex_unlock
 5231              	.L290:
 5232 13a4 EE23     		movs	r3, #238
 5233 13a6 1822     		movs	r2, #24
 5234 13a8 9446     		mov	ip, r2
 5235 13aa 0822     		movs	r2, #8
 5236 13ac 9046     		mov	r8, r2
 5237 13ae B844     		add	r8, r8, r7
 5238 13b0 C444     		add	ip, ip, r8
 5239 13b2 6344     		add	r3, r3, ip
 5240 13b4 1B78     		ldrb	r3, [r3]
 5241 13b6 002B     		cmp	r3, #0
 5242 13b8 45D0     		beq	.L329
 5243 13ba EF23     		movs	r3, #239
 5244 13bc 1822     		movs	r2, #24
 5245 13be 9446     		mov	ip, r2
 5246 13c0 0822     		movs	r2, #8
 5247 13c2 9046     		mov	r8, r2
 5248 13c4 B844     		add	r8, r8, r7
 5249 13c6 C444     		add	ip, ip, r8
 5250 13c8 6344     		add	r3, r3, ip
 5251 13ca 1B78     		ldrb	r3, [r3]
 5252 13cc 002B     		cmp	r3, #0
 5253 13ce 3AD0     		beq	.L329
 5254 13d0 C023     		movs	r3, #192
 5255 13d2 1822     		movs	r2, #24
 5256 13d4 9446     		mov	ip, r2
 5257 13d6 0822     		movs	r2, #8
 5258 13d8 9046     		mov	r8, r2
 5259 13da B844     		add	r8, r8, r7
 5260 13dc C444     		add	ip, ip, r8
 5261 13de 6344     		add	r3, r3, ip
 5262 13e0 1B68     		ldr	r3, [r3]
 5263 13e2 1B78     		ldrb	r3, [r3]
 5264 13e4 062B     		cmp	r3, #6
 5265 13e6 02D0     		beq	.L300
 5266 13e8 072B     		cmp	r3, #7
 5267 13ea 16D0     		beq	.L301
 5268 13ec 2CE0     		b	.L298
 5269              	.L300:
 5270 13ee A023     		movs	r3, #160
 5271 13f0 1822     		movs	r2, #24
 5272 13f2 9446     		mov	ip, r2
 5273 13f4 0822     		movs	r2, #8
 5274 13f6 9046     		mov	r8, r2
 5275 13f8 B844     		add	r8, r8, r7
 5276 13fa C444     		add	ip, ip, r8
ARM GAS  C:\Users\SONG_J~1\AppData\Local\Temp\ccpfiTpO.s 			page 96


 5277 13fc 6344     		add	r3, r3, ip
 5278 13fe 5C68     		ldr	r4, [r3, #4]
 5279 1400 1B68     		ldr	r3, [r3]
 5280 1402 F022     		movs	r2, #240
 5281 1404 1821     		movs	r1, #24
 5282 1406 8C46     		mov	ip, r1
 5283 1408 0821     		movs	r1, #8
 5284 140a 8846     		mov	r8, r1
 5285 140c B844     		add	r8, r8, r7
 5286 140e C444     		add	ip, ip, r8
 5287 1410 6244     		add	r2, r2, ip
 5288 1412 1268     		ldr	r2, [r2]
 5289 1414 1363     		str	r3, [r2, #48]
 5290 1416 5463     		str	r4, [r2, #52]
 5291 1418 16E0     		b	.L298
 5292              	.L301:
 5293 141a A823     		movs	r3, #168
 5294 141c 1822     		movs	r2, #24
 5295 141e 9446     		mov	ip, r2
 5296 1420 0822     		movs	r2, #8
 5297 1422 9046     		mov	r8, r2
 5298 1424 B844     		add	r8, r8, r7
 5299 1426 C444     		add	ip, ip, r8
 5300 1428 6344     		add	r3, r3, ip
 5301 142a 5C68     		ldr	r4, [r3, #4]
 5302 142c 1B68     		ldr	r3, [r3]
 5303 142e F022     		movs	r2, #240
 5304 1430 1821     		movs	r1, #24
 5305 1432 8C46     		mov	ip, r1
 5306 1434 0821     		movs	r1, #8
 5307 1436 8846     		mov	r8, r1
 5308 1438 B844     		add	r8, r8, r7
 5309 143a C444     		add	ip, ip, r8
 5310 143c 6244     		add	r2, r2, ip
 5311 143e 1268     		ldr	r2, [r2]
 5312 1440 1363     		str	r3, [r2, #48]
 5313 1442 5463     		str	r4, [r2, #52]
 5314 1444 00E0     		b	.L298
 5315              	.L329:
 5316 1446 C046     		nop
 5317              	.L298:
 5318 1448 F023     		movs	r3, #240
 5319 144a 1822     		movs	r2, #24
 5320 144c 9446     		mov	ip, r2
 5321 144e 0822     		movs	r2, #8
 5322 1450 9046     		mov	r8, r2
 5323 1452 B844     		add	r8, r8, r7
 5324 1454 C444     		add	ip, ip, r8
 5325 1456 6344     		add	r3, r3, ip
 5326 1458 1B68     		ldr	r3, [r3]
 5327 145a DB68     		ldr	r3, [r3, #12]
 5328 145c 002B     		cmp	r3, #0
 5329 145e 00D1     		bne	.LCB5480
 5330 1460 7CE0     		b	.L229	@long jump
 5331              	.LCB5480:
 5332 1462 F023     		movs	r3, #240
 5333 1464 1822     		movs	r2, #24
ARM GAS  C:\Users\SONG_J~1\AppData\Local\Temp\ccpfiTpO.s 			page 97


 5334 1466 9446     		mov	ip, r2
 5335 1468 0822     		movs	r2, #8
 5336 146a 9046     		mov	r8, r2
 5337 146c B844     		add	r8, r8, r7
 5338 146e C444     		add	ip, ip, r8
 5339 1470 6344     		add	r3, r3, ip
 5340 1472 1B68     		ldr	r3, [r3]
 5341 1474 DB68     		ldr	r3, [r3, #12]
 5342 1476 1B78     		ldrb	r3, [r3]
 5343 1478 1A00     		movs	r2, r3
 5344 147a 0223     		movs	r3, #2
 5345 147c 1340     		ands	r3, r2
 5346 147e 6DD0     		beq	.L229
 5347 1480 F022     		movs	r2, #240
 5348 1482 1823     		movs	r3, #24
 5349 1484 0821     		movs	r1, #8
 5350 1486 8C46     		mov	ip, r1
 5351 1488 BC44     		add	ip, ip, r7
 5352 148a 6344     		add	r3, r3, ip
 5353 148c 9B18     		adds	r3, r3, r2
 5354 148e 1B68     		ldr	r3, [r3]
 5355 1490 5C6A     		ldr	r4, [r3, #36]
 5356 1492 1B6A     		ldr	r3, [r3, #32]
 5357 1494 1821     		movs	r1, #24
 5358 1496 8C46     		mov	ip, r1
 5359 1498 0821     		movs	r1, #8
 5360 149a 8846     		mov	r8, r1
 5361 149c B844     		add	r8, r8, r7
 5362 149e C444     		add	ip, ip, r8
 5363 14a0 6244     		add	r2, r2, ip
 5364 14a2 1268     		ldr	r2, [r2]
 5365 14a4 D268     		ldr	r2, [r2, #12]
 5366 14a6 9268     		ldr	r2, [r2, #8]
 5367 14a8 BA60     		str	r2, [r7, #8]
 5368 14aa 0022     		movs	r2, #0
 5369 14ac FA60     		str	r2, [r7, #12]
 5370 14ae B968     		ldr	r1, [r7, #8]
 5371 14b0 FA68     		ldr	r2, [r7, #12]
 5372 14b2 C918     		adds	r1, r1, r3
 5373 14b4 6241     		adcs	r2, r2, r4
 5374 14b6 3B6A     		ldr	r3, [r7, #32]
 5375 14b8 7C6A     		ldr	r4, [r7, #36]
 5376 14ba C91A     		subs	r1, r1, r3
 5377 14bc A241     		sbcs	r2, r2, r4
 5378 14be 0B00     		movs	r3, r1
 5379 14c0 1400     		movs	r4, r2
 5380 14c2 D022     		movs	r2, #208
 5381 14c4 1821     		movs	r1, #24
 5382 14c6 8C46     		mov	ip, r1
 5383 14c8 0821     		movs	r1, #8
 5384 14ca 8846     		mov	r8, r1
 5385 14cc B844     		add	r8, r8, r7
 5386 14ce C444     		add	ip, ip, r8
 5387 14d0 6244     		add	r2, r2, ip
 5388 14d2 1360     		str	r3, [r2]
 5389 14d4 5460     		str	r4, [r2, #4]
 5390 14d6 8823     		movs	r3, #136
ARM GAS  C:\Users\SONG_J~1\AppData\Local\Temp\ccpfiTpO.s 			page 98


 5391 14d8 5B00     		lsls	r3, r3, #1
 5392 14da 1822     		movs	r2, #24
 5393 14dc 9446     		mov	ip, r2
 5394 14de 0822     		movs	r2, #8
 5395 14e0 9046     		mov	r8, r2
 5396 14e2 B844     		add	r8, r8, r7
 5397 14e4 C444     		add	ip, ip, r8
 5398 14e6 6344     		add	r3, r3, ip
 5399 14e8 1B68     		ldr	r3, [r3]
 5400 14ea 5C68     		ldr	r4, [r3, #4]
 5401 14ec 1B68     		ldr	r3, [r3]
 5402 14ee D422     		movs	r2, #212
 5403 14f0 1821     		movs	r1, #24
 5404 14f2 8C46     		mov	ip, r1
 5405 14f4 0821     		movs	r1, #8
 5406 14f6 8846     		mov	r8, r1
 5407 14f8 B844     		add	r8, r8, r7
 5408 14fa C444     		add	ip, ip, r8
 5409 14fc 6244     		add	r2, r2, ip
 5410 14fe 1268     		ldr	r2, [r2]
 5411 1500 A242     		cmp	r2, r4
 5412 1502 15DB     		blt	.L321
 5413 1504 D422     		movs	r2, #212
 5414 1506 1821     		movs	r1, #24
 5415 1508 8C46     		mov	ip, r1
 5416 150a 0821     		movs	r1, #8
 5417 150c 8846     		mov	r8, r1
 5418 150e B844     		add	r8, r8, r7
 5419 1510 C444     		add	ip, ip, r8
 5420 1512 6244     		add	r2, r2, ip
 5421 1514 1268     		ldr	r2, [r2]
 5422 1516 A242     		cmp	r2, r4
 5423 1518 20D1     		bne	.L229
 5424 151a D022     		movs	r2, #208
 5425 151c 1821     		movs	r1, #24
 5426 151e 8C46     		mov	ip, r1
 5427 1520 0821     		movs	r1, #8
 5428 1522 8846     		mov	r8, r1
 5429 1524 B844     		add	r8, r8, r7
 5430 1526 C444     		add	ip, ip, r8
 5431 1528 6244     		add	r2, r2, ip
 5432 152a 1268     		ldr	r2, [r2]
 5433 152c 9A42     		cmp	r2, r3
 5434 152e 15D2     		bcs	.L229
 5435              	.L321:
 5436 1530 8823     		movs	r3, #136
 5437 1532 5B00     		lsls	r3, r3, #1
 5438 1534 1822     		movs	r2, #24
 5439 1536 9446     		mov	ip, r2
 5440 1538 0822     		movs	r2, #8
 5441 153a 9046     		mov	r8, r2
 5442 153c B844     		add	r8, r8, r7
 5443 153e C444     		add	ip, ip, r8
 5444 1540 6344     		add	r3, r3, ip
 5445 1542 1A68     		ldr	r2, [r3]
 5446 1544 D023     		movs	r3, #208
 5447 1546 1821     		movs	r1, #24
ARM GAS  C:\Users\SONG_J~1\AppData\Local\Temp\ccpfiTpO.s 			page 99


 5448 1548 8C46     		mov	ip, r1
 5449 154a 0821     		movs	r1, #8
 5450 154c 8846     		mov	r8, r1
 5451 154e B844     		add	r8, r8, r7
 5452 1550 C444     		add	ip, ip, r8
 5453 1552 6344     		add	r3, r3, ip
 5454 1554 5C68     		ldr	r4, [r3, #4]
 5455 1556 1B68     		ldr	r3, [r3]
 5456 1558 1360     		str	r3, [r2]
 5457 155a 5460     		str	r4, [r2, #4]
 5458              	.L229:
 5459 155c F022     		movs	r2, #240
 5460 155e 1823     		movs	r3, #24
 5461 1560 0821     		movs	r1, #8
 5462 1562 8C46     		mov	ip, r1
 5463 1564 BC44     		add	ip, ip, r7
 5464 1566 6344     		add	r3, r3, ip
 5465 1568 9B18     		adds	r3, r3, r2
 5466 156a 1B68     		ldr	r3, [r3]
 5467 156c 1B68     		ldr	r3, [r3]
 5468 156e 1821     		movs	r1, #24
 5469 1570 8C46     		mov	ip, r1
 5470 1572 0821     		movs	r1, #8
 5471 1574 8846     		mov	r8, r1
 5472 1576 B844     		add	r8, r8, r7
 5473 1578 C444     		add	ip, ip, r8
 5474 157a 6244     		add	r2, r2, ip
 5475 157c 1360     		str	r3, [r2]
 5476              	.L228:
 5477 157e F023     		movs	r3, #240
 5478 1580 1822     		movs	r2, #24
 5479 1582 9446     		mov	ip, r2
 5480 1584 0822     		movs	r2, #8
 5481 1586 9046     		mov	r8, r2
 5482 1588 B844     		add	r8, r8, r7
 5483 158a C444     		add	ip, ip, r8
 5484 158c 6344     		add	r3, r3, ip
 5485 158e 1B68     		ldr	r3, [r3]
 5486 1590 002B     		cmp	r3, #0
 5487 1592 01D0     		beq	.LCB5632
 5488 1594 FEF72AFF 		bl	.L303	@far jump
 5489              	.LCB5632:
 5490 1598 05E0     		b	.L294
 5491              	.L341:
 5492 159a C046     		.align	2
 5493              	.L340:
 5494 159c 00000000 		.word	__func__.7219
 5495 15a0 2C050000 		.word	.LC122
 5496              	.L328:
 5497 15a4 C046     		nop
 5498              	.L294:
 5499 15a6 C023     		movs	r3, #192
 5500 15a8 1822     		movs	r2, #24
 5501 15aa 9446     		mov	ip, r2
 5502 15ac 0822     		movs	r2, #8
 5503 15ae 9046     		mov	r8, r2
 5504 15b0 B844     		add	r8, r8, r7
ARM GAS  C:\Users\SONG_J~1\AppData\Local\Temp\ccpfiTpO.s 			page 100


 5505 15b2 C444     		add	ip, ip, r8
 5506 15b4 6344     		add	r3, r3, ip
 5507 15b6 1B68     		ldr	r3, [r3]
 5508 15b8 002B     		cmp	r3, #0
 5509 15ba 15D0     		beq	.L304
 5510 15bc B023     		movs	r3, #176
 5511 15be 1822     		movs	r2, #24
 5512 15c0 9446     		mov	ip, r2
 5513 15c2 0822     		movs	r2, #8
 5514 15c4 9046     		mov	r8, r2
 5515 15c6 B844     		add	r8, r8, r7
 5516 15c8 C444     		add	ip, ip, r8
 5517 15ca 6344     		add	r3, r3, ip
 5518 15cc 1B68     		ldr	r3, [r3]
 5519 15ce C022     		movs	r2, #192
 5520 15d0 1821     		movs	r1, #24
 5521 15d2 8C46     		mov	ip, r1
 5522 15d4 0821     		movs	r1, #8
 5523 15d6 8846     		mov	r8, r1
 5524 15d8 B844     		add	r8, r8, r7
 5525 15da C444     		add	ip, ip, r8
 5526 15dc 6244     		add	r2, r2, ip
 5527 15de 1268     		ldr	r2, [r2]
 5528 15e0 1100     		movs	r1, r2
 5529 15e2 1800     		movs	r0, r3
 5530 15e4 FFF7FEFF 		bl	lwm2m_data_free
 5531              	.L304:
 5532 15e8 C823     		movs	r3, #200
 5533 15ea 1822     		movs	r2, #24
 5534 15ec 9446     		mov	ip, r2
 5535 15ee 0822     		movs	r2, #8
 5536 15f0 9046     		mov	r8, r2
 5537 15f2 B844     		add	r8, r8, r7
 5538 15f4 C444     		add	ip, ip, r8
 5539 15f6 6344     		add	r3, r3, ip
 5540 15f8 1B68     		ldr	r3, [r3]
 5541 15fa 002B     		cmp	r3, #0
 5542 15fc 0DD0     		beq	.L306
 5543 15fe C823     		movs	r3, #200
 5544 1600 1822     		movs	r2, #24
 5545 1602 9446     		mov	ip, r2
 5546 1604 0822     		movs	r2, #8
 5547 1606 9046     		mov	r8, r2
 5548 1608 B844     		add	r8, r8, r7
 5549 160a C444     		add	ip, ip, r8
 5550 160c 6344     		add	r3, r3, ip
 5551 160e 1B68     		ldr	r3, [r3]
 5552 1610 1800     		movs	r0, r3
 5553 1612 FFF7FEFF 		bl	lwm2m_free
 5554 1616 00E0     		b	.L306
 5555              	.L323:
 5556 1618 C046     		nop
 5557              	.L306:
 5558 161a F422     		movs	r2, #244
 5559 161c 1823     		movs	r3, #24
 5560 161e 0821     		movs	r1, #8
 5561 1620 8C46     		mov	ip, r1
ARM GAS  C:\Users\SONG_J~1\AppData\Local\Temp\ccpfiTpO.s 			page 101


 5562 1622 BC44     		add	ip, ip, r7
 5563 1624 6344     		add	r3, r3, ip
 5564 1626 9B18     		adds	r3, r3, r2
 5565 1628 1B68     		ldr	r3, [r3]
 5566 162a 1B68     		ldr	r3, [r3]
 5567 162c 1821     		movs	r1, #24
 5568 162e 8C46     		mov	ip, r1
 5569 1630 0821     		movs	r1, #8
 5570 1632 8846     		mov	r8, r1
 5571 1634 B844     		add	r8, r8, r7
 5572 1636 C444     		add	ip, ip, r8
 5573 1638 6244     		add	r2, r2, ip
 5574 163a 1360     		str	r3, [r2]
 5575              	.L214:
 5576 163c F423     		movs	r3, #244
 5577 163e 1822     		movs	r2, #24
 5578 1640 9446     		mov	ip, r2
 5579 1642 0822     		movs	r2, #8
 5580 1644 9046     		mov	r8, r2
 5581 1646 B844     		add	r8, r8, r7
 5582 1648 C444     		add	ip, ip, r8
 5583 164a 6344     		add	r3, r3, ip
 5584 164c 1B68     		ldr	r3, [r3]
 5585 164e 002B     		cmp	r3, #0
 5586 1650 01D0     		beq	.LCB5740
 5587 1652 FEF7F0FC 		bl	.L307	@far jump
 5588              	.LCB5740:
 5589 1656 C046     		nop
 5590 1658 BD46     		mov	sp, r7
 5591 165a 46B0     		add	sp, sp, #280
 5592              		@ sp needed
 5593 165c 04BC     		pop	{r2}
 5594 165e 9046     		mov	r8, r2
 5595 1660 F0BD     		pop	{r4, r5, r6, r7, pc}
 5597 1662 C046     		.section	.rodata
 5598 054a 0000     		.align	2
 5599              	.LC125:
 5600 054c 5B25733A 		.ascii	"[%s:%d] null pointer\012\015\012\000"
 5600      25645D20 
 5600      6E756C6C 
 5600      20706F69 
 5600      6E746572 
 5601              		.section	.text.lwm2m_get_observe_info,"ax",%progbits
 5602              		.align	1
 5603              		.global	lwm2m_get_observe_info
 5604              		.syntax unified
 5605              		.code	16
 5606              		.thumb_func
 5607              		.fpu softvfp
 5609              	lwm2m_get_observe_info:
 5610              		@ args = 0, pretend = 0, frame = 16
 5611              		@ frame_needed = 1, uses_anonymous_args = 0
 5612 0000 80B5     		push	{r7, lr}
 5613 0002 84B0     		sub	sp, sp, #16
 5614 0004 00AF     		add	r7, sp, #0
 5615 0006 7860     		str	r0, [r7, #4]
 5616 0008 3960     		str	r1, [r7]
ARM GAS  C:\Users\SONG_J~1\AppData\Local\Temp\ccpfiTpO.s 			page 102


 5617 000a 3B68     		ldr	r3, [r7]
 5618 000c 002B     		cmp	r3, #0
 5619 000e 02D0     		beq	.L343
 5620 0010 7B68     		ldr	r3, [r7, #4]
 5621 0012 002B     		cmp	r3, #0
 5622 0014 07D1     		bne	.L344
 5623              	.L343:
 5624 0016 224A     		ldr	r2, .L350
 5625 0018 2249     		ldr	r1, .L350+4
 5626 001a 234B     		ldr	r3, .L350+8
 5627 001c 1800     		movs	r0, r3
 5628 001e FFF7FEFF 		bl	atiny_printf
 5629 0022 A023     		movs	r3, #160
 5630 0024 37E0     		b	.L345
 5631              	.L344:
 5632 0026 7B68     		ldr	r3, [r7, #4]
 5633 0028 DB69     		ldr	r3, [r3, #28]
 5634 002a FB60     		str	r3, [r7, #12]
 5635 002c 2FE0     		b	.L346
 5636              	.L349:
 5637 002e FB68     		ldr	r3, [r7, #12]
 5638 0030 1B79     		ldrb	r3, [r3, #4]
 5639 0032 1A00     		movs	r2, r3
 5640 0034 0123     		movs	r3, #1
 5641 0036 1340     		ands	r3, r2
 5642 0038 0BD0     		beq	.L347
 5643 003a FB68     		ldr	r3, [r7, #12]
 5644 003c DB88     		ldrh	r3, [r3, #6]
 5645 003e 052B     		cmp	r3, #5
 5646 0040 07D1     		bne	.L347
 5647 0042 FB68     		ldr	r3, [r7, #12]
 5648 0044 1B89     		ldrh	r3, [r3, #8]
 5649 0046 002B     		cmp	r3, #0
 5650 0048 03D1     		bne	.L347
 5651 004a FB68     		ldr	r3, [r7, #12]
 5652 004c 5B89     		ldrh	r3, [r3, #10]
 5653 004e 032B     		cmp	r3, #3
 5654 0050 03D0     		beq	.L348
 5655              	.L347:
 5656 0052 FB68     		ldr	r3, [r7, #12]
 5657 0054 1B68     		ldr	r3, [r3]
 5658 0056 FB60     		str	r3, [r7, #12]
 5659 0058 19E0     		b	.L346
 5660              	.L348:
 5661 005a FB68     		ldr	r3, [r7, #12]
 5662 005c DB68     		ldr	r3, [r3, #12]
 5663 005e BB60     		str	r3, [r7, #8]
 5664 0060 BB68     		ldr	r3, [r7, #8]
 5665 0062 9A6A     		ldr	r2, [r3, #40]
 5666 0064 3B68     		ldr	r3, [r7]
 5667 0066 1A61     		str	r2, [r3, #16]
 5668 0068 3B68     		ldr	r3, [r7]
 5669 006a 181D     		adds	r0, r3, #4
 5670 006c BB68     		ldr	r3, [r7, #8]
 5671 006e 1233     		adds	r3, r3, #18
 5672 0070 0822     		movs	r2, #8
 5673 0072 1900     		movs	r1, r3
ARM GAS  C:\Users\SONG_J~1\AppData\Local\Temp\ccpfiTpO.s 			page 103


 5674 0074 FFF7FEFF 		bl	memcpy
 5675 0078 BB68     		ldr	r3, [r7, #8]
 5676 007a DA69     		ldr	r2, [r3, #28]
 5677 007c 3B68     		ldr	r3, [r7]
 5678 007e DA60     		str	r2, [r3, #12]
 5679 0080 BB68     		ldr	r3, [r7, #8]
 5680 0082 1B8A     		ldrh	r3, [r3, #16]
 5681 0084 1A00     		movs	r2, r3
 5682 0086 3B68     		ldr	r3, [r7]
 5683 0088 1A60     		str	r2, [r3]
 5684 008a 0023     		movs	r3, #0
 5685 008c 03E0     		b	.L345
 5686              	.L346:
 5687 008e FB68     		ldr	r3, [r7, #12]
 5688 0090 002B     		cmp	r3, #0
 5689 0092 CCD1     		bne	.L349
 5690 0094 A023     		movs	r3, #160
 5691              	.L345:
 5692 0096 1800     		movs	r0, r3
 5693 0098 BD46     		mov	sp, r7
 5694 009a 04B0     		add	sp, sp, #16
 5695              		@ sp needed
 5696 009c 80BD     		pop	{r7, pc}
 5697              	.L351:
 5698 009e C046     		.align	2
 5699              	.L350:
 5700 00a0 B5030000 		.word	949
 5701 00a4 00000000 		.word	__func__.7268
 5702 00a8 4C050000 		.word	.LC125
 5704              		.section	.rodata
 5705              		.align	2
 5706              	.LC129:
 5707 0564 5B25733A 		.ascii	"[%s:%d] registration_get_registered_server fail\012"
 5707      25645D20 
 5707      72656769 
 5707      73747261 
 5707      74696F6E 
 5708 0594 0D0A00   		.ascii	"\015\012\000"
 5709 0597 00       		.align	2
 5710              	.LC131:
 5711 0598 5B25733A 		.ascii	"[%s:%d] lwm2m_data_serialize fail\012\015\012\000"
 5711      25645D20 
 5711      6C776D32 
 5711      6D5F6461 
 5711      74615F73 
 5712              		.section	.text.lwm2m_send_notify,"ax",%progbits
 5713              		.align	1
 5714              		.global	lwm2m_send_notify
 5715              		.syntax unified
 5716              		.code	16
 5717              		.thumb_func
 5718              		.fpu softvfp
 5720              	lwm2m_send_notify:
 5721              		@ args = 0, pretend = 0, frame = 112
 5722              		@ frame_needed = 1, uses_anonymous_args = 0
 5723 0000 F0B5     		push	{r4, r5, r6, r7, lr}
 5724 0002 9FB0     		sub	sp, sp, #124
ARM GAS  C:\Users\SONG_J~1\AppData\Local\Temp\ccpfiTpO.s 			page 104


 5725 0004 02AF     		add	r7, sp, #8
 5726 0006 F860     		str	r0, [r7, #12]
 5727 0008 B960     		str	r1, [r7, #8]
 5728 000a 7A60     		str	r2, [r7, #4]
 5729 000c 3B60     		str	r3, [r7]
 5730 000e 0023     		movs	r3, #0
 5731 0010 BB64     		str	r3, [r7, #72]
 5732 0012 BB68     		ldr	r3, [r7, #8]
 5733 0014 002B     		cmp	r3, #0
 5734 0016 05D0     		beq	.L353
 5735 0018 FB68     		ldr	r3, [r7, #12]
 5736 001a 002B     		cmp	r3, #0
 5737 001c 02D0     		beq	.L353
 5738 001e 3B68     		ldr	r3, [r7]
 5739 0020 002B     		cmp	r3, #0
 5740 0022 07D1     		bne	.L354
 5741              	.L353:
 5742 0024 4D4A     		ldr	r2, .L360
 5743 0026 4E49     		ldr	r1, .L360+4
 5744 0028 4E4B     		ldr	r3, .L360+8
 5745 002a 1800     		movs	r0, r3
 5746 002c FFF7FEFF 		bl	atiny_printf
 5747 0030 A023     		movs	r3, #160
 5748 0032 8FE0     		b	.L359
 5749              	.L354:
 5750 0034 FB68     		ldr	r3, [r7, #12]
 5751 0036 1800     		movs	r0, r3
 5752 0038 FFF7FEFF 		bl	registration_get_registered_server
 5753 003c 0300     		movs	r3, r0
 5754 003e FB66     		str	r3, [r7, #108]
 5755 0040 FB6E     		ldr	r3, [r7, #108]
 5756 0042 002B     		cmp	r3, #0
 5757 0044 08D1     		bne	.L356
 5758 0046 F823     		movs	r3, #248
 5759 0048 9A00     		lsls	r2, r3, #2
 5760 004a 4549     		ldr	r1, .L360+4
 5761 004c 464B     		ldr	r3, .L360+12
 5762 004e 1800     		movs	r0, r3
 5763 0050 FFF7FEFF 		bl	atiny_printf
 5764 0054 A023     		movs	r3, #160
 5765 0056 7DE0     		b	.L359
 5766              	.L356:
 5767 0058 6026     		movs	r6, #96
 5768 005a BB19     		adds	r3, r7, r6
 5769 005c 0522     		movs	r2, #5
 5770 005e 5A80     		strh	r2, [r3, #2]
 5771 0060 BB19     		adds	r3, r7, r6
 5772 0062 0022     		movs	r2, #0
 5773 0064 9A80     		strh	r2, [r3, #4]
 5774 0066 BB19     		adds	r3, r7, r6
 5775 0068 0322     		movs	r2, #3
 5776 006a DA80     		strh	r2, [r3, #6]
 5777 006c BB19     		adds	r3, r7, r6
 5778 006e 0722     		movs	r2, #7
 5779 0070 1A70     		strb	r2, [r3]
 5780 0072 BB68     		ldr	r3, [r7, #8]
 5781 0074 1B68     		ldr	r3, [r3]
ARM GAS  C:\Users\SONG_J~1\AppData\Local\Temp\ccpfiTpO.s 			page 105


 5782 0076 9AB2     		uxth	r2, r3
 5783 0078 4E23     		movs	r3, #78
 5784 007a FB18     		adds	r3, r7, r3
 5785 007c 1A80     		strh	r2, [r3]
 5786 007e 5021     		movs	r1, #80
 5787 0080 7B18     		adds	r3, r7, r1
 5788 0082 1022     		movs	r2, #16
 5789 0084 0021     		movs	r1, #0
 5790 0086 1800     		movs	r0, r3
 5791 0088 FFF7FEFF 		bl	memset
 5792 008c BB19     		adds	r3, r7, r6
 5793 008e DA88     		ldrh	r2, [r3, #6]
 5794 0090 5021     		movs	r1, #80
 5795 0092 7B18     		adds	r3, r7, r1
 5796 0094 5A80     		strh	r2, [r3, #2]
 5797 0096 7B68     		ldr	r3, [r7, #4]
 5798 0098 1C00     		movs	r4, r3
 5799 009a DB17     		asrs	r3, r3, #31
 5800 009c 1D00     		movs	r5, r3
 5801 009e 7B18     		adds	r3, r7, r1
 5802 00a0 1A00     		movs	r2, r3
 5803 00a2 2000     		movs	r0, r4
 5804 00a4 2900     		movs	r1, r5
 5805 00a6 FFF7FEFF 		bl	lwm2m_data_encode_int
 5806 00aa 4E23     		movs	r3, #78
 5807 00ac F918     		adds	r1, r7, r3
 5808 00ae 5023     		movs	r3, #80
 5809 00b0 FA18     		adds	r2, r7, r3
 5810 00b2 B819     		adds	r0, r7, r6
 5811 00b4 4823     		movs	r3, #72
 5812 00b6 FB18     		adds	r3, r7, r3
 5813 00b8 0093     		str	r3, [sp]
 5814 00ba 0B00     		movs	r3, r1
 5815 00bc 0121     		movs	r1, #1
 5816 00be FFF7FEFF 		bl	lwm2m_data_serialize
 5817 00c2 0300     		movs	r3, r0
 5818 00c4 BB66     		str	r3, [r7, #104]
 5819 00c6 BB6E     		ldr	r3, [r7, #104]
 5820 00c8 002B     		cmp	r3, #0
 5821 00ca 0FDA     		bge	.L357
 5822 00cc FC23     		movs	r3, #252
 5823 00ce 9A00     		lsls	r2, r3, #2
 5824 00d0 2349     		ldr	r1, .L360+4
 5825 00d2 264B     		ldr	r3, .L360+16
 5826 00d4 1800     		movs	r0, r3
 5827 00d6 FFF7FEFF 		bl	atiny_printf
 5828 00da BB6C     		ldr	r3, [r7, #72]
 5829 00dc 002B     		cmp	r3, #0
 5830 00de 03D0     		beq	.L358
 5831 00e0 BB6C     		ldr	r3, [r7, #72]
 5832 00e2 1800     		movs	r0, r3
 5833 00e4 FFF7FEFF 		bl	lwm2m_free
 5834              	.L358:
 5835 00e8 A023     		movs	r3, #160
 5836 00ea 33E0     		b	.L359
 5837              	.L357:
 5838 00ec 1024     		movs	r4, #16
ARM GAS  C:\Users\SONG_J~1\AppData\Local\Temp\ccpfiTpO.s 			page 106


 5839 00ee 3B19     		adds	r3, r7, r4
 5840 00f0 3822     		movs	r2, #56
 5841 00f2 0021     		movs	r1, #0
 5842 00f4 1800     		movs	r0, r3
 5843 00f6 FFF7FEFF 		bl	memset
 5844 00fa FB68     		ldr	r3, [r7, #12]
 5845 00fc 9B8C     		ldrh	r3, [r3, #36]
 5846 00fe 5A1C     		adds	r2, r3, #1
 5847 0100 91B2     		uxth	r1, r2
 5848 0102 FA68     		ldr	r2, [r7, #12]
 5849 0104 9184     		strh	r1, [r2, #36]
 5850 0106 3A19     		adds	r2, r7, r4
 5851 0108 9385     		strh	r3, [r2, #44]
 5852 010a BB68     		ldr	r3, [r7, #8]
 5853 010c DA68     		ldr	r2, [r3, #12]
 5854 010e 3B19     		adds	r3, r7, r4
 5855 0110 DA61     		str	r2, [r3, #28]
 5856 0112 BB68     		ldr	r3, [r7, #8]
 5857 0114 191D     		adds	r1, r3, #4
 5858 0116 3B19     		adds	r3, r7, r4
 5859 0118 1222     		movs	r2, #18
 5860 011a 9B18     		adds	r3, r3, r2
 5861 011c 0822     		movs	r2, #8
 5862 011e 1800     		movs	r0, r3
 5863 0120 FFF7FEFF 		bl	memcpy
 5864 0124 4E23     		movs	r3, #78
 5865 0126 FB18     		adds	r3, r7, r3
 5866 0128 1A88     		ldrh	r2, [r3]
 5867 012a 3B19     		adds	r3, r7, r4
 5868 012c 1A82     		strh	r2, [r3, #16]
 5869 012e BB68     		ldr	r3, [r7, #8]
 5870 0130 1A69     		ldr	r2, [r3, #16]
 5871 0132 3B19     		adds	r3, r7, r4
 5872 0134 9A62     		str	r2, [r3, #40]
 5873 0136 2100     		movs	r1, r4
 5874 0138 3B19     		adds	r3, r7, r4
 5875 013a FA6E     		ldr	r2, [r7, #108]
 5876 013c 9A60     		str	r2, [r3, #8]
 5877 013e BC6C     		ldr	r4, [r7, #72]
 5878 0140 BB6E     		ldr	r3, [r7, #104]
 5879 0142 7A18     		adds	r2, r7, r1
 5880 0144 3968     		ldr	r1, [r7]
 5881 0146 F868     		ldr	r0, [r7, #12]
 5882 0148 0093     		str	r3, [sp]
 5883 014a 2300     		movs	r3, r4
 5884 014c FFF7FEFF 		bl	observe_send_transaction
 5885 0150 0300     		movs	r3, r0
 5886 0152 DBB2     		uxtb	r3, r3
 5887              	.L359:
 5888 0154 1800     		movs	r0, r3
 5889 0156 BD46     		mov	sp, r7
 5890 0158 1DB0     		add	sp, sp, #116
 5891              		@ sp needed
 5892 015a F0BD     		pop	{r4, r5, r6, r7, pc}
 5893              	.L361:
 5894              		.align	2
 5895              	.L360:
ARM GAS  C:\Users\SONG_J~1\AppData\Local\Temp\ccpfiTpO.s 			page 107


 5896 015c D9030000 		.word	985
 5897 0160 00000000 		.word	__func__.7286
 5898 0164 4C050000 		.word	.LC125
 5899 0168 64050000 		.word	.LC129
 5900 016c 98050000 		.word	.LC131
 5902              		.section	.rodata.__func__.7111,"a",%progbits
 5903              		.align	2
 5906              	__func__.7111:
 5907 0000 6F627365 		.ascii	"observe_handleRequest\000"
 5907      7276655F 
 5907      68616E64 
 5907      6C655265 
 5907      71756573 
 5908              		.section	.rodata.__func__.7125,"a",%progbits
 5909              		.align	2
 5912              	__func__.7125:
 5913 0000 6F627365 		.ascii	"observe_cancel\000"
 5913      7276655F 
 5913      63616E63 
 5913      656C00
 5914              		.section	.rodata.__func__.7139,"a",%progbits
 5915              		.align	2
 5918              	__func__.7139:
 5919 0000 6F627365 		.ascii	"observe_clear\000"
 5919      7276655F 
 5919      636C6561 
 5919      7200
 5920              		.section	.rodata.__func__.7156,"a",%progbits
 5921              		.align	2
 5924              	__func__.7156:
 5925 0000 6F627365 		.ascii	"observe_setParameters\000"
 5925      7276655F 
 5925      73657450 
 5925      6172616D 
 5925      65746572 
 5926              		.section	.rodata.__func__.7165,"a",%progbits
 5927              		.align	2
 5930              	__func__.7165:
 5931 0000 6F627365 		.ascii	"observe_findByUri\000"
 5931      7276655F 
 5931      66696E64 
 5931      42795572 
 5931      6900
 5932              		.section	.rodata.__func__.7174,"a",%progbits
 5933              		.align	2
 5936              	__func__.7174:
 5937 0000 6C776D32 		.ascii	"lwm2m_resource_value_changed\000"
 5937      6D5F7265 
 5937      736F7572 
 5937      63655F76 
 5937      616C7565 
 5938              		.section	.rodata.__func__.7191,"a",%progbits
 5939              		.align	2
 5942              	__func__.7191:
 5943 0000 6F627365 		.ascii	"observe_send_transaction\000"
 5943      7276655F 
 5943      73656E64 
ARM GAS  C:\Users\SONG_J~1\AppData\Local\Temp\ccpfiTpO.s 			page 108


 5943      5F747261 
 5943      6E736163 
 5944              		.section	.rodata.__func__.7198,"a",%progbits
 5945              		.align	2
 5948              	__func__.7198:
 5949 0000 6F627365 		.ascii	"observe_app_step\000"
 5949      7276655F 
 5949      6170705F 
 5949      73746570 
 5949      00
 5950              		.section	.rodata.__func__.7219,"a",%progbits
 5951              		.align	2
 5954              	__func__.7219:
 5955 0000 6F627365 		.ascii	"observe_step\000"
 5955      7276655F 
 5955      73746570 
 5955      00
 5956              		.section	.rodata.__func__.7268,"a",%progbits
 5957              		.align	2
 5960              	__func__.7268:
 5961 0000 6C776D32 		.ascii	"lwm2m_get_observe_info\000"
 5961      6D5F6765 
 5961      745F6F62 
 5961      73657276 
 5961      655F696E 
 5962              		.section	.rodata.__func__.7286,"a",%progbits
 5963              		.align	2
 5966              	__func__.7286:
 5967 0000 6C776D32 		.ascii	"lwm2m_send_notify\000"
 5967      6D5F7365 
 5967      6E645F6E 
 5967      6F746966 
 5967      7900
 5968              		.ident	"GCC: (GNU Tools for Arm Embedded Processors 7-2017-q4-major) 7.2.1 20170904 (release) [ARM
ARM GAS  C:\Users\SONG_J~1\AppData\Local\Temp\ccpfiTpO.s 			page 109

