ARM GAS  C:\Users\SONG_J~1\AppData\Local\Temp\ccZdy5rr.s 			page 1


   1              		.cpu cortex-m0
   2              		.eabi_attribute 20, 1
   3              		.eabi_attribute 21, 1
   4              		.eabi_attribute 23, 3
   5              		.eabi_attribute 24, 1
   6              		.eabi_attribute 25, 1
   7              		.eabi_attribute 26, 1
   8              		.eabi_attribute 30, 6
   9              		.eabi_attribute 34, 0
  10              		.eabi_attribute 18, 4
  11              		.file	"system_nrf51.c"
  12              		.global	SystemCoreClock
  13              		.section	.data.SystemCoreClock,"aw",%progbits
  14              		.align	2
  17              	SystemCoreClock:
  18 0000 0024F400 		.word	16000000
  19              		.section	.text.SystemCoreClockUpdate,"ax",%progbits
  20              		.align	1
  21              		.global	SystemCoreClockUpdate
  22              		.syntax unified
  23              		.code	16
  24              		.thumb_func
  25              		.fpu softvfp
  27              	SystemCoreClockUpdate:
  28              		@ args = 0, pretend = 0, frame = 0
  29              		@ frame_needed = 1, uses_anonymous_args = 0
  30 0000 80B5     		push	{r7, lr}
  31 0002 00AF     		add	r7, sp, #0
  32 0004 024B     		ldr	r3, .L2
  33 0006 034A     		ldr	r2, .L2+4
  34 0008 1A60     		str	r2, [r3]
  35 000a C046     		nop
  36 000c BD46     		mov	sp, r7
  37              		@ sp needed
  38 000e 80BD     		pop	{r7, pc}
  39              	.L3:
  40              		.align	2
  41              	.L2:
  42 0010 00000000 		.word	SystemCoreClock
  43 0014 0024F400 		.word	16000000
  45              		.section	.text.SystemInit,"ax",%progbits
  46              		.align	1
  47              		.global	SystemInit
  48              		.syntax unified
  49              		.code	16
  50              		.thumb_func
  51              		.fpu softvfp
  53              	SystemInit:
  54              		@ args = 0, pretend = 0, frame = 0
  55              		@ frame_needed = 1, uses_anonymous_args = 0
  56 0000 80B5     		push	{r7, lr}
  57 0002 00AF     		add	r7, sp, #0
  58 0004 FFF7FEFF 		bl	is_manual_peripheral_setup_needed
  59 0008 031E     		subs	r3, r0, #0
  60 000a 06D0     		beq	.L5
  61 000c 094B     		ldr	r3, .L8
  62 000e 0A4A     		ldr	r2, .L8+4
ARM GAS  C:\Users\SONG_J~1\AppData\Local\Temp\ccZdy5rr.s 			page 2


  63 0010 1A60     		str	r2, [r3]
  64 0012 0A4B     		ldr	r3, .L8+8
  65 0014 8022     		movs	r2, #128
  66 0016 1202     		lsls	r2, r2, #8
  67 0018 1A60     		str	r2, [r3]
  68              	.L5:
  69 001a FFF7FEFF 		bl	is_disabled_in_debug_needed
  70 001e 031E     		subs	r3, r0, #0
  71 0020 05D0     		beq	.L7
  72 0022 8023     		movs	r3, #128
  73 0024 DA05     		lsls	r2, r3, #23
  74 0026 C123     		movs	r3, #193
  75 0028 DB00     		lsls	r3, r3, #3
  76 002a 0121     		movs	r1, #1
  77 002c D150     		str	r1, [r2, r3]
  78              	.L7:
  79 002e C046     		nop
  80 0030 BD46     		mov	sp, r7
  81              		@ sp needed
  82 0032 80BD     		pop	{r7, pc}
  83              	.L9:
  84              		.align	2
  85              	.L8:
  86 0034 04050040 		.word	1073743108
  87 0038 DFFF07C0 		.word	-1073217569
  88 003c 186C0040 		.word	1073769496
  90              		.section	.text.is_manual_peripheral_setup_needed,"ax",%progbits
  91              		.align	1
  92              		.syntax unified
  93              		.code	16
  94              		.thumb_func
  95              		.fpu softvfp
  97              	is_manual_peripheral_setup_needed:
  98              		@ args = 0, pretend = 0, frame = 0
  99              		@ frame_needed = 1, uses_anonymous_args = 0
 100 0000 80B5     		push	{r7, lr}
 101 0002 00AF     		add	r7, sp, #0
 102 0004 1A4B     		ldr	r3, .L15
 103 0006 1B68     		ldr	r3, [r3]
 104 0008 FF22     		movs	r2, #255
 105 000a 1340     		ands	r3, r2
 106 000c 012B     		cmp	r3, #1
 107 000e 2AD1     		bne	.L11
 108 0010 184B     		ldr	r3, .L15+4
 109 0012 1B68     		ldr	r3, [r3]
 110 0014 0F22     		movs	r2, #15
 111 0016 1340     		ands	r3, r2
 112 0018 25D1     		bne	.L11
 113 001a 174B     		ldr	r3, .L15+8
 114 001c 1B68     		ldr	r3, [r3]
 115 001e F022     		movs	r2, #240
 116 0020 1340     		ands	r3, r2
 117 0022 06D1     		bne	.L12
 118 0024 154B     		ldr	r3, .L15+12
 119 0026 1B68     		ldr	r3, [r3]
 120 0028 F022     		movs	r2, #240
 121 002a 1340     		ands	r3, r2
ARM GAS  C:\Users\SONG_J~1\AppData\Local\Temp\ccZdy5rr.s 			page 3


 122 002c 01D1     		bne	.L12
 123 002e 0123     		movs	r3, #1
 124 0030 1AE0     		b	.L13
 125              	.L12:
 126 0032 114B     		ldr	r3, .L15+8
 127 0034 1B68     		ldr	r3, [r3]
 128 0036 F022     		movs	r2, #240
 129 0038 1340     		ands	r3, r2
 130 003a 102B     		cmp	r3, #16
 131 003c 06D1     		bne	.L14
 132 003e 0F4B     		ldr	r3, .L15+12
 133 0040 1B68     		ldr	r3, [r3]
 134 0042 F022     		movs	r2, #240
 135 0044 1340     		ands	r3, r2
 136 0046 01D1     		bne	.L14
 137 0048 0123     		movs	r3, #1
 138 004a 0DE0     		b	.L13
 139              	.L14:
 140 004c 0A4B     		ldr	r3, .L15+8
 141 004e 1B68     		ldr	r3, [r3]
 142 0050 F022     		movs	r2, #240
 143 0052 1340     		ands	r3, r2
 144 0054 302B     		cmp	r3, #48
 145 0056 06D1     		bne	.L11
 146 0058 084B     		ldr	r3, .L15+12
 147 005a 1B68     		ldr	r3, [r3]
 148 005c F022     		movs	r2, #240
 149 005e 1340     		ands	r3, r2
 150 0060 01D1     		bne	.L11
 151 0062 0123     		movs	r3, #1
 152 0064 00E0     		b	.L13
 153              	.L11:
 154 0066 0023     		movs	r3, #0
 155              	.L13:
 156 0068 1800     		movs	r0, r3
 157 006a BD46     		mov	sp, r7
 158              		@ sp needed
 159 006c 80BD     		pop	{r7, pc}
 160              	.L16:
 161 006e C046     		.align	2
 162              	.L15:
 163 0070 E00F00F0 		.word	-268431392
 164 0074 E40F00F0 		.word	-268431388
 165 0078 E80F00F0 		.word	-268431384
 166 007c EC0F00F0 		.word	-268431380
 168              		.section	.text.is_disabled_in_debug_needed,"ax",%progbits
 169              		.align	1
 170              		.syntax unified
 171              		.code	16
 172              		.thumb_func
 173              		.fpu softvfp
 175              	is_disabled_in_debug_needed:
 176              		@ args = 0, pretend = 0, frame = 0
 177              		@ frame_needed = 1, uses_anonymous_args = 0
 178 0000 80B5     		push	{r7, lr}
 179 0002 00AF     		add	r7, sp, #0
 180 0004 0D4B     		ldr	r3, .L20
ARM GAS  C:\Users\SONG_J~1\AppData\Local\Temp\ccZdy5rr.s 			page 4


 181 0006 1B68     		ldr	r3, [r3]
 182 0008 FF22     		movs	r2, #255
 183 000a 1340     		ands	r3, r2
 184 000c 012B     		cmp	r3, #1
 185 000e 11D1     		bne	.L18
 186 0010 0B4B     		ldr	r3, .L20+4
 187 0012 1B68     		ldr	r3, [r3]
 188 0014 0F22     		movs	r2, #15
 189 0016 1340     		ands	r3, r2
 190 0018 0CD1     		bne	.L18
 191 001a 0A4B     		ldr	r3, .L20+8
 192 001c 1B68     		ldr	r3, [r3]
 193 001e F022     		movs	r2, #240
 194 0020 1340     		ands	r3, r2
 195 0022 402B     		cmp	r3, #64
 196 0024 06D1     		bne	.L18
 197 0026 084B     		ldr	r3, .L20+12
 198 0028 1B68     		ldr	r3, [r3]
 199 002a F022     		movs	r2, #240
 200 002c 1340     		ands	r3, r2
 201 002e 01D1     		bne	.L18
 202 0030 0123     		movs	r3, #1
 203 0032 00E0     		b	.L19
 204              	.L18:
 205 0034 0023     		movs	r3, #0
 206              	.L19:
 207 0036 1800     		movs	r0, r3
 208 0038 BD46     		mov	sp, r7
 209              		@ sp needed
 210 003a 80BD     		pop	{r7, pc}
 211              	.L21:
 212              		.align	2
 213              	.L20:
 214 003c E00F00F0 		.word	-268431392
 215 0040 E40F00F0 		.word	-268431388
 216 0044 E80F00F0 		.word	-268431384
 217 0048 EC0F00F0 		.word	-268431380
 219              		.ident	"GCC: (GNU Tools for Arm Embedded Processors 7-2017-q4-major) 7.2.1 20170904 (release) [ARM
ARM GAS  C:\Users\SONG_J~1\AppData\Local\Temp\ccZdy5rr.s 			page 5

