ARM GAS  C:\Users\SONG_J~1\AppData\Local\Temp\cck16Ymb.s 			page 1


   1              		.cpu cortex-m0
   2              		.eabi_attribute 20, 1
   3              		.eabi_attribute 21, 1
   4              		.eabi_attribute 23, 3
   5              		.eabi_attribute 24, 1
   6              		.eabi_attribute 25, 1
   7              		.eabi_attribute 26, 1
   8              		.eabi_attribute 30, 6
   9              		.eabi_attribute 34, 0
  10              		.eabi_attribute 18, 4
  11              		.file	"u2n_if.c"
  12              		.global	g_op
  13              		.section	.bss.g_op,"aw",%nobits
  14              		.align	2
  17              	g_op:
  18 0000 00000000 		.space	4
  19              		.section	.text.u2n_if_register,"ax",%progbits
  20              		.align	1
  21              		.global	u2n_if_register
  22              		.syntax unified
  23              		.code	16
  24              		.thumb_func
  25              		.fpu softvfp
  27              	u2n_if_register:
  28              		@ args = 0, pretend = 0, frame = 8
  29              		@ frame_needed = 1, uses_anonymous_args = 0
  30 0000 80B5     		push	{r7, lr}
  31 0002 82B0     		sub	sp, sp, #8
  32 0004 00AF     		add	r7, sp, #0
  33 0006 7860     		str	r0, [r7, #4]
  34 0008 0D4B     		ldr	r3, .L5
  35 000a 1B68     		ldr	r3, [r3]
  36 000c 002B     		cmp	r3, #0
  37 000e 02D1     		bne	.L2
  38 0010 0B4B     		ldr	r3, .L5
  39 0012 7A68     		ldr	r2, [r7, #4]
  40 0014 1A60     		str	r2, [r3]
  41              	.L2:
  42 0016 0A4B     		ldr	r3, .L5
  43 0018 1B68     		ldr	r3, [r3]
  44 001a 002B     		cmp	r3, #0
  45 001c 0AD0     		beq	.L3
  46 001e 084B     		ldr	r3, .L5
  47 0020 1B68     		ldr	r3, [r3]
  48 0022 1B68     		ldr	r3, [r3]
  49 0024 002B     		cmp	r3, #0
  50 0026 05D0     		beq	.L3
  51 0028 054B     		ldr	r3, .L5
  52 002a 1B68     		ldr	r3, [r3]
  53 002c 1B68     		ldr	r3, [r3]
  54 002e 9847     		blx	r3
  55 0030 0300     		movs	r3, r0
  56 0032 00E0     		b	.L4
  57              	.L3:
  58 0034 0023     		movs	r3, #0
  59              	.L4:
  60 0036 1800     		movs	r0, r3
ARM GAS  C:\Users\SONG_J~1\AppData\Local\Temp\cck16Ymb.s 			page 2


  61 0038 BD46     		mov	sp, r7
  62 003a 02B0     		add	sp, sp, #8
  63              		@ sp needed
  64 003c 80BD     		pop	{r7, pc}
  65              	.L6:
  66 003e C046     		.align	2
  67              	.L5:
  68 0040 00000000 		.word	g_op
  70              		.section	.text.u2n_if_connect,"ax",%progbits
  71              		.align	1
  72              		.global	u2n_if_connect
  73              		.syntax unified
  74              		.code	16
  75              		.thumb_func
  76              		.fpu softvfp
  78              	u2n_if_connect:
  79              		@ args = 0, pretend = 0, frame = 16
  80              		@ frame_needed = 1, uses_anonymous_args = 0
  81 0000 80B5     		push	{r7, lr}
  82 0002 84B0     		sub	sp, sp, #16
  83 0004 00AF     		add	r7, sp, #0
  84 0006 F860     		str	r0, [r7, #12]
  85 0008 B960     		str	r1, [r7, #8]
  86 000a 7A60     		str	r2, [r7, #4]
  87 000c 0B4B     		ldr	r3, .L10
  88 000e 1B68     		ldr	r3, [r3]
  89 0010 002B     		cmp	r3, #0
  90 0012 0DD0     		beq	.L8
  91 0014 094B     		ldr	r3, .L10
  92 0016 1B68     		ldr	r3, [r3]
  93 0018 5B68     		ldr	r3, [r3, #4]
  94 001a 002B     		cmp	r3, #0
  95 001c 08D0     		beq	.L8
  96 001e 074B     		ldr	r3, .L10
  97 0020 1B68     		ldr	r3, [r3]
  98 0022 5B68     		ldr	r3, [r3, #4]
  99 0024 7A68     		ldr	r2, [r7, #4]
 100 0026 B968     		ldr	r1, [r7, #8]
 101 0028 F868     		ldr	r0, [r7, #12]
 102 002a 9847     		blx	r3
 103 002c 0300     		movs	r3, r0
 104 002e 00E0     		b	.L9
 105              	.L8:
 106 0030 0023     		movs	r3, #0
 107              	.L9:
 108 0032 1800     		movs	r0, r3
 109 0034 BD46     		mov	sp, r7
 110 0036 04B0     		add	sp, sp, #16
 111              		@ sp needed
 112 0038 80BD     		pop	{r7, pc}
 113              	.L11:
 114 003a C046     		.align	2
 115              	.L10:
 116 003c 00000000 		.word	g_op
 118              		.section	.text.u2n_if_recv_timeout,"ax",%progbits
 119              		.align	1
 120              		.global	u2n_if_recv_timeout
ARM GAS  C:\Users\SONG_J~1\AppData\Local\Temp\cck16Ymb.s 			page 3


 121              		.syntax unified
 122              		.code	16
 123              		.thumb_func
 124              		.fpu softvfp
 126              	u2n_if_recv_timeout:
 127              		@ args = 0, pretend = 0, frame = 16
 128              		@ frame_needed = 1, uses_anonymous_args = 0
 129 0000 90B5     		push	{r4, r7, lr}
 130 0002 85B0     		sub	sp, sp, #20
 131 0004 00AF     		add	r7, sp, #0
 132 0006 F860     		str	r0, [r7, #12]
 133 0008 B960     		str	r1, [r7, #8]
 134 000a 7A60     		str	r2, [r7, #4]
 135 000c 3B60     		str	r3, [r7]
 136 000e 0C4B     		ldr	r3, .L15
 137 0010 1B68     		ldr	r3, [r3]
 138 0012 002B     		cmp	r3, #0
 139 0014 0ED0     		beq	.L13
 140 0016 0A4B     		ldr	r3, .L15
 141 0018 1B68     		ldr	r3, [r3]
 142 001a 1B69     		ldr	r3, [r3, #16]
 143 001c 002B     		cmp	r3, #0
 144 001e 09D0     		beq	.L13
 145 0020 074B     		ldr	r3, .L15
 146 0022 1B68     		ldr	r3, [r3]
 147 0024 1C69     		ldr	r4, [r3, #16]
 148 0026 3B68     		ldr	r3, [r7]
 149 0028 7A68     		ldr	r2, [r7, #4]
 150 002a B968     		ldr	r1, [r7, #8]
 151 002c F868     		ldr	r0, [r7, #12]
 152 002e A047     		blx	r4
 153 0030 0300     		movs	r3, r0
 154 0032 00E0     		b	.L14
 155              	.L13:
 156 0034 0023     		movs	r3, #0
 157              	.L14:
 158 0036 1800     		movs	r0, r3
 159 0038 BD46     		mov	sp, r7
 160 003a 05B0     		add	sp, sp, #20
 161              		@ sp needed
 162 003c 90BD     		pop	{r4, r7, pc}
 163              	.L16:
 164 003e C046     		.align	2
 165              	.L15:
 166 0040 00000000 		.word	g_op
 168              		.section	.text.u2n_if_recv,"ax",%progbits
 169              		.align	1
 170              		.global	u2n_if_recv
 171              		.syntax unified
 172              		.code	16
 173              		.thumb_func
 174              		.fpu softvfp
 176              	u2n_if_recv:
 177              		@ args = 0, pretend = 0, frame = 16
 178              		@ frame_needed = 1, uses_anonymous_args = 0
 179 0000 80B5     		push	{r7, lr}
 180 0002 84B0     		sub	sp, sp, #16
ARM GAS  C:\Users\SONG_J~1\AppData\Local\Temp\cck16Ymb.s 			page 4


 181 0004 00AF     		add	r7, sp, #0
 182 0006 F860     		str	r0, [r7, #12]
 183 0008 B960     		str	r1, [r7, #8]
 184 000a 7A60     		str	r2, [r7, #4]
 185 000c 0B4B     		ldr	r3, .L20
 186 000e 1B68     		ldr	r3, [r3]
 187 0010 002B     		cmp	r3, #0
 188 0012 0DD0     		beq	.L18
 189 0014 094B     		ldr	r3, .L20
 190 0016 1B68     		ldr	r3, [r3]
 191 0018 DB68     		ldr	r3, [r3, #12]
 192 001a 002B     		cmp	r3, #0
 193 001c 08D0     		beq	.L18
 194 001e 074B     		ldr	r3, .L20
 195 0020 1B68     		ldr	r3, [r3]
 196 0022 DB68     		ldr	r3, [r3, #12]
 197 0024 7A68     		ldr	r2, [r7, #4]
 198 0026 B968     		ldr	r1, [r7, #8]
 199 0028 F868     		ldr	r0, [r7, #12]
 200 002a 9847     		blx	r3
 201 002c 0300     		movs	r3, r0
 202 002e 00E0     		b	.L19
 203              	.L18:
 204 0030 0023     		movs	r3, #0
 205              	.L19:
 206 0032 1800     		movs	r0, r3
 207 0034 BD46     		mov	sp, r7
 208 0036 04B0     		add	sp, sp, #16
 209              		@ sp needed
 210 0038 80BD     		pop	{r7, pc}
 211              	.L21:
 212 003a C046     		.align	2
 213              	.L20:
 214 003c 00000000 		.word	g_op
 216              		.section	.text.u2n_if_send,"ax",%progbits
 217              		.align	1
 218              		.global	u2n_if_send
 219              		.syntax unified
 220              		.code	16
 221              		.thumb_func
 222              		.fpu softvfp
 224              	u2n_if_send:
 225              		@ args = 0, pretend = 0, frame = 16
 226              		@ frame_needed = 1, uses_anonymous_args = 0
 227 0000 80B5     		push	{r7, lr}
 228 0002 84B0     		sub	sp, sp, #16
 229 0004 00AF     		add	r7, sp, #0
 230 0006 F860     		str	r0, [r7, #12]
 231 0008 B960     		str	r1, [r7, #8]
 232 000a 7A60     		str	r2, [r7, #4]
 233 000c 0B4B     		ldr	r3, .L25
 234 000e 1B68     		ldr	r3, [r3]
 235 0010 002B     		cmp	r3, #0
 236 0012 0DD0     		beq	.L23
 237 0014 094B     		ldr	r3, .L25
 238 0016 1B68     		ldr	r3, [r3]
 239 0018 9B68     		ldr	r3, [r3, #8]
ARM GAS  C:\Users\SONG_J~1\AppData\Local\Temp\cck16Ymb.s 			page 5


 240 001a 002B     		cmp	r3, #0
 241 001c 08D0     		beq	.L23
 242 001e 074B     		ldr	r3, .L25
 243 0020 1B68     		ldr	r3, [r3]
 244 0022 9B68     		ldr	r3, [r3, #8]
 245 0024 7A68     		ldr	r2, [r7, #4]
 246 0026 B968     		ldr	r1, [r7, #8]
 247 0028 F868     		ldr	r0, [r7, #12]
 248 002a 9847     		blx	r3
 249 002c 0300     		movs	r3, r0
 250 002e 00E0     		b	.L24
 251              	.L23:
 252 0030 0023     		movs	r3, #0
 253              	.L24:
 254 0032 1800     		movs	r0, r3
 255 0034 BD46     		mov	sp, r7
 256 0036 04B0     		add	sp, sp, #16
 257              		@ sp needed
 258 0038 80BD     		pop	{r7, pc}
 259              	.L26:
 260 003a C046     		.align	2
 261              	.L25:
 262 003c 00000000 		.word	g_op
 264              		.section	.text.u2n_if_close,"ax",%progbits
 265              		.align	1
 266              		.global	u2n_if_close
 267              		.syntax unified
 268              		.code	16
 269              		.thumb_func
 270              		.fpu softvfp
 272              	u2n_if_close:
 273              		@ args = 0, pretend = 0, frame = 8
 274              		@ frame_needed = 1, uses_anonymous_args = 0
 275 0000 80B5     		push	{r7, lr}
 276 0002 82B0     		sub	sp, sp, #8
 277 0004 00AF     		add	r7, sp, #0
 278 0006 7860     		str	r0, [r7, #4]
 279 0008 0A4B     		ldr	r3, .L30
 280 000a 1B68     		ldr	r3, [r3]
 281 000c 002B     		cmp	r3, #0
 282 000e 0CD0     		beq	.L28
 283 0010 084B     		ldr	r3, .L30
 284 0012 1B68     		ldr	r3, [r3]
 285 0014 5B69     		ldr	r3, [r3, #20]
 286 0016 002B     		cmp	r3, #0
 287 0018 07D0     		beq	.L28
 288 001a 064B     		ldr	r3, .L30
 289 001c 1B68     		ldr	r3, [r3]
 290 001e 5B69     		ldr	r3, [r3, #20]
 291 0020 7A68     		ldr	r2, [r7, #4]
 292 0022 1000     		movs	r0, r2
 293 0024 9847     		blx	r3
 294 0026 0300     		movs	r3, r0
 295 0028 00E0     		b	.L29
 296              	.L28:
 297 002a 0023     		movs	r3, #0
 298              	.L29:
ARM GAS  C:\Users\SONG_J~1\AppData\Local\Temp\cck16Ymb.s 			page 6


 299 002c 1800     		movs	r0, r3
 300 002e BD46     		mov	sp, r7
 301 0030 02B0     		add	sp, sp, #8
 302              		@ sp needed
 303 0032 80BD     		pop	{r7, pc}
 304              	.L31:
 305              		.align	2
 306              	.L30:
 307 0034 00000000 		.word	g_op
 309              		.ident	"GCC: (GNU Tools for Arm Embedded Processors 7-2017-q4-major) 7.2.1 20170904 (release) [ARM
ARM GAS  C:\Users\SONG_J~1\AppData\Local\Temp\cck16Ymb.s 			page 7

